GAS LISTING /tmp/cc3mzyOR.s 			page 1


   1              		.file	"EApiAHStr.c"
   2              		.section	.rodata.str1.1,"aMS",@progbits,1
   3              	.LC0:
   4 0000 25730A00 		.string	"%s\n"
   5              	.LC1:
   6 0004 45417069 		.string	"EApiAHCreatePNPIDString"
   6      41484372 
   6      65617465 
   6      504E5049 
   6      44537472 
   7              		.section	.rodata.str1.8,"aMS",@progbits,1
   8              		.align 8
   9              	.LC2:
  10 0000 2F646576 		.string	"/development/eAPI/eapidk-code/apps/EApiValidateAPI/linux/../../common/EApiAHStr.c"
  10      656C6F70 
  10      6D656E74 
  10      2F654150 
  10      492F6561 
  11              		.section	.rodata.str1.1
  12              	.LC3:
  13 001c 28705374 		.string	"(pString==NULL)"
  13      72696E67 
  13      3D3D4E55 
  13      4C4C2900 
  14              	.LC4:
  15 002c 70427566 		.string	"pBuffer Too Short"
  15      66657220 
  15      546F6F20 
  15      53686F72 
  15      7400
  16              		.section	.text.unlikely,"ax",@progbits
  17              	.LCOLDB5:
  18              		.text
  19              	.LHOTB5:
  20              		.p2align 4,,15
  21              		.globl	EApiAHCreatePNPIDString
  23              	EApiAHCreatePNPIDString:
  24              	.LFB111:
  25              		.cfi_startproc
  26 0000 4883EC08 		subq	$8, %rsp
  27              		.cfi_def_cfa_offset 16
  28 0004 66C1C708 		rolw	$8, %di
  29 0008 4885F6   		testq	%rsi, %rsi
  30 000b 0F848F00 		je	.L10
  30      0000
  31 0011 83FA03   		cmpl	$3, %edx
  32 0014 764A     		jbe	.L11
  33 0016 6685FF   		testw	%di, %di
  34 0019 787E     		js	.L6
  35 001b 0FB7C7   		movzwl	%di, %eax
  36 001e 83E71F   		andl	$31, %edi
  37 0021 0FB69700 		movzbl	CompressedAsciiLookup(%rdi), %edx
  37      000000
  38 0028 885602   		movb	%dl, 2(%rsi)
  39 002b 89C2     		movl	%eax, %edx
  40 002d C1F80A   		sarl	$10, %eax
  41 0030 C1FA05   		sarl	$5, %edx
GAS LISTING /tmp/cc3mzyOR.s 			page 2


  42 0033 4898     		cltq
  43 0035 83E21F   		andl	$31, %edx
  44 0038 0FB69200 		movzbl	CompressedAsciiLookup(%rdx), %edx
  44      000000
  45 003f 885601   		movb	%dl, 1(%rsi)
  46 0042 0FB68000 		movzbl	CompressedAsciiLookup(%rax), %eax
  46      000000
  47 0049 C6460300 		movb	$0, 3(%rsi)
  48 004d 8806     		movb	%al, (%rsi)
  49 004f B8030000 		movl	$3, %eax
  49      00
  50              	.L3:
  51              	.L5:
  52 0054 4883C408 		addq	$8, %rsp
  53              		.cfi_remember_state
  54              		.cfi_def_cfa_offset 8
  55 0058 C3       		ret
  56 0059 0F1F8000 		.p2align 4,,10
  56      000000
  57              		.p2align 3
  58              	.L11:
  59              		.cfi_restore_state
  60 0060 4883EC08 		subq	$8, %rsp
  61              		.cfi_def_cfa_offset 24
  62 0064 41B90000 		movl	$.LC0, %r9d
  62      0000
  63 006a 41B8FFFF 		movl	$-1, %r8d
  63      FFFF
  64 0070 68000000 		pushq	$.LC4
  64      00
  65              		.cfi_def_cfa_offset 32
  66 0075 B9990100 		movl	$409, %ecx
  66      00
  67              	.L8:
  68 007a BA000000 		movl	$.LC1, %edx
  68      00
  69 007f BE000000 		movl	$.LC2, %esi
  69      00
  70 0084 BF450000 		movl	$69, %edi
  70      00
  71 0089 31C0     		xorl	%eax, %eax
  72 008b E8000000 		call	siFormattedMessage_SC
  72      00
  73 0090 58       		popq	%rax
  74              		.cfi_def_cfa_offset 24
  75 0091 B8FFFFFF 		movl	$-1, %eax
  75      FF
  76 0096 5A       		popq	%rdx
  77              		.cfi_def_cfa_offset 16
  78 0097 EBBB     		jmp	.L5
  79              	.L6:
  80 0099 B8FFFFFF 		movl	$-1, %eax
  80      FF
  81 009e EBB4     		jmp	.L5
  82              	.L10:
  83 00a0 4883EC08 		subq	$8, %rsp
  84              		.cfi_def_cfa_offset 24
GAS LISTING /tmp/cc3mzyOR.s 			page 3


  85 00a4 41B90000 		movl	$.LC0, %r9d
  85      0000
  86 00aa 41B8FFFF 		movl	$-1, %r8d
  86      FFFF
  87 00b0 68000000 		pushq	$.LC3
  87      00
  88              		.cfi_def_cfa_offset 32
  89 00b5 B9970100 		movl	$407, %ecx
  89      00
  90 00ba EBBE     		jmp	.L8
  91              		.cfi_endproc
  92              	.LFE111:
  94              		.section	.text.unlikely
  95              	.LCOLDE5:
  96              		.text
  97              	.LHOTE5:
  98              		.section	.text.unlikely
  99              	.LCOLDB6:
 100              		.text
 101              	.LHOTB6:
 102 00bc 0F1F4000 		.p2align 4,,15
 103              		.globl	EApiStrLenA
 105              	EApiStrLenA:
 106              	.LFB112:
 107              		.cfi_startproc
 108 00c0 4885F6   		testq	%rsi, %rsi
 109 00c3 743B     		je	.L18
 110 00c5 4885FF   		testq	%rdi, %rdi
 111 00c8 7436     		je	.L18
 112 00ca 803F00   		cmpb	$0, (%rdi)
 113 00cd 488D5701 		leaq	1(%rdi), %rdx
 114 00d1 488D0437 		leaq	(%rdi,%rsi), %rax
 115 00d5 7516     		jne	.L16
 116 00d7 EB27     		jmp	.L18
 117 00d9 0F1F8000 		.p2align 4,,10
 117      000000
 118              		.p2align 3
 119              	.L17:
 120 00e0 488D4A01 		leaq	1(%rdx), %rcx
 121 00e4 8079FF00 		cmpb	$0, -1(%rcx)
 122 00e8 741E     		je	.L22
 123 00ea 4889CA   		movq	%rcx, %rdx
 124              	.L16:
 125 00ed 4839D0   		cmpq	%rdx, %rax
 126 00f0 75EE     		jne	.L17
 127 00f2 4829F8   		subq	%rdi, %rax
 128 00f5 C3       		ret
 129 00f6 662E0F1F 		.p2align 4,,10
 129      84000000 
 129      0000
 130              		.p2align 3
 131              	.L18:
 132 0100 31C0     		xorl	%eax, %eax
 133 0102 C3       		ret
 134              		.p2align 4,,10
 135 0103 0F1F4400 		.p2align 3
 135      00
GAS LISTING /tmp/cc3mzyOR.s 			page 4


 136              	.L22:
 137 0108 4889D0   		movq	%rdx, %rax
 138 010b 4829F8   		subq	%rdi, %rax
 139 010e C3       		ret
 140              		.cfi_endproc
 141              	.LFE112:
 143              		.section	.text.unlikely
 144              	.LCOLDE6:
 145              		.text
 146              	.LHOTE6:
 147              		.section	.text.unlikely
 148              	.LCOLDB7:
 149              		.text
 150              	.LHOTB7:
 151 010f 90       		.p2align 4,,15
 152              		.globl	EApiStrCpyA
 154              	EApiStrCpyA:
 155              	.LFB113:
 156              		.cfi_startproc
 157 0110 55       		pushq	%rbp
 158              		.cfi_def_cfa_offset 16
 159              		.cfi_offset 6, -16
 160 0111 53       		pushq	%rbx
 161              		.cfi_def_cfa_offset 24
 162              		.cfi_offset 3, -24
 163 0112 4889F5   		movq	%rsi, %rbp
 164 0115 4889D6   		movq	%rdx, %rsi
 165 0118 4889FB   		movq	%rdi, %rbx
 166 011b 4883EC08 		subq	$8, %rsp
 167              		.cfi_def_cfa_offset 32
 168 011f 4885D2   		testq	%rdx, %rdx
 169 0122 0F94C2   		sete	%dl
 170 0125 4885ED   		testq	%rbp, %rbp
 171 0128 0F94C0   		sete	%al
 172 012b 08C2     		orb	%al, %dl
 173 012d 7512     		jne	.L24
 174 012f 4885FF   		testq	%rdi, %rdi
 175 0132 740D     		je	.L24
 176 0134 4889EA   		movq	%rbp, %rdx
 177 0137 E8000000 		call	strncpy
 177      00
 178 013c C6442BFF 		movb	$0, -1(%rbx,%rbp)
 178      00
 179              	.L24:
 180 0141 4883C408 		addq	$8, %rsp
 181              		.cfi_def_cfa_offset 24
 182 0145 4889D8   		movq	%rbx, %rax
 183 0148 5B       		popq	%rbx
 184              		.cfi_def_cfa_offset 16
 185 0149 5D       		popq	%rbp
 186              		.cfi_def_cfa_offset 8
 187 014a C3       		ret
 188              		.cfi_endproc
 189              	.LFE113:
 191              		.section	.text.unlikely
 192              	.LCOLDE7:
 193              		.text
GAS LISTING /tmp/cc3mzyOR.s 			page 5


 194              	.LHOTE7:
 195              		.section	.text.unlikely
 196              	.LCOLDB8:
 197              		.text
 198              	.LHOTB8:
 199 014b 0F1F4400 		.p2align 4,,15
 199      00
 200              		.globl	EApiSprintfA
 202              	EApiSprintfA:
 203              	.LFB114:
 204              		.cfi_startproc
 205 0150 55       		pushq	%rbp
 206              		.cfi_def_cfa_offset 16
 207              		.cfi_offset 6, -16
 208 0151 53       		pushq	%rbx
 209              		.cfi_def_cfa_offset 24
 210              		.cfi_offset 3, -24
 211 0152 4889FD   		movq	%rdi, %rbp
 212 0155 4889F3   		movq	%rsi, %rbx
 213 0158 4881ECD8 		subq	$216, %rsp
 213      000000
 214              		.cfi_def_cfa_offset 240
 215 015f 84C0     		testb	%al, %al
 216 0161 48894C24 		movq	%rcx, 56(%rsp)
 216      38
 217 0166 4C894424 		movq	%r8, 64(%rsp)
 217      40
 218 016b 4C894C24 		movq	%r9, 72(%rsp)
 218      48
 219 0170 7437     		je	.L27
 220 0172 0F294424 		movaps	%xmm0, 80(%rsp)
 220      50
 221 0177 0F294C24 		movaps	%xmm1, 96(%rsp)
 221      60
 222 017c 0F295424 		movaps	%xmm2, 112(%rsp)
 222      70
 223 0181 0F299C24 		movaps	%xmm3, 128(%rsp)
 223      80000000 
 224 0189 0F29A424 		movaps	%xmm4, 144(%rsp)
 224      90000000 
 225 0191 0F29AC24 		movaps	%xmm5, 160(%rsp)
 225      A0000000 
 226 0199 0F29B424 		movaps	%xmm6, 176(%rsp)
 226      B0000000 
 227 01a1 0F29BC24 		movaps	%xmm7, 192(%rsp)
 227      C0000000 
 228              	.L27:
 229 01a9 64488B04 		movq	%fs:40, %rax
 229      25280000 
 229      00
 230 01b2 48894424 		movq	%rax, 24(%rsp)
 230      18
 231 01b7 31C0     		xorl	%eax, %eax
 232 01b9 4885D2   		testq	%rdx, %rdx
 233 01bc 0F94C1   		sete	%cl
 234 01bf 4885DB   		testq	%rbx, %rbx
 235 01c2 0F94C0   		sete	%al
GAS LISTING /tmp/cc3mzyOR.s 			page 6


 236 01c5 08C1     		orb	%al, %cl
 237 01c7 7567     		jne	.L30
 238 01c9 4885ED   		testq	%rbp, %rbp
 239 01cc 7462     		je	.L30
 240 01ce 488D8424 		leaq	240(%rsp), %rax
 240      F0000000 
 241 01d6 4989D0   		movq	%rdx, %r8
 242 01d9 4989E1   		movq	%rsp, %r9
 243 01dc 48C7C1FF 		movq	$-1, %rcx
 243      FFFFFF
 244 01e3 BA010000 		movl	$1, %edx
 244      00
 245 01e8 4889DE   		movq	%rbx, %rsi
 246 01eb 48894424 		movq	%rax, 8(%rsp)
 246      08
 247 01f0 488D4424 		leaq	32(%rsp), %rax
 247      20
 248 01f5 4889EF   		movq	%rbp, %rdi
 249 01f8 C7042418 		movl	$24, (%rsp)
 249      000000
 250 01ff C7442404 		movl	$48, 4(%rsp)
 250      30000000 
 251 0207 48894424 		movq	%rax, 16(%rsp)
 251      10
 252 020c E8000000 		call	__vsnprintf_chk
 252      00
 253 0211 C6441DFF 		movb	$0, -1(%rbp,%rbx)
 253      00
 254              	.L28:
 255 0216 488B7424 		movq	24(%rsp), %rsi
 255      18
 256 021b 64483334 		xorq	%fs:40, %rsi
 256      25280000 
 256      00
 257 0224 7511     		jne	.L32
 258 0226 4881C4D8 		addq	$216, %rsp
 258      000000
 259              		.cfi_remember_state
 260              		.cfi_def_cfa_offset 24
 261 022d 5B       		popq	%rbx
 262              		.cfi_def_cfa_offset 16
 263 022e 5D       		popq	%rbp
 264              		.cfi_def_cfa_offset 8
 265 022f C3       		ret
 266              		.p2align 4,,10
 267              		.p2align 3
 268              	.L30:
 269              		.cfi_restore_state
 270 0230 B8FFFFFF 		movl	$-1, %eax
 270      FF
 271 0235 EBDF     		jmp	.L28
 272              	.L32:
 273 0237 E8000000 		call	__stack_chk_fail
 273      00
 274              		.cfi_endproc
 275              	.LFE114:
 277              		.section	.text.unlikely
GAS LISTING /tmp/cc3mzyOR.s 			page 7


 278              	.LCOLDE8:
 279              		.text
 280              	.LHOTE8:
 281              		.section	.text.unlikely
 282              	.LCOLDB9:
 283              		.text
 284              	.LHOTB9:
 285 023c 0F1F4000 		.p2align 4,,15
 286              		.globl	EApiStrLen
 288              	EApiStrLen:
 289              	.LFB115:
 290              		.cfi_startproc
 291 0240 4885F6   		testq	%rsi, %rsi
 292 0243 743B     		je	.L39
 293 0245 4885FF   		testq	%rdi, %rdi
 294 0248 7436     		je	.L39
 295 024a 803F00   		cmpb	$0, (%rdi)
 296 024d 488D5701 		leaq	1(%rdi), %rdx
 297 0251 488D0437 		leaq	(%rdi,%rsi), %rax
 298 0255 7516     		jne	.L37
 299 0257 EB27     		jmp	.L39
 300 0259 0F1F8000 		.p2align 4,,10
 300      000000
 301              		.p2align 3
 302              	.L38:
 303 0260 488D4A01 		leaq	1(%rdx), %rcx
 304 0264 8079FF00 		cmpb	$0, -1(%rcx)
 305 0268 741E     		je	.L43
 306 026a 4889CA   		movq	%rcx, %rdx
 307              	.L37:
 308 026d 4839D0   		cmpq	%rdx, %rax
 309 0270 75EE     		jne	.L38
 310 0272 4829F8   		subq	%rdi, %rax
 311 0275 C3       		ret
 312 0276 662E0F1F 		.p2align 4,,10
 312      84000000 
 312      0000
 313              		.p2align 3
 314              	.L39:
 315 0280 31C0     		xorl	%eax, %eax
 316 0282 C3       		ret
 317              		.p2align 4,,10
 318 0283 0F1F4400 		.p2align 3
 318      00
 319              	.L43:
 320 0288 4889D0   		movq	%rdx, %rax
 321 028b 4829F8   		subq	%rdi, %rax
 322 028e C3       		ret
 323              		.cfi_endproc
 324              	.LFE115:
 326              		.section	.text.unlikely
 327              	.LCOLDE9:
 328              		.text
 329              	.LHOTE9:
 330              		.section	.text.unlikely
 331              	.LCOLDB10:
 332              		.text
GAS LISTING /tmp/cc3mzyOR.s 			page 8


 333              	.LHOTB10:
 334 028f 90       		.p2align 4,,15
 335              		.globl	EApiStrCpy
 337              	EApiStrCpy:
 338              	.LFB116:
 339              		.cfi_startproc
 340 0290 55       		pushq	%rbp
 341              		.cfi_def_cfa_offset 16
 342              		.cfi_offset 6, -16
 343 0291 53       		pushq	%rbx
 344              		.cfi_def_cfa_offset 24
 345              		.cfi_offset 3, -24
 346 0292 4889F5   		movq	%rsi, %rbp
 347 0295 4889D6   		movq	%rdx, %rsi
 348 0298 4889FB   		movq	%rdi, %rbx
 349 029b 4883EC08 		subq	$8, %rsp
 350              		.cfi_def_cfa_offset 32
 351 029f 4885D2   		testq	%rdx, %rdx
 352 02a2 0F94C2   		sete	%dl
 353 02a5 4885ED   		testq	%rbp, %rbp
 354 02a8 0F94C0   		sete	%al
 355 02ab 08C2     		orb	%al, %dl
 356 02ad 7512     		jne	.L45
 357 02af 4885FF   		testq	%rdi, %rdi
 358 02b2 740D     		je	.L45
 359 02b4 4889EA   		movq	%rbp, %rdx
 360 02b7 E8000000 		call	strncpy
 360      00
 361 02bc C6442BFF 		movb	$0, -1(%rbx,%rbp)
 361      00
 362              	.L45:
 363 02c1 4883C408 		addq	$8, %rsp
 364              		.cfi_def_cfa_offset 24
 365 02c5 4889D8   		movq	%rbx, %rax
 366 02c8 5B       		popq	%rbx
 367              		.cfi_def_cfa_offset 16
 368 02c9 5D       		popq	%rbp
 369              		.cfi_def_cfa_offset 8
 370 02ca C3       		ret
 371              		.cfi_endproc
 372              	.LFE116:
 374              		.section	.text.unlikely
 375              	.LCOLDE10:
 376              		.text
 377              	.LHOTE10:
 378              		.section	.text.unlikely
 379              	.LCOLDB11:
 380              		.text
 381              	.LHOTB11:
 382 02cb 0F1F4400 		.p2align 4,,15
 382      00
 383              		.globl	EApiSprintf
 385              	EApiSprintf:
 386              	.LFB117:
 387              		.cfi_startproc
 388 02d0 55       		pushq	%rbp
 389              		.cfi_def_cfa_offset 16
GAS LISTING /tmp/cc3mzyOR.s 			page 9


 390              		.cfi_offset 6, -16
 391 02d1 53       		pushq	%rbx
 392              		.cfi_def_cfa_offset 24
 393              		.cfi_offset 3, -24
 394 02d2 4889FD   		movq	%rdi, %rbp
 395 02d5 4889F3   		movq	%rsi, %rbx
 396 02d8 4881ECD8 		subq	$216, %rsp
 396      000000
 397              		.cfi_def_cfa_offset 240
 398 02df 84C0     		testb	%al, %al
 399 02e1 48894C24 		movq	%rcx, 56(%rsp)
 399      38
 400 02e6 4C894424 		movq	%r8, 64(%rsp)
 400      40
 401 02eb 4C894C24 		movq	%r9, 72(%rsp)
 401      48
 402 02f0 7437     		je	.L48
 403 02f2 0F294424 		movaps	%xmm0, 80(%rsp)
 403      50
 404 02f7 0F294C24 		movaps	%xmm1, 96(%rsp)
 404      60
 405 02fc 0F295424 		movaps	%xmm2, 112(%rsp)
 405      70
 406 0301 0F299C24 		movaps	%xmm3, 128(%rsp)
 406      80000000 
 407 0309 0F29A424 		movaps	%xmm4, 144(%rsp)
 407      90000000 
 408 0311 0F29AC24 		movaps	%xmm5, 160(%rsp)
 408      A0000000 
 409 0319 0F29B424 		movaps	%xmm6, 176(%rsp)
 409      B0000000 
 410 0321 0F29BC24 		movaps	%xmm7, 192(%rsp)
 410      C0000000 
 411              	.L48:
 412 0329 64488B04 		movq	%fs:40, %rax
 412      25280000 
 412      00
 413 0332 48894424 		movq	%rax, 24(%rsp)
 413      18
 414 0337 31C0     		xorl	%eax, %eax
 415 0339 4885D2   		testq	%rdx, %rdx
 416 033c 0F94C1   		sete	%cl
 417 033f 4885DB   		testq	%rbx, %rbx
 418 0342 0F94C0   		sete	%al
 419 0345 08C1     		orb	%al, %cl
 420 0347 7567     		jne	.L51
 421 0349 4885ED   		testq	%rbp, %rbp
 422 034c 7462     		je	.L51
 423 034e 488D8424 		leaq	240(%rsp), %rax
 423      F0000000 
 424 0356 4989D0   		movq	%rdx, %r8
 425 0359 4989E1   		movq	%rsp, %r9
 426 035c 48C7C1FF 		movq	$-1, %rcx
 426      FFFFFF
 427 0363 BA010000 		movl	$1, %edx
 427      00
 428 0368 4889DE   		movq	%rbx, %rsi
GAS LISTING /tmp/cc3mzyOR.s 			page 10


 429 036b 48894424 		movq	%rax, 8(%rsp)
 429      08
 430 0370 488D4424 		leaq	32(%rsp), %rax
 430      20
 431 0375 4889EF   		movq	%rbp, %rdi
 432 0378 C7042418 		movl	$24, (%rsp)
 432      000000
 433 037f C7442404 		movl	$48, 4(%rsp)
 433      30000000 
 434 0387 48894424 		movq	%rax, 16(%rsp)
 434      10
 435 038c E8000000 		call	__vsnprintf_chk
 435      00
 436 0391 C6441DFF 		movb	$0, -1(%rbp,%rbx)
 436      00
 437              	.L49:
 438 0396 488B7424 		movq	24(%rsp), %rsi
 438      18
 439 039b 64483334 		xorq	%fs:40, %rsi
 439      25280000 
 439      00
 440 03a4 7511     		jne	.L53
 441 03a6 4881C4D8 		addq	$216, %rsp
 441      000000
 442              		.cfi_remember_state
 443              		.cfi_def_cfa_offset 24
 444 03ad 5B       		popq	%rbx
 445              		.cfi_def_cfa_offset 16
 446 03ae 5D       		popq	%rbp
 447              		.cfi_def_cfa_offset 8
 448 03af C3       		ret
 449              		.p2align 4,,10
 450              		.p2align 3
 451              	.L51:
 452              		.cfi_restore_state
 453 03b0 B8FFFFFF 		movl	$-1, %eax
 453      FF
 454 03b5 EBDF     		jmp	.L49
 455              	.L53:
 456 03b7 E8000000 		call	__stack_chk_fail
 456      00
 457              		.cfi_endproc
 458              	.LFE117:
 460              		.section	.text.unlikely
 461              	.LCOLDE11:
 462              		.text
 463              	.LHOTE11:
 464              		.section	.rodata.str1.1
 465              	.LC12:
 466 003e 45417069 		.string	"EApiAHCreateErrorString"
 466      41484372 
 466      65617465 
 466      4572726F 
 466      72537472 
 467              	.LC13:
 468 0056 554E4B4E 		.string	"UNKNOWN ERROR(0x%08X)"
 468      4F574E20 
GAS LISTING /tmp/cc3mzyOR.s 			page 11


 468      4552524F 
 468      52283078 
 468      25303858 
 469              	.LC14:
 470 006c 28537472 		.string	"(StrBufLen==0)"
 470      4275664C 
 470      656E3D3D 
 470      302900
 471              		.section	.text.unlikely
 472              	.LCOLDB15:
 473              		.text
 474              	.LHOTB15:
 475 03bc 0F1F4000 		.p2align 4,,15
 476              		.globl	EApiAHCreateErrorString
 478              	EApiAHCreateErrorString:
 479              	.LFB99:
 480              		.cfi_startproc
 481 03c0 55       		pushq	%rbp
 482              		.cfi_def_cfa_offset 16
 483              		.cfi_offset 6, -16
 484 03c1 53       		pushq	%rbx
 485              		.cfi_def_cfa_offset 24
 486              		.cfi_offset 3, -24
 487 03c2 4883EC08 		subq	$8, %rsp
 488              		.cfi_def_cfa_offset 32
 489 03c6 4885F6   		testq	%rsi, %rsi
 490 03c9 0F84B900 		je	.L69
 490      0000
 491 03cf 4885D2   		testq	%rdx, %rdx
 492 03d2 4889D5   		movq	%rdx, %rbp
 493 03d5 7449     		je	.L57
 494 03d7 4889F3   		movq	%rsi, %rbx
 495 03da 31C0     		xorl	%eax, %eax
 496 03dc 0F1F4000 		.p2align 4,,10
 497              		.p2align 3
 498              	.L60:
 499 03e0 4889C2   		movq	%rax, %rdx
 500 03e3 89C1     		movl	%eax, %ecx
 501 03e5 48C1E204 		salq	$4, %rdx
 502 03e9 3BBA0000 		cmpl	ErrorLookup(%rdx), %edi
 502      0000
 503 03ef 746F     		je	.L70
 504 03f1 4883C001 		addq	$1, %rax
 505 03f5 4883F813 		cmpq	$19, %rax
 506 03f9 75E5     		jne	.L60
 507 03fb 89F9     		movl	%edi, %ecx
 508 03fd BA000000 		movl	$.LC13, %edx
 508      00
 509 0402 4889EE   		movq	%rbp, %rsi
 510 0405 4889DF   		movq	%rbx, %rdi
 511 0408 31C0     		xorl	%eax, %eax
 512 040a E8000000 		call	EApiSprintf
 512      00
 513              	.L68:
 514 040f 4883C408 		addq	$8, %rsp
 515              		.cfi_remember_state
 516              		.cfi_def_cfa_offset 24
GAS LISTING /tmp/cc3mzyOR.s 			page 12


 517 0413 4889DF   		movq	%rbx, %rdi
 518 0416 5B       		popq	%rbx
 519              		.cfi_def_cfa_offset 16
 520 0417 5D       		popq	%rbp
 521              		.cfi_def_cfa_offset 8
 522 0418 E9000000 		jmp	strlen
 522      00
 523 041d 0F1F00   		.p2align 4,,10
 524              		.p2align 3
 525              	.L57:
 526              		.cfi_restore_state
 527 0420 4883EC08 		subq	$8, %rsp
 528              		.cfi_def_cfa_offset 40
 529 0424 41B90000 		movl	$.LC0, %r9d
 529      0000
 530 042a 41B8FFFF 		movl	$-1, %r8d
 530      FFFF
 531 0430 68000000 		pushq	$.LC14
 531      00
 532              		.cfi_def_cfa_offset 48
 533 0435 B9540000 		movl	$84, %ecx
 533      00
 534              	.L67:
 535              	.L56:
 536              	.L61:
 537 043a BA000000 		movl	$.LC12, %edx
 537      00
 538 043f BE000000 		movl	$.LC2, %esi
 538      00
 539 0444 BF450000 		movl	$69, %edi
 539      00
 540 0449 31C0     		xorl	%eax, %eax
 541 044b E8000000 		call	siFormattedMessage_SC
 541      00
 542 0450 58       		popq	%rax
 543              		.cfi_def_cfa_offset 40
 544 0451 5A       		popq	%rdx
 545              		.cfi_def_cfa_offset 32
 546 0452 48C7C0FF 		movq	$-1, %rax
 546      FFFFFF
 547 0459 4883C408 		addq	$8, %rsp
 548              		.cfi_remember_state
 549              		.cfi_def_cfa_offset 24
 550 045d 5B       		popq	%rbx
 551              		.cfi_def_cfa_offset 16
 552 045e 5D       		popq	%rbp
 553              		.cfi_def_cfa_offset 8
 554 045f C3       		ret
 555              		.p2align 4,,10
 556              		.p2align 3
 557              	.L70:
 558              		.cfi_restore_state
 559 0460 48C1E104 		salq	$4, %rcx
 560 0464 488BB100 		movq	ErrorLookup+8(%rcx), %rsi
 560      000000
 561 046b 4885F6   		testq	%rsi, %rsi
 562 046e 749F     		je	.L68
GAS LISTING /tmp/cc3mzyOR.s 			page 13


 563 0470 4889EA   		movq	%rbp, %rdx
 564 0473 4889DF   		movq	%rbx, %rdi
 565 0476 E8000000 		call	strncpy
 565      00
 566 047b C6442BFF 		movb	$0, -1(%rbx,%rbp)
 566      00
 567 0480 EB8D     		jmp	.L68
 568              		.p2align 4,,10
 569 0482 660F1F44 		.p2align 3
 569      0000
 570              	.L69:
 571 0488 4883EC08 		subq	$8, %rsp
 572              		.cfi_def_cfa_offset 40
 573 048c 41B90000 		movl	$.LC0, %r9d
 573      0000
 574 0492 41B8FFFF 		movl	$-1, %r8d
 574      FFFF
 575 0498 68000000 		pushq	$.LC3
 575      00
 576              		.cfi_def_cfa_offset 48
 577 049d B94F0000 		movl	$79, %ecx
 577      00
 578 04a2 EB96     		jmp	.L67
 579              		.cfi_endproc
 580              	.LFE99:
 582              		.section	.text.unlikely
 583              	.LCOLDE15:
 584              		.text
 585              	.LHOTE15:
 586              		.section	.rodata.str1.1
 587              	.LC16:
 588 007b 45417069 		.string	"EApiAHGetString"
 588      41484765 
 588      74537472 
 588      696E6700 
 589              	.LC17:
 590 008b 45417069 		.string	"EApiAHGetStringAlloc"
 590      41484765 
 590      74537472 
 590      696E6741 
 590      6C6C6F63 
 591              		.section	.rodata.str1.8
 592 0052 00000000 		.align 8
 592      0000
 593              	.LC18:
 594 0058 496E7465 		.string	"Interface Returning Different String Lengths"
 594      72666163 
 594      65205265 
 594      7475726E 
 594      696E6720 
 595 0085 000000   		.align 8
 596              	.LC19:
 597 0088 52657475 		.string	"Returned String Missing Terminating \\0 Character."
 597      726E6564 
 597      20537472 
 597      696E6720 
 597      4D697373 
GAS LISTING /tmp/cc3mzyOR.s 			page 14


 598              		.section	.text.unlikely
 599              	.LCOLDB20:
 600              		.text
 601              	.LHOTB20:
 602 04a4 6690662E 		.p2align 4,,15
 602      0F1F8400 
 602      00000000 
 603              		.globl	EApiAHGetString
 605              	EApiAHGetString:
 606              	.LFB101:
 607              		.cfi_startproc
 608 04b0 55       		pushq	%rbp
 609              		.cfi_def_cfa_offset 16
 610              		.cfi_offset 6, -16
 611 04b1 53       		pushq	%rbx
 612              		.cfi_def_cfa_offset 24
 613              		.cfi_offset 3, -24
 614 04b2 4883EC18 		subq	$24, %rsp
 615              		.cfi_def_cfa_offset 48
 616 04b6 64488B04 		movq	%fs:40, %rax
 616      25280000 
 616      00
 617 04bf 48894424 		movq	%rax, 8(%rsp)
 617      08
 618 04c4 31C0     		xorl	%eax, %eax
 619 04c6 4885F6   		testq	%rsi, %rsi
 620 04c9 89542404 		movl	%edx, 4(%rsp)
 621 04cd 0F841501 		je	.L97
 621      0000
 622 04d3 4885D2   		testq	%rdx, %rdx
 623 04d6 4889D3   		movq	%rdx, %rbx
 624 04d9 7555     		jne	.L74
 625 04db 4883EC08 		subq	$8, %rsp
 626              		.cfi_def_cfa_offset 56
 627 04df 41B90000 		movl	$.LC0, %r9d
 627      0000
 628 04e5 41B8FFFF 		movl	$-1, %r8d
 628      FFFF
 629 04eb 68000000 		pushq	$.LC14
 629      00
 630              		.cfi_def_cfa_offset 64
 631 04f0 B99E0000 		movl	$158, %ecx
 631      00
 632 04f5 BA000000 		movl	$.LC16, %edx
 632      00
 633              	.L94:
 634 04fa BE000000 		movl	$.LC2, %esi
 634      00
 635 04ff BF450000 		movl	$69, %edi
 635      00
 636 0504 31C0     		xorl	%eax, %eax
 637 0506 E8000000 		call	siFormattedMessage_SC
 637      00
 638 050b 59       		popq	%rcx
 639              		.cfi_def_cfa_offset 56
 640 050c 5E       		popq	%rsi
 641              		.cfi_def_cfa_offset 48
GAS LISTING /tmp/cc3mzyOR.s 			page 15


 642 050d 48C7C0FF 		movq	$-1, %rax
 642      FFFFFF
 643              	.L73:
 644 0514 488B4C24 		movq	8(%rsp), %rcx
 644      08
 645 0519 6448330C 		xorq	%fs:40, %rcx
 645      25280000 
 645      00
 646 0522 0F851801 		jne	.L98
 646      0000
 647 0528 4883C418 		addq	$24, %rsp
 648              		.cfi_remember_state
 649              		.cfi_def_cfa_offset 24
 650 052c 5B       		popq	%rbx
 651              		.cfi_def_cfa_offset 16
 652 052d 5D       		popq	%rbp
 653              		.cfi_def_cfa_offset 8
 654 052e C3       		ret
 655 052f 90       		.p2align 4,,10
 656              		.p2align 3
 657              	.L74:
 658              		.cfi_restore_state
 659 0530 488D5424 		leaq	4(%rsp), %rdx
 659      04
 660 0535 4889F5   		movq	%rsi, %rbp
 661 0538 E8000000 		call	EApiBoardGetStringA
 661      00
 662 053d 85C0     		testl	%eax, %eax
 663 053f 8B542404 		movl	4(%rsp), %edx
 664 0543 0F85DF00 		jne	.L99
 664      0000
 665              	.L76:
 666 0549 89D0     		movl	%edx, %eax
 667 054b 4839C3   		cmpq	%rax, %rbx
 668 054e 7270     		jb	.L100
 669 0550 807D0000 		cmpb	$0, 0(%rbp)
 670 0554 488D5501 		leaq	1(%rbp), %rdx
 671 0558 488D741D 		leaq	0(%rbp,%rbx), %rsi
 671      00
 672 055d 74B5     		je	.L73
 673 055f 4839F2   		cmpq	%rsi, %rdx
 674 0562 7412     		je	.L93
 675              	.L79:
 676 0564 488D4A01 		leaq	1(%rdx), %rcx
 677 0568 8079FF00 		cmpb	$0, -1(%rcx)
 678 056c 7408     		je	.L93
 679 056e 4889CA   		movq	%rcx, %rdx
 680 0571 4839F2   		cmpq	%rsi, %rdx
 681 0574 75EE     		jne	.L79
 682              	.L93:
 683 0576 4829EA   		subq	%rbp, %rdx
 684 0579 4839D3   		cmpq	%rdx, %rbx
 685 057c 7596     		jne	.L73
 686 057e 4883EC08 		subq	$8, %rsp
 687              		.cfi_def_cfa_offset 56
 688 0582 BA000000 		movl	$.LC16, %edx
 688      00
GAS LISTING /tmp/cc3mzyOR.s 			page 16


 689 0587 41B90000 		movl	$.LC0, %r9d
 689      0000
 690 058d 68000000 		pushq	$.LC19
 690      00
 691              		.cfi_def_cfa_offset 64
 692 0592 41B8FFFF 		movl	$-1, %r8d
 692      FFFF
 693 0598 B9B00000 		movl	$176, %ecx
 693      00
 694 059d BE000000 		movl	$.LC2, %esi
 694      00
 695 05a2 BF450000 		movl	$69, %edi
 695      00
 696 05a7 31C0     		xorl	%eax, %eax
 697 05a9 E8000000 		call	siFormattedMessage_SC
 697      00
 698 05ae C6441DFF 		movb	$0, -1(%rbp,%rbx)
 698      00
 699 05b3 58       		popq	%rax
 700              		.cfi_def_cfa_offset 56
 701 05b4 5A       		popq	%rdx
 702              		.cfi_def_cfa_offset 48
 703 05b5 8B442404 		movl	4(%rsp), %eax
 704 05b9 E956FFFF 		jmp	.L73
 704      FF
 705 05be 6690     		.p2align 4,,10
 706              		.p2align 3
 707              	.L100:
 708 05c0 4883EC08 		subq	$8, %rsp
 709              		.cfi_remember_state
 710              		.cfi_def_cfa_offset 56
 711 05c4 41B90000 		movl	$.LC0, %r9d
 711      0000
 712 05ca 41B8FFFF 		movl	$-1, %r8d
 712      FFFF
 713 05d0 68000000 		pushq	$.LC18
 713      00
 714              		.cfi_def_cfa_offset 64
 715 05d5 B9A90000 		movl	$169, %ecx
 715      00
 716 05da BA000000 		movl	$.LC17, %edx
 716      00
 717 05df E916FFFF 		jmp	.L94
 717      FF
 718              		.p2align 4,,10
 719 05e4 0F1F4000 		.p2align 3
 720              	.L97:
 721              		.cfi_restore_state
 722 05e8 4883EC08 		subq	$8, %rsp
 723              		.cfi_def_cfa_offset 56
 724 05ec 41B8FFFF 		movl	$-1, %r8d
 724      FFFF
 725 05f2 BF450000 		movl	$69, %edi
 725      00
 726 05f7 68000000 		pushq	$.LC3
 726      00
 727              		.cfi_def_cfa_offset 64
GAS LISTING /tmp/cc3mzyOR.s 			page 17


 728 05fc 41B90000 		movl	$.LC0, %r9d
 728      0000
 729 0602 B99D0000 		movl	$157, %ecx
 729      00
 730 0607 BA000000 		movl	$.LC16, %edx
 730      00
 731 060c BE000000 		movl	$.LC2, %esi
 731      00
 732 0611 E8000000 		call	siFormattedMessage_SC
 732      00
 733 0616 5F       		popq	%rdi
 734              		.cfi_def_cfa_offset 56
 735 0617 48C7C0FF 		movq	$-1, %rax
 735      FFFFFF
 736 061e 4158     		popq	%r8
 737              		.cfi_def_cfa_offset 48
 738 0620 E9EFFEFF 		jmp	.L73
 738      FF
 739              		.p2align 4,,10
 740 0625 0F1F00   		.p2align 3
 741              	.L99:
 742 0628 4889DA   		movq	%rbx, %rdx
 743 062b 4889EE   		movq	%rbp, %rsi
 744 062e 89C7     		movl	%eax, %edi
 745 0630 E8000000 		call	EApiAHCreateErrorString
 745      00
 746 0635 89C2     		movl	%eax, %edx
 747 0637 89442404 		movl	%eax, 4(%rsp)
 748 063b E909FFFF 		jmp	.L76
 748      FF
 749              	.L98:
 750 0640 E8000000 		call	__stack_chk_fail
 750      00
 751              		.cfi_endproc
 752              	.LFE101:
 754              		.section	.text.unlikely
 755              	.LCOLDE20:
 756              		.text
 757              	.LHOTE20:
 758              		.section	.rodata.str1.1
 759              	.LC21:
 760 00a0 45417069 		.string	"EApiAHCreateErrorStringAlloc"
 760      41484372 
 760      65617465 
 760      4572726F 
 760      72537472 
 761              		.section	.text.unlikely
 762              	.LCOLDB22:
 763              		.text
 764              	.LHOTB22:
 765 0645 90662E0F 		.p2align 4,,15
 765      1F840000 
 765      000000
 766              		.globl	EApiAHCreateErrorStringAlloc
 768              	EApiAHCreateErrorStringAlloc:
 769              	.LFB100:
 770              		.cfi_startproc
GAS LISTING /tmp/cc3mzyOR.s 			page 18


 771 0650 31C0     		xorl	%eax, %eax
 772 0652 4885F6   		testq	%rsi, %rsi
 773 0655 4156     		pushq	%r14
 774              		.cfi_def_cfa_offset 16
 775              		.cfi_offset 14, -16
 776 0657 4155     		pushq	%r13
 777              		.cfi_def_cfa_offset 24
 778              		.cfi_offset 13, -24
 779 0659 4154     		pushq	%r12
 780              		.cfi_def_cfa_offset 32
 781              		.cfi_offset 12, -32
 782 065b 55       		pushq	%rbp
 783              		.cfi_def_cfa_offset 40
 784              		.cfi_offset 6, -40
 785 065c 4889F5   		movq	%rsi, %rbp
 786 065f 53       		pushq	%rbx
 787              		.cfi_def_cfa_offset 48
 788              		.cfi_offset 3, -48
 789 0660 89FB     		movl	%edi, %ebx
 790 0662 0F84B000 		je	.L118
 790      0000
 791 0668 0F1F8400 		.p2align 4,,10
 791      00000000 
 792              		.p2align 3
 793              	.L112:
 794 0670 4889C2   		movq	%rax, %rdx
 795 0673 89C7     		movl	%eax, %edi
 796 0675 48C1E204 		salq	$4, %rdx
 797 0679 399A0000 		cmpl	%ebx, ErrorLookup(%rdx)
 797      0000
 798 067f 743F     		je	.L119
 799 0681 4883C001 		addq	$1, %rax
 800 0685 4883F813 		cmpq	$19, %rax
 801 0689 75E5     		jne	.L112
 802 068b BF1A0000 		movl	$26, %edi
 802      00
 803 0690 E8000000 		call	malloc
 803      00
 804 0695 4885C0   		testq	%rax, %rax
 805 0698 48894500 		movq	%rax, 0(%rbp)
 806 069c 7416     		je	.L117
 807 069e 4889C7   		movq	%rax, %rdi
 808 06a1 89D9     		movl	%ebx, %ecx
 809 06a3 BA000000 		movl	$.LC13, %edx
 809      00
 810 06a8 BE1A0000 		movl	$26, %esi
 810      00
 811 06ad 31C0     		xorl	%eax, %eax
 812 06af E8000000 		call	EApiSprintf
 812      00
 813              	.L117:
 814              	.L109:
 815 06b4 5B       		popq	%rbx
 816              		.cfi_remember_state
 817              		.cfi_def_cfa_offset 40
 818 06b5 31C0     		xorl	%eax, %eax
 819 06b7 5D       		popq	%rbp
GAS LISTING /tmp/cc3mzyOR.s 			page 19


 820              		.cfi_def_cfa_offset 32
 821 06b8 415C     		popq	%r12
 822              		.cfi_def_cfa_offset 24
 823 06ba 415D     		popq	%r13
 824              		.cfi_def_cfa_offset 16
 825 06bc 415E     		popq	%r14
 826              		.cfi_def_cfa_offset 8
 827 06be C3       		ret
 828              	.L103:
 829 06bf 90       		.p2align 4,,10
 830              		.p2align 3
 831              	.L119:
 832              		.cfi_restore_state
 833 06c0 48C1E704 		salq	$4, %rdi
 834 06c4 4C8BB700 		movq	ErrorLookup+8(%rdi), %r14
 834      000000
 835 06cb 4C89F7   		movq	%r14, %rdi
 836 06ce E8000000 		call	strlen
 836      00
 837 06d3 4C8D6001 		leaq	1(%rax), %r12
 838 06d7 4989C5   		movq	%rax, %r13
 839 06da 4C89E7   		movq	%r12, %rdi
 840 06dd E8000000 		call	malloc
 840      00
 841 06e2 4885C0   		testq	%rax, %rax
 842 06e5 4889C3   		movq	%rax, %rbx
 843 06e8 48894500 		movq	%rax, 0(%rbp)
 844 06ec 74C6     		je	.L117
 845 06ee 4D85E4   		testq	%r12, %r12
 846 06f1 74C1     		je	.L117
 847 06f3 4C89E2   		movq	%r12, %rdx
 848 06f6 4C89F6   		movq	%r14, %rsi
 849 06f9 4889C7   		movq	%rax, %rdi
 850 06fc E8000000 		call	strncpy
 850      00
 851 0701 42C6042B 		movb	$0, (%rbx,%r13)
 851      00
 852 0706 31C0     		xorl	%eax, %eax
 853 0708 5B       		popq	%rbx
 854              		.cfi_remember_state
 855              		.cfi_def_cfa_offset 40
 856 0709 5D       		popq	%rbp
 857              		.cfi_def_cfa_offset 32
 858 070a 415C     		popq	%r12
 859              		.cfi_def_cfa_offset 24
 860 070c 415D     		popq	%r13
 861              		.cfi_def_cfa_offset 16
 862 070e 415E     		popq	%r14
 863              		.cfi_def_cfa_offset 8
 864 0710 C3       		ret
 865              		.p2align 4,,10
 866 0711 0F1F8000 		.p2align 3
 866      000000
 867              	.L118:
 868              		.cfi_restore_state
 869 0718 4883EC08 		subq	$8, %rsp
 870              		.cfi_def_cfa_offset 56
GAS LISTING /tmp/cc3mzyOR.s 			page 20


 871 071c BA000000 		movl	$.LC21, %edx
 871      00
 872 0721 41B90000 		movl	$.LC0, %r9d
 872      0000
 873 0727 68000000 		pushq	$.LC3
 873      00
 874              		.cfi_def_cfa_offset 64
 875 072c 41B8FFFE 		movl	$-257, %r8d
 875      FFFF
 876 0732 B97A0000 		movl	$122, %ecx
 876      00
 877 0737 BE000000 		movl	$.LC2, %esi
 877      00
 878 073c BF450000 		movl	$69, %edi
 878      00
 879 0741 E8000000 		call	siFormattedMessage_SC
 879      00
 880 0746 58       		popq	%rax
 881              		.cfi_def_cfa_offset 56
 882 0747 B8FFFEFF 		movl	$-257, %eax
 882      FF
 883 074c 5A       		popq	%rdx
 884              		.cfi_def_cfa_offset 48
 885 074d 5B       		popq	%rbx
 886              		.cfi_def_cfa_offset 40
 887 074e 5D       		popq	%rbp
 888              		.cfi_def_cfa_offset 32
 889 074f 415C     		popq	%r12
 890              		.cfi_def_cfa_offset 24
 891 0751 415D     		popq	%r13
 892              		.cfi_def_cfa_offset 16
 893 0753 415E     		popq	%r14
 894              		.cfi_def_cfa_offset 8
 895 0755 C3       		ret
 896              		.cfi_endproc
 897              	.LFE100:
 899              		.section	.text.unlikely
 900              	.LCOLDE22:
 901              		.text
 902              	.LHOTE22:
 903              		.section	.rodata.str1.1
 904              	.LC23:
 905 00bd 4D656D6F 		.string	"Memory Allocation Error"
 905      72792041 
 905      6C6C6F63 
 905      6174696F 
 905      6E204572 
 906              		.section	.text.unlikely
 907              	.LCOLDB24:
 908              		.text
 909              	.LHOTB24:
 910 0756 662E0F1F 		.p2align 4,,15
 910      84000000 
 910      0000
 911              		.globl	EApiAHGetStringAlloc
 913              	EApiAHGetStringAlloc:
 914              	.LFB102:
GAS LISTING /tmp/cc3mzyOR.s 			page 21


 915              		.cfi_startproc
 916 0760 4156     		pushq	%r14
 917              		.cfi_def_cfa_offset 16
 918              		.cfi_offset 14, -16
 919 0762 4155     		pushq	%r13
 920              		.cfi_def_cfa_offset 24
 921              		.cfi_offset 13, -24
 922 0764 4154     		pushq	%r12
 923              		.cfi_def_cfa_offset 32
 924              		.cfi_offset 12, -32
 925 0766 55       		pushq	%rbp
 926              		.cfi_def_cfa_offset 40
 927              		.cfi_offset 6, -40
 928 0767 53       		pushq	%rbx
 929              		.cfi_def_cfa_offset 48
 930              		.cfi_offset 3, -48
 931 0768 4883EC10 		subq	$16, %rsp
 932              		.cfi_def_cfa_offset 64
 933 076c 64488B04 		movq	%fs:40, %rax
 933      25280000 
 933      00
 934 0775 48894424 		movq	%rax, 8(%rsp)
 934      08
 935 077a 31C0     		xorl	%eax, %eax
 936 077c 4885F6   		testq	%rsi, %rsi
 937 077f C7442404 		movl	$0, 4(%rsp)
 937      00000000 
 938 0787 0F84E300 		je	.L143
 938      0000
 939 078d 488D5424 		leaq	4(%rsp), %rdx
 939      04
 940 0792 48C70600 		movq	$0, (%rsi)
 940      000000
 941 0799 4889F3   		movq	%rsi, %rbx
 942 079c 31F6     		xorl	%esi, %esi
 943 079e 4189FC   		movl	%edi, %r12d
 944 07a1 E8000000 		call	EApiBoardGetStringA
 944      00
 945 07a6 3DFFF9FF 		cmpl	$-1537, %eax
 945      FF
 946 07ab 89C5     		movl	%eax, %ebp
 947 07ad 7431     		je	.L144
 948 07af 4889DE   		movq	%rbx, %rsi
 949 07b2 89C7     		movl	%eax, %edi
 950 07b4 E8000000 		call	EApiAHCreateErrorStringAlloc
 950      00
 951              	.L122:
 952 07b9 488B4C24 		movq	8(%rsp), %rcx
 952      08
 953 07be 6448330C 		xorq	%fs:40, %rcx
 953      25280000 
 953      00
 954 07c7 89E8     		movl	%ebp, %eax
 955 07c9 0F85A501 		jne	.L145
 955      0000
 956 07cf 4883C410 		addq	$16, %rsp
 957              		.cfi_remember_state
GAS LISTING /tmp/cc3mzyOR.s 			page 22


 958              		.cfi_def_cfa_offset 48
 959 07d3 5B       		popq	%rbx
 960              		.cfi_def_cfa_offset 40
 961 07d4 5D       		popq	%rbp
 962              		.cfi_def_cfa_offset 32
 963 07d5 415C     		popq	%r12
 964              		.cfi_def_cfa_offset 24
 965 07d7 415D     		popq	%r13
 966              		.cfi_def_cfa_offset 16
 967 07d9 415E     		popq	%r14
 968              		.cfi_def_cfa_offset 8
 969 07db C3       		ret
 970 07dc 0F1F4000 		.p2align 4,,10
 971              		.p2align 3
 972              	.L144:
 973              		.cfi_restore_state
 974 07e0 448B7424 		movl	4(%rsp), %r14d
 974      04
 975 07e5 4C89F7   		movq	%r14, %rdi
 976 07e8 4D89F5   		movq	%r14, %r13
 977 07eb E8000000 		call	malloc
 977      00
 978 07f0 4885C0   		testq	%rax, %rax
 979 07f3 488903   		movq	%rax, (%rbx)
 980 07f6 0F84F400 		je	.L146
 980      0000
 981 07fc 488D5424 		leaq	4(%rsp), %rdx
 981      04
 982 0801 4889C6   		movq	%rax, %rsi
 983 0804 4489E7   		movl	%r12d, %edi
 984 0807 E8000000 		call	EApiBoardGetStringA
 984      00
 985 080c 443B7424 		cmpl	4(%rsp), %r14d
 985      04
 986 0811 89C5     		movl	%eax, %ebp
 987 0813 0F829700 		jb	.L147
 987      0000
 988 0819 488B33   		movq	(%rbx), %rsi
 989 081c 4885F6   		testq	%rsi, %rsi
 990 081f 0F844B01 		je	.L134
 990      0000
 991 0825 4D85F6   		testq	%r14, %r14
 992 0828 0F850201 		jne	.L148
 992      0000
 993              	.L128:
 994 082e 4883EC08 		subq	$8, %rsp
 995              		.cfi_def_cfa_offset 72
 996 0832 BA000000 		movl	$.LC17, %edx
 996      00
 997 0837 41B90000 		movl	$.LC0, %r9d
 997      0000
 998 083d 68000000 		pushq	$.LC19
 998      00
 999              		.cfi_def_cfa_offset 80
 1000 0842 41B8FFF0 		movl	$-3841, %r8d
 1000      FFFF
 1001 0848 B9E20000 		movl	$226, %ecx
GAS LISTING /tmp/cc3mzyOR.s 			page 23


 1001      00
 1002 084d BE000000 		movl	$.LC2, %esi
 1002      00
 1003 0852 BF450000 		movl	$69, %edi
 1003      00
 1004 0857 31C0     		xorl	%eax, %eax
 1005 0859 E8000000 		call	siFormattedMessage_SC
 1005      00
 1006 085e 488B13   		movq	(%rbx), %rdx
 1007 0861 418D45FF 		leal	-1(%r13), %eax
 1008 0865 C6040200 		movb	$0, (%rdx,%rax)
 1009 0869 58       		popq	%rax
 1010              		.cfi_def_cfa_offset 72
 1011 086a 5A       		popq	%rdx
 1012              		.cfi_def_cfa_offset 64
 1013 086b E949FFFF 		jmp	.L122
 1013      FF
 1014              		.p2align 4,,10
 1015              		.p2align 3
 1016              	.L143:
 1017 0870 4883EC08 		subq	$8, %rsp
 1018              		.cfi_def_cfa_offset 72
 1019 0874 41B90000 		movl	$.LC0, %r9d
 1019      0000
 1020 087a 41B8FFFE 		movl	$-257, %r8d
 1020      FFFF
 1021 0880 68000000 		pushq	$.LC3
 1021      00
 1022              		.cfi_def_cfa_offset 80
 1023 0885 B9C50000 		movl	$197, %ecx
 1023      00
 1024 088a BA000000 		movl	$.LC16, %edx
 1024      00
 1025 088f BE000000 		movl	$.LC2, %esi
 1025      00
 1026 0894 BF450000 		movl	$69, %edi
 1026      00
 1027 0899 BDFFFEFF 		movl	$-257, %ebp
 1027      FF
 1028 089e E8000000 		call	siFormattedMessage_SC
 1028      00
 1029 08a3 4159     		popq	%r9
 1030              		.cfi_def_cfa_offset 72
 1031 08a5 415A     		popq	%r10
 1032              		.cfi_def_cfa_offset 64
 1033 08a7 E90DFFFF 		jmp	.L122
 1033      FF
 1034 08ac 0F1F4000 		.p2align 4,,10
 1035              		.p2align 3
 1036              	.L147:
 1037 08b0 4883EC08 		subq	$8, %rsp
 1038              		.cfi_def_cfa_offset 72
 1039 08b4 B9DB0000 		movl	$219, %ecx
 1039      00
 1040 08b9 BE000000 		movl	$.LC2, %esi
 1040      00
 1041 08be 68000000 		pushq	$.LC18
GAS LISTING /tmp/cc3mzyOR.s 			page 24


 1041      00
 1042              		.cfi_def_cfa_offset 80
 1043 08c3 41B90000 		movl	$.LC0, %r9d
 1043      0000
 1044 08c9 41B8FFF0 		movl	$-3841, %r8d
 1044      FFFF
 1045 08cf BA000000 		movl	$.LC17, %edx
 1045      00
 1046 08d4 BF450000 		movl	$69, %edi
 1046      00
 1047 08d9 31C0     		xorl	%eax, %eax
 1048 08db E8000000 		call	siFormattedMessage_SC
 1048      00
 1049 08e0 BDFFF0FF 		movl	$-3841, %ebp
 1049      FF
 1050 08e5 59       		popq	%rcx
 1051              		.cfi_def_cfa_offset 72
 1052 08e6 5E       		popq	%rsi
 1053              		.cfi_def_cfa_offset 64
 1054 08e7 E9CDFEFF 		jmp	.L122
 1054      FF
 1055 08ec 0F1F4000 		.p2align 4,,10
 1056              		.p2align 3
 1057              	.L146:
 1058 08f0 4883EC08 		subq	$8, %rsp
 1059              		.cfi_def_cfa_offset 72
 1060 08f4 41B8FDFF 		movl	$-3, %r8d
 1060      FFFF
 1061 08fa BF450000 		movl	$69, %edi
 1061      00
 1062 08ff 68000000 		pushq	$.LC23
 1062      00
 1063              		.cfi_def_cfa_offset 80
 1064 0904 41B90000 		movl	$.LC0, %r9d
 1064      0000
 1065 090a B9D20000 		movl	$210, %ecx
 1065      00
 1066 090f BA000000 		movl	$.LC17, %edx
 1066      00
 1067 0914 BE000000 		movl	$.LC2, %esi
 1067      00
 1068 0919 BDFDFFFF 		movl	$-3, %ebp
 1068      FF
 1069 091e E8000000 		call	siFormattedMessage_SC
 1069      00
 1070 0923 5F       		popq	%rdi
 1071              		.cfi_def_cfa_offset 72
 1072 0924 4158     		popq	%r8
 1073              		.cfi_def_cfa_offset 64
 1074 0926 E98EFEFF 		jmp	.L122
 1074      FF
 1075 092b 0F1F4400 		.p2align 4,,10
 1075      00
 1076              		.p2align 3
 1077              	.L148:
 1078 0930 803E00   		cmpb	$0, (%rsi)
 1079 0933 488D4601 		leaq	1(%rsi), %rax
GAS LISTING /tmp/cc3mzyOR.s 			page 25


 1080 0937 4A8D0C36 		leaq	(%rsi,%r14), %rcx
 1081 093b 7518     		jne	.L130
 1082 093d E977FEFF 		jmp	.L122
 1082      FF
 1083              		.p2align 4,,10
 1084 0942 660F1F44 		.p2align 3
 1084      0000
 1085              	.L132:
 1086 0948 488D5001 		leaq	1(%rax), %rdx
 1087 094c 807AFF00 		cmpb	$0, -1(%rdx)
 1088 0950 740B     		je	.L142
 1089 0952 4889D0   		movq	%rdx, %rax
 1090              	.L130:
 1091 0955 4839C1   		cmpq	%rax, %rcx
 1092 0958 75EE     		jne	.L132
 1093 095a 4889C8   		movq	%rcx, %rax
 1094              	.L142:
 1095 095d 4829F0   		subq	%rsi, %rax
 1096              	.L127:
 1097 0960 4939C6   		cmpq	%rax, %r14
 1098 0963 0F8550FE 		jne	.L122
 1098      FFFF
 1099 0969 E9C0FEFF 		jmp	.L128
 1099      FF
 1100 096e 6690     		.p2align 4,,10
 1101              		.p2align 3
 1102              	.L134:
 1103 0970 31C0     		xorl	%eax, %eax
 1104 0972 EBEC     		jmp	.L127
 1105              	.L145:
 1106 0974 E8000000 		call	__stack_chk_fail
 1106      00
 1107              		.cfi_endproc
 1108              	.LFE102:
 1110              		.section	.text.unlikely
 1111              	.LCOLDE24:
 1112              		.text
 1113              	.LHOTE24:
 1114              		.section	.rodata.str1.1
 1115              	.LC25:
 1116 00d5 45417069 		.string	"EApiAHCreateDecimalString"
 1116      41484372 
 1116      65617465 
 1116      44656369 
 1116      6D616C53 
 1117              	.LC26:
 1118 00ef 257500   		.string	"%u"
 1119              		.section	.text.unlikely
 1120              	.LCOLDB27:
 1121              		.text
 1122              	.LHOTB27:
 1123 0979 0F1F8000 		.p2align 4,,15
 1123      000000
 1124              		.globl	EApiAHCreateDecimalString
 1126              	EApiAHCreateDecimalString:
 1127              	.LFB103:
 1128              		.cfi_startproc
GAS LISTING /tmp/cc3mzyOR.s 			page 26


 1129 0980 4883EC08 		subq	$8, %rsp
 1130              		.cfi_def_cfa_offset 16
 1131 0984 4885F6   		testq	%rsi, %rsi
 1132 0987 745B     		je	.L155
 1133 0989 85D2     		testl	%edx, %edx
 1134 098b 741B     		je	.L156
 1135 098d 89F9     		movl	%edi, %ecx
 1136 098f 31C0     		xorl	%eax, %eax
 1137 0991 4889F7   		movq	%rsi, %rdi
 1138 0994 4883C408 		addq	$8, %rsp
 1139              		.cfi_remember_state
 1140              		.cfi_def_cfa_offset 8
 1141 0998 89D6     		movl	%edx, %esi
 1142 099a BA000000 		movl	$.LC26, %edx
 1142      00
 1143 099f E9000000 		jmp	EApiSprintf
 1143      00
 1144              		.p2align 4,,10
 1145 09a4 0F1F4000 		.p2align 3
 1146              	.L156:
 1147              		.cfi_restore_state
 1148 09a8 4883EC08 		subq	$8, %rsp
 1149              		.cfi_def_cfa_offset 24
 1150 09ac 41B90000 		movl	$.LC0, %r9d
 1150      0000
 1151 09b2 41B8FFFF 		movl	$-1, %r8d
 1151      FFFF
 1152 09b8 68000000 		pushq	$.LC14
 1152      00
 1153              		.cfi_def_cfa_offset 32
 1154 09bd B9F80000 		movl	$248, %ecx
 1154      00
 1155              	.L154:
 1156              	.L151:
 1157 09c2 BA000000 		movl	$.LC25, %edx
 1157      00
 1158 09c7 BE000000 		movl	$.LC2, %esi
 1158      00
 1159 09cc BF450000 		movl	$69, %edi
 1159      00
 1160 09d1 31C0     		xorl	%eax, %eax
 1161 09d3 E8000000 		call	siFormattedMessage_SC
 1161      00
 1162 09d8 58       		popq	%rax
 1163              		.cfi_def_cfa_offset 24
 1164 09d9 5A       		popq	%rdx
 1165              		.cfi_def_cfa_offset 16
 1166 09da B8FFFFFF 		movl	$-1, %eax
 1166      FF
 1167 09df 4883C408 		addq	$8, %rsp
 1168              		.cfi_remember_state
 1169              		.cfi_def_cfa_offset 8
 1170 09e3 C3       		ret
 1171              	.L155:
 1172              		.cfi_restore_state
 1173 09e4 4883EC08 		subq	$8, %rsp
 1174              		.cfi_def_cfa_offset 24
GAS LISTING /tmp/cc3mzyOR.s 			page 27


 1175 09e8 41B90000 		movl	$.LC0, %r9d
 1175      0000
 1176 09ee 41B8FFFF 		movl	$-1, %r8d
 1176      FFFF
 1177 09f4 68000000 		pushq	$.LC3
 1177      00
 1178              		.cfi_def_cfa_offset 32
 1179 09f9 B9F70000 		movl	$247, %ecx
 1179      00
 1180 09fe EBC2     		jmp	.L154
 1181              		.cfi_endproc
 1182              	.LFE103:
 1184              		.section	.text.unlikely
 1185              	.LCOLDE27:
 1186              		.text
 1187              	.LHOTE27:
 1188              		.section	.rodata.str1.1
 1189              	.LC28:
 1190 00f2 30782530 		.string	"0x%08X"
 1190      385800
 1191              		.section	.text.unlikely
 1192              	.LCOLDB29:
 1193              		.text
 1194              	.LHOTB29:
 1195              		.p2align 4,,15
 1196              		.globl	EApiAHCreateHexString
 1198              	EApiAHCreateHexString:
 1199              	.LFB104:
 1200              		.cfi_startproc
 1201 0a00 4883EC08 		subq	$8, %rsp
 1202              		.cfi_def_cfa_offset 16
 1203 0a04 4885F6   		testq	%rsi, %rsi
 1204 0a07 745B     		je	.L163
 1205 0a09 85D2     		testl	%edx, %edx
 1206 0a0b 741B     		je	.L164
 1207 0a0d 89F9     		movl	%edi, %ecx
 1208 0a0f 31C0     		xorl	%eax, %eax
 1209 0a11 4889F7   		movq	%rsi, %rdi
 1210 0a14 4883C408 		addq	$8, %rsp
 1211              		.cfi_remember_state
 1212              		.cfi_def_cfa_offset 8
 1213 0a18 89D6     		movl	%edx, %esi
 1214 0a1a BA000000 		movl	$.LC28, %edx
 1214      00
 1215 0a1f E9000000 		jmp	EApiSprintf
 1215      00
 1216              		.p2align 4,,10
 1217 0a24 0F1F4000 		.p2align 3
 1218              	.L164:
 1219              		.cfi_restore_state
 1220 0a28 4883EC08 		subq	$8, %rsp
 1221              		.cfi_def_cfa_offset 24
 1222 0a2c 41B90000 		movl	$.LC0, %r9d
 1222      0000
 1223 0a32 41B8FFFF 		movl	$-1, %r8d
 1223      FFFF
 1224 0a38 68000000 		pushq	$.LC14
GAS LISTING /tmp/cc3mzyOR.s 			page 28


 1224      00
 1225              		.cfi_def_cfa_offset 32
 1226 0a3d B9070100 		movl	$263, %ecx
 1226      00
 1227              	.L162:
 1228              	.L159:
 1229 0a42 BA000000 		movl	$.LC25, %edx
 1229      00
 1230 0a47 BE000000 		movl	$.LC2, %esi
 1230      00
 1231 0a4c BF450000 		movl	$69, %edi
 1231      00
 1232 0a51 31C0     		xorl	%eax, %eax
 1233 0a53 E8000000 		call	siFormattedMessage_SC
 1233      00
 1234 0a58 58       		popq	%rax
 1235              		.cfi_def_cfa_offset 24
 1236 0a59 5A       		popq	%rdx
 1237              		.cfi_def_cfa_offset 16
 1238 0a5a B8FFFFFF 		movl	$-1, %eax
 1238      FF
 1239 0a5f 4883C408 		addq	$8, %rsp
 1240              		.cfi_remember_state
 1241              		.cfi_def_cfa_offset 8
 1242 0a63 C3       		ret
 1243              	.L163:
 1244              		.cfi_restore_state
 1245 0a64 4883EC08 		subq	$8, %rsp
 1246              		.cfi_def_cfa_offset 24
 1247 0a68 41B90000 		movl	$.LC0, %r9d
 1247      0000
 1248 0a6e 41B8FFFF 		movl	$-1, %r8d
 1248      FFFF
 1249 0a74 68000000 		pushq	$.LC3
 1249      00
 1250              		.cfi_def_cfa_offset 32
 1251 0a79 B9060100 		movl	$262, %ecx
 1251      00
 1252 0a7e EBC2     		jmp	.L162
 1253              		.cfi_endproc
 1254              	.LFE104:
 1256              		.section	.text.unlikely
 1257              	.LCOLDE29:
 1258              		.text
 1259              	.LHOTE29:
 1260              		.section	.rodata.str1.1
 1261              	.LC30:
 1262 00f9 25752E25 		.string	"%u.%02u Volts"
 1262      30327520 
 1262      566F6C74 
 1262      7300
 1263              		.section	.text.unlikely
 1264              	.LCOLDB31:
 1265              		.text
 1266              	.LHOTB31:
 1267              		.p2align 4,,15
 1268              		.globl	EApiAHCreateVoltageString
GAS LISTING /tmp/cc3mzyOR.s 			page 29


 1270              	EApiAHCreateVoltageString:
 1271              	.LFB105:
 1272              		.cfi_startproc
 1273 0a80 4883EC08 		subq	$8, %rsp
 1274              		.cfi_def_cfa_offset 16
 1275 0a84 4885F6   		testq	%rsi, %rsi
 1276 0a87 4989F2   		movq	%rsi, %r10
 1277 0a8a 0F848C00 		je	.L171
 1277      0000
 1278 0a90 89D6     		movl	%edx, %esi
 1279 0a92 85F6     		testl	%esi, %esi
 1280 0a94 744A     		je	.L172
 1281 0a96 89F8     		movl	%edi, %eax
 1282 0a98 41B8CDCC 		movl	$-858993459, %r8d
 1282      CCCC
 1283 0a9e 41B91F85 		movl	$1374389535, %r9d
 1283      EB51
 1284 0aa4 41F7E0   		mull	%r8d
 1285 0aa7 4883C408 		addq	$8, %rsp
 1286              		.cfi_remember_state
 1287              		.cfi_def_cfa_offset 8
 1288 0aab C1EA03   		shrl	$3, %edx
 1289 0aae 89D0     		movl	%edx, %eax
 1290 0ab0 4189D0   		movl	%edx, %r8d
 1291 0ab3 41F7E1   		mull	%r9d
 1292 0ab6 89F8     		movl	%edi, %eax
 1293 0ab8 4C89D7   		movq	%r10, %rdi
 1294 0abb C1EA05   		shrl	$5, %edx
 1295 0abe 446BCA64 		imull	$100, %edx, %r9d
 1296 0ac2 BAD34D62 		movl	$274877907, %edx
 1296      10
 1297 0ac7 F7E2     		mull	%edx
 1298 0ac9 31C0     		xorl	%eax, %eax
 1299 0acb 4529C8   		subl	%r9d, %r8d
 1300 0ace 89D1     		movl	%edx, %ecx
 1301 0ad0 BA000000 		movl	$.LC30, %edx
 1301      00
 1302 0ad5 C1E906   		shrl	$6, %ecx
 1303 0ad8 E9000000 		jmp	EApiSprintf
 1303      00
 1304 0add 0F1F00   		.p2align 4,,10
 1305              		.p2align 3
 1306              	.L172:
 1307              		.cfi_restore_state
 1308 0ae0 4883EC08 		subq	$8, %rsp
 1309              		.cfi_def_cfa_offset 24
 1310 0ae4 41B90000 		movl	$.LC0, %r9d
 1310      0000
 1311 0aea 41B8FFFF 		movl	$-1, %r8d
 1311      FFFF
 1312 0af0 68000000 		pushq	$.LC14
 1312      00
 1313              		.cfi_def_cfa_offset 32
 1314 0af5 B9160100 		movl	$278, %ecx
 1314      00
 1315              	.L170:
 1316              	.L167:
GAS LISTING /tmp/cc3mzyOR.s 			page 30


 1317 0afa BA000000 		movl	$.LC25, %edx
 1317      00
 1318 0aff BE000000 		movl	$.LC2, %esi
 1318      00
 1319 0b04 BF450000 		movl	$69, %edi
 1319      00
 1320 0b09 31C0     		xorl	%eax, %eax
 1321 0b0b E8000000 		call	siFormattedMessage_SC
 1321      00
 1322 0b10 58       		popq	%rax
 1323              		.cfi_def_cfa_offset 24
 1324 0b11 5A       		popq	%rdx
 1325              		.cfi_def_cfa_offset 16
 1326 0b12 B8FFFFFF 		movl	$-1, %eax
 1326      FF
 1327 0b17 4883C408 		addq	$8, %rsp
 1328              		.cfi_remember_state
 1329              		.cfi_def_cfa_offset 8
 1330 0b1b C3       		ret
 1331              	.L171:
 1332              		.cfi_restore_state
 1333 0b1c 4883EC08 		subq	$8, %rsp
 1334              		.cfi_def_cfa_offset 24
 1335 0b20 41B90000 		movl	$.LC0, %r9d
 1335      0000
 1336 0b26 41B8FFFF 		movl	$-1, %r8d
 1336      FFFF
 1337 0b2c 68000000 		pushq	$.LC3
 1337      00
 1338              		.cfi_def_cfa_offset 32
 1339 0b31 B9150100 		movl	$277, %ecx
 1339      00
 1340 0b36 EBC2     		jmp	.L170
 1341              		.cfi_endproc
 1342              	.LFE105:
 1344              		.section	.text.unlikely
 1345              	.LCOLDE31:
 1346              		.text
 1347              	.LHOTE31:
 1348              		.section	.rodata.str1.1
 1349              	.LC32:
 1350 0107 25752052 		.string	"%u RPM"
 1350      504D00
 1351              		.section	.text.unlikely
 1352              	.LCOLDB33:
 1353              		.text
 1354              	.LHOTB33:
 1355 0b38 0F1F8400 		.p2align 4,,15
 1355      00000000 
 1356              		.globl	EApiAHCreateRotationsString
 1358              	EApiAHCreateRotationsString:
 1359              	.LFB106:
 1360              		.cfi_startproc
 1361 0b40 4883EC08 		subq	$8, %rsp
 1362              		.cfi_def_cfa_offset 16
 1363 0b44 4885F6   		testq	%rsi, %rsi
 1364 0b47 745B     		je	.L179
GAS LISTING /tmp/cc3mzyOR.s 			page 31


 1365 0b49 85D2     		testl	%edx, %edx
 1366 0b4b 741B     		je	.L180
 1367 0b4d 89F9     		movl	%edi, %ecx
 1368 0b4f 31C0     		xorl	%eax, %eax
 1369 0b51 4889F7   		movq	%rsi, %rdi
 1370 0b54 4883C408 		addq	$8, %rsp
 1371              		.cfi_remember_state
 1372              		.cfi_def_cfa_offset 8
 1373 0b58 89D6     		movl	%edx, %esi
 1374 0b5a BA000000 		movl	$.LC32, %edx
 1374      00
 1375 0b5f E9000000 		jmp	EApiSprintf
 1375      00
 1376              		.p2align 4,,10
 1377 0b64 0F1F4000 		.p2align 3
 1378              	.L180:
 1379              		.cfi_restore_state
 1380 0b68 4883EC08 		subq	$8, %rsp
 1381              		.cfi_def_cfa_offset 24
 1382 0b6c 41B90000 		movl	$.LC0, %r9d
 1382      0000
 1383 0b72 41B8FFFF 		movl	$-1, %r8d
 1383      FFFF
 1384 0b78 68000000 		pushq	$.LC14
 1384      00
 1385              		.cfi_def_cfa_offset 32
 1386 0b7d B9270100 		movl	$295, %ecx
 1386      00
 1387              	.L178:
 1388              	.L175:
 1389 0b82 BA000000 		movl	$.LC25, %edx
 1389      00
 1390 0b87 BE000000 		movl	$.LC2, %esi
 1390      00
 1391 0b8c BF450000 		movl	$69, %edi
 1391      00
 1392 0b91 31C0     		xorl	%eax, %eax
 1393 0b93 E8000000 		call	siFormattedMessage_SC
 1393      00
 1394 0b98 58       		popq	%rax
 1395              		.cfi_def_cfa_offset 24
 1396 0b99 5A       		popq	%rdx
 1397              		.cfi_def_cfa_offset 16
 1398 0b9a B8FFFFFF 		movl	$-1, %eax
 1398      FF
 1399 0b9f 4883C408 		addq	$8, %rsp
 1400              		.cfi_remember_state
 1401              		.cfi_def_cfa_offset 8
 1402 0ba3 C3       		ret
 1403              	.L179:
 1404              		.cfi_restore_state
 1405 0ba4 4883EC08 		subq	$8, %rsp
 1406              		.cfi_def_cfa_offset 24
 1407 0ba8 41B90000 		movl	$.LC0, %r9d
 1407      0000
 1408 0bae 41B8FFFF 		movl	$-1, %r8d
 1408      FFFF
GAS LISTING /tmp/cc3mzyOR.s 			page 32


 1409 0bb4 68000000 		pushq	$.LC3
 1409      00
 1410              		.cfi_def_cfa_offset 32
 1411 0bb9 B9260100 		movl	$294, %ecx
 1411      00
 1412 0bbe EBC2     		jmp	.L178
 1413              		.cfi_endproc
 1414              	.LFE106:
 1416              		.section	.text.unlikely
 1417              	.LCOLDE33:
 1418              		.text
 1419              	.LHOTE33:
 1420              		.section	.rodata.str1.1
 1421              	.LC34:
 1422 010e 2520692E 		.string	"% i.%i Celcius"
 1422      25692043 
 1422      656C6369 
 1422      757300
 1423              		.section	.text.unlikely
 1424              	.LCOLDB35:
 1425              		.text
 1426              	.LHOTB35:
 1427              		.p2align 4,,15
 1428              		.globl	EApiAHCreateTempString
 1430              	EApiAHCreateTempString:
 1431              	.LFB107:
 1432              		.cfi_startproc
 1433 0bc0 4883EC08 		subq	$8, %rsp
 1434              		.cfi_def_cfa_offset 16
 1435 0bc4 4885F6   		testq	%rsi, %rsi
 1436 0bc7 4989F1   		movq	%rsi, %r9
 1437 0bca 0F848C00 		je	.L187
 1437      0000
 1438 0bd0 89D6     		movl	%edx, %esi
 1439 0bd2 85F6     		testl	%esi, %esi
 1440 0bd4 744A     		je	.L188
 1441 0bd6 448D8755 		leal	-2731(%rdi), %r8d
 1441      F5FFFF
 1442 0bdd BACDCCCC 		movl	$-858993459, %edx
 1442      CC
 1443 0be2 4883C408 		addq	$8, %rsp
 1444              		.cfi_remember_state
 1445              		.cfi_def_cfa_offset 8
 1446 0be6 4489C0   		movl	%r8d, %eax
 1447 0be9 F7E2     		mull	%edx
 1448 0beb 4489C0   		movl	%r8d, %eax
 1449 0bee C1EA03   		shrl	$3, %edx
 1450 0bf1 8D3C92   		leal	(%rdx,%rdx,4), %edi
 1451 0bf4 BA676666 		movl	$1717986919, %edx
 1451      66
 1452 0bf9 F7EA     		imull	%edx
 1453 0bfb 4489C0   		movl	%r8d, %eax
 1454 0bfe 01FF     		addl	%edi, %edi
 1455 0c00 C1F81F   		sarl	$31, %eax
 1456 0c03 4129F8   		subl	%edi, %r8d
 1457 0c06 4C89CF   		movq	%r9, %rdi
 1458 0c09 89D1     		movl	%edx, %ecx
GAS LISTING /tmp/cc3mzyOR.s 			page 33


 1459 0c0b BA000000 		movl	$.LC34, %edx
 1459      00
 1460 0c10 C1F902   		sarl	$2, %ecx
 1461 0c13 29C1     		subl	%eax, %ecx
 1462 0c15 31C0     		xorl	%eax, %eax
 1463 0c17 E9000000 		jmp	EApiSprintf
 1463      00
 1464 0c1c 0F1F4000 		.p2align 4,,10
 1465              		.p2align 3
 1466              	.L188:
 1467              		.cfi_restore_state
 1468 0c20 4883EC08 		subq	$8, %rsp
 1469              		.cfi_def_cfa_offset 24
 1470 0c24 41B90000 		movl	$.LC0, %r9d
 1470      0000
 1471 0c2a 41B8FFFF 		movl	$-1, %r8d
 1471      FFFF
 1472 0c30 68000000 		pushq	$.LC14
 1472      00
 1473              		.cfi_def_cfa_offset 32
 1474 0c35 B9370100 		movl	$311, %ecx
 1474      00
 1475              	.L186:
 1476              	.L183:
 1477 0c3a BA000000 		movl	$.LC25, %edx
 1477      00
 1478 0c3f BE000000 		movl	$.LC2, %esi
 1478      00
 1479 0c44 BF450000 		movl	$69, %edi
 1479      00
 1480 0c49 31C0     		xorl	%eax, %eax
 1481 0c4b E8000000 		call	siFormattedMessage_SC
 1481      00
 1482 0c50 58       		popq	%rax
 1483              		.cfi_def_cfa_offset 24
 1484 0c51 5A       		popq	%rdx
 1485              		.cfi_def_cfa_offset 16
 1486 0c52 B8FFFFFF 		movl	$-1, %eax
 1486      FF
 1487 0c57 4883C408 		addq	$8, %rsp
 1488              		.cfi_remember_state
 1489              		.cfi_def_cfa_offset 8
 1490 0c5b C3       		ret
 1491              	.L187:
 1492              		.cfi_restore_state
 1493 0c5c 4883EC08 		subq	$8, %rsp
 1494              		.cfi_def_cfa_offset 24
 1495 0c60 41B90000 		movl	$.LC0, %r9d
 1495      0000
 1496 0c66 41B8FFFF 		movl	$-1, %r8d
 1496      FFFF
 1497 0c6c 68000000 		pushq	$.LC3
 1497      00
 1498              		.cfi_def_cfa_offset 32
 1499 0c71 B9360100 		movl	$310, %ecx
 1499      00
 1500 0c76 EBC2     		jmp	.L186
GAS LISTING /tmp/cc3mzyOR.s 			page 34


 1501              		.cfi_endproc
 1502              	.LFE107:
 1504              		.section	.text.unlikely
 1505              	.LCOLDE35:
 1506              		.text
 1507              	.LHOTE35:
 1508              		.section	.rodata.str1.1
 1509              	.LC36:
 1510 011d 45417069 		.string	"EApiAHCreateTimeString"
 1510      41484372 
 1510      65617465 
 1510      54696D65 
 1510      53747269 
 1511              	.LC37:
 1512 0134 25752059 		.string	"%u Years "
 1512      65617273 
 1512      2000
 1513              	.LC38:
 1514 013e 25752044 		.string	"%u Days "
 1514      61797320 
 1514      00
 1515              	.LC39:
 1516 0147 25752048 		.string	"%u Hours "
 1516      6F757273 
 1516      2000
 1517              	.LC40:
 1518 0151 2575204D 		.string	"%u Mins"
 1518      696E7300 
 1519              		.section	.text.unlikely
 1520              	.LCOLDB41:
 1521              		.text
 1522              	.LHOTB41:
 1523 0c78 0F1F8400 		.p2align 4,,15
 1523      00000000 
 1524              		.globl	EApiAHCreateTimeString
 1526              	EApiAHCreateTimeString:
 1527              	.LFB108:
 1528              		.cfi_startproc
 1529 0c80 4155     		pushq	%r13
 1530              		.cfi_def_cfa_offset 16
 1531              		.cfi_offset 13, -16
 1532 0c82 4154     		pushq	%r12
 1533              		.cfi_def_cfa_offset 24
 1534              		.cfi_offset 12, -24
 1535 0c84 55       		pushq	%rbp
 1536              		.cfi_def_cfa_offset 32
 1537              		.cfi_offset 6, -32
 1538 0c85 53       		pushq	%rbx
 1539              		.cfi_def_cfa_offset 40
 1540              		.cfi_offset 3, -40
 1541 0c86 4883EC08 		subq	$8, %rsp
 1542              		.cfi_def_cfa_offset 48
 1543 0c8a 4885F6   		testq	%rsi, %rsi
 1544 0c8d 0F84D101 		je	.L209
 1544      0000
 1545 0c93 85D2     		testl	%edx, %edx
 1546 0c95 89D5     		movl	%edx, %ebp
GAS LISTING /tmp/cc3mzyOR.s 			page 35


 1547 0c97 0F848B01 		je	.L210
 1547      0000
 1548 0c9d 81FF1F05 		cmpl	$525599, %edi
 1548      0800
 1549 0ca3 89FB     		movl	%edi, %ebx
 1550 0ca5 4989F4   		movq	%rsi, %r12
 1551 0ca8 0F871201 		ja	.L193
 1551      0000
 1552              	.L196:
 1553 0cae 89DE     		movl	%ebx, %esi
 1554 0cb0 BA065BB0 		movl	$95443718, %edx
 1554      05
 1555 0cb5 B961F319 		movl	$1729753953, %ecx
 1555      67
 1556 0cba C1EE05   		shrl	$5, %esi
 1557 0cbd 89F0     		movl	%esi, %eax
 1558 0cbf F7E2     		mull	%edx
 1559 0cc1 89D0     		movl	%edx, %eax
 1560 0cc3 89D6     		movl	%edx, %esi
 1561 0cc5 F7E1     		mull	%ecx
 1562 0cc7 89F1     		movl	%esi, %ecx
 1563 0cc9 29D1     		subl	%edx, %ecx
 1564 0ccb D1E9     		shrl	%ecx
 1565 0ccd 8D0C0A   		leal	(%rdx,%rcx), %ecx
 1566 0cd0 C1E908   		shrl	$8, %ecx
 1567 0cd3 69D16D01 		imull	$365, %ecx, %edx
 1567      0000
 1568 0cd9 89F1     		movl	%esi, %ecx
 1569 0cdb 29D1     		subl	%edx, %ecx
 1570 0cdd 7451     		je	.L195
 1571 0cdf 31FF     		xorl	%edi, %edi
 1572 0ce1 31C0     		xorl	%eax, %eax
 1573 0ce3 4531ED   		xorl	%r13d, %r13d
 1574              	.L194:
 1575 0ce6 89EE     		movl	%ebp, %esi
 1576 0ce8 4C01E7   		addq	%r12, %rdi
 1577 0ceb BA000000 		movl	$.LC38, %edx
 1577      00
 1578 0cf0 29C6     		subl	%eax, %esi
 1579 0cf2 31C0     		xorl	%eax, %eax
 1580 0cf4 E8000000 		call	EApiSprintf
 1580      00
 1581 0cf9 4101C5   		addl	%eax, %r13d
 1582 0cfc 7432     		je	.L195
 1583 0cfe 89D8     		movl	%ebx, %eax
 1584 0d00 BA898888 		movl	$-2004318071, %edx
 1584      88
 1585 0d05 4963FD   		movslq	%r13d, %rdi
 1586 0d08 F7E2     		mull	%edx
 1587 0d0a C1EA05   		shrl	$5, %edx
 1588 0d0d 89D6     		movl	%edx, %esi
 1589 0d0f BAABAAAA 		movl	$-1431655765, %edx
 1589      AA
 1590 0d14 89F0     		movl	%esi, %eax
 1591 0d16 F7E2     		mull	%edx
 1592 0d18 C1EA04   		shrl	$4, %edx
 1593 0d1b 8D0452   		leal	(%rdx,%rdx,2), %eax
GAS LISTING /tmp/cc3mzyOR.s 			page 36


 1594 0d1e C1E003   		sall	$3, %eax
 1595 0d21 29C6     		subl	%eax, %esi
 1596 0d23 4489E8   		movl	%r13d, %eax
 1597 0d26 4189F0   		movl	%esi, %r8d
 1598 0d29 EB72     		jmp	.L197
 1599 0d2b 0F1F4400 		.p2align 4,,10
 1599      00
 1600              		.p2align 3
 1601              	.L195:
 1602 0d30 89D8     		movl	%ebx, %eax
 1603 0d32 BA898888 		movl	$-2004318071, %edx
 1603      88
 1604 0d37 31FF     		xorl	%edi, %edi
 1605 0d39 F7E2     		mull	%edx
 1606 0d3b 89D6     		movl	%edx, %esi
 1607 0d3d BAABAAAA 		movl	$-1431655765, %edx
 1607      AA
 1608 0d42 C1EE05   		shrl	$5, %esi
 1609 0d45 89F0     		movl	%esi, %eax
 1610 0d47 F7E2     		mull	%edx
 1611 0d49 C1EA04   		shrl	$4, %edx
 1612 0d4c 8D0452   		leal	(%rdx,%rdx,2), %eax
 1613 0d4f C1E003   		sall	$3, %eax
 1614 0d52 29C6     		subl	%eax, %esi
 1615 0d54 4189F0   		movl	%esi, %r8d
 1616 0d57 753F     		jne	.L200
 1617 0d59 4531ED   		xorl	%r13d, %r13d
 1618              	.L198:
 1619 0d5c 89D8     		movl	%ebx, %eax
 1620 0d5e BA898888 		movl	$-2004318071, %edx
 1620      88
 1621 0d63 89EE     		movl	%ebp, %esi
 1622 0d65 F7E2     		mull	%edx
 1623 0d67 4429C6   		subl	%r8d, %esi
 1624 0d6a 4C01E7   		addq	%r12, %rdi
 1625 0d6d 31C0     		xorl	%eax, %eax
 1626 0d6f C1EA05   		shrl	$5, %edx
 1627 0d72 6BD23C   		imull	$60, %edx, %edx
 1628 0d75 29D3     		subl	%edx, %ebx
 1629 0d77 BA000000 		movl	$.LC40, %edx
 1629      00
 1630 0d7c 89D9     		movl	%ebx, %ecx
 1631 0d7e E8000000 		call	EApiSprintf
 1631      00
 1632 0d83 4401E8   		addl	%r13d, %eax
 1633              	.L191:
 1634 0d86 4883C408 		addq	$8, %rsp
 1635              		.cfi_remember_state
 1636              		.cfi_def_cfa_offset 40
 1637 0d8a 5B       		popq	%rbx
 1638              		.cfi_def_cfa_offset 32
 1639 0d8b 5D       		popq	%rbp
 1640              		.cfi_def_cfa_offset 24
 1641 0d8c 415C     		popq	%r12
 1642              		.cfi_def_cfa_offset 16
 1643 0d8e 415D     		popq	%r13
 1644              		.cfi_def_cfa_offset 8
GAS LISTING /tmp/cc3mzyOR.s 			page 37


 1645 0d90 C3       		ret
 1646              		.p2align 4,,10
 1647 0d91 0F1F8000 		.p2align 3
 1647      000000
 1648              	.L200:
 1649              		.cfi_restore_state
 1650 0d98 31C0     		xorl	%eax, %eax
 1651 0d9a 4531ED   		xorl	%r13d, %r13d
 1652              	.L197:
 1653 0d9d 89EE     		movl	%ebp, %esi
 1654 0d9f 4C01E7   		addq	%r12, %rdi
 1655 0da2 4489C1   		movl	%r8d, %ecx
 1656 0da5 29C6     		subl	%eax, %esi
 1657 0da7 BA000000 		movl	$.LC39, %edx
 1657      00
 1658 0dac 31C0     		xorl	%eax, %eax
 1659 0dae E8000000 		call	EApiSprintf
 1659      00
 1660 0db3 4101C5   		addl	%eax, %r13d
 1661 0db6 4963FD   		movslq	%r13d, %rdi
 1662 0db9 4989F8   		movq	%rdi, %r8
 1663 0dbc EB9E     		jmp	.L198
 1664 0dbe 6690     		.p2align 4,,10
 1665              		.p2align 3
 1666              	.L193:
 1667 0dc0 89F8     		movl	%edi, %eax
 1668 0dc2 BACD685C 		movl	$-10721075, %edx
 1668      FF
 1669 0dc7 89EE     		movl	%ebp, %esi
 1670 0dc9 F7E2     		mull	%edx
 1671 0dcb 4C89E7   		movq	%r12, %rdi
 1672 0dce 31C0     		xorl	%eax, %eax
 1673 0dd0 89D1     		movl	%edx, %ecx
 1674 0dd2 BA000000 		movl	$.LC37, %edx
 1674      00
 1675 0dd7 C1E913   		shrl	$19, %ecx
 1676 0dda E8000000 		call	EApiSprintf
 1676      00
 1677 0ddf 85C0     		testl	%eax, %eax
 1678 0de1 4189C5   		movl	%eax, %r13d
 1679 0de4 0F84C4FE 		je	.L196
 1679      FFFF
 1680 0dea 89DE     		movl	%ebx, %esi
 1681 0dec BA065BB0 		movl	$95443718, %edx
 1681      05
 1682 0df1 4963FD   		movslq	%r13d, %rdi
 1683 0df4 C1EE05   		shrl	$5, %esi
 1684 0df7 89F0     		movl	%esi, %eax
 1685 0df9 F7E2     		mull	%edx
 1686 0dfb 89D6     		movl	%edx, %esi
 1687 0dfd BA61F319 		movl	$1729753953, %edx
 1687      67
 1688 0e02 89F0     		movl	%esi, %eax
 1689 0e04 89F1     		movl	%esi, %ecx
 1690 0e06 F7E2     		mull	%edx
 1691 0e08 4489E8   		movl	%r13d, %eax
 1692 0e0b 29D1     		subl	%edx, %ecx
GAS LISTING /tmp/cc3mzyOR.s 			page 38


 1693 0e0d D1E9     		shrl	%ecx
 1694 0e0f 01CA     		addl	%ecx, %edx
 1695 0e11 89D1     		movl	%edx, %ecx
 1696 0e13 C1E908   		shrl	$8, %ecx
 1697 0e16 69D16D01 		imull	$365, %ecx, %edx
 1697      0000
 1698 0e1c 89F1     		movl	%esi, %ecx
 1699 0e1e 29D1     		subl	%edx, %ecx
 1700 0e20 E9C1FEFF 		jmp	.L194
 1700      FF
 1701              		.p2align 4,,10
 1702 0e25 0F1F00   		.p2align 3
 1703              	.L210:
 1704 0e28 4883EC08 		subq	$8, %rsp
 1705              		.cfi_def_cfa_offset 56
 1706 0e2c 41B90000 		movl	$.LC0, %r9d
 1706      0000
 1707 0e32 41B8FFFF 		movl	$-1, %r8d
 1707      FFFF
 1708 0e38 68000000 		pushq	$.LC14
 1708      00
 1709              		.cfi_def_cfa_offset 64
 1710 0e3d B9490100 		movl	$329, %ecx
 1710      00
 1711              	.L208:
 1712 0e42 BA000000 		movl	$.LC36, %edx
 1712      00
 1713 0e47 BE000000 		movl	$.LC2, %esi
 1713      00
 1714 0e4c BF450000 		movl	$69, %edi
 1714      00
 1715 0e51 31C0     		xorl	%eax, %eax
 1716 0e53 E8000000 		call	siFormattedMessage_SC
 1716      00
 1717 0e58 58       		popq	%rax
 1718              		.cfi_def_cfa_offset 56
 1719 0e59 B8FFFFFF 		movl	$-1, %eax
 1719      FF
 1720 0e5e 5A       		popq	%rdx
 1721              		.cfi_def_cfa_offset 48
 1722 0e5f E922FFFF 		jmp	.L191
 1722      FF
 1723              	.L209:
 1724 0e64 4883EC08 		subq	$8, %rsp
 1725              		.cfi_def_cfa_offset 56
 1726 0e68 41B90000 		movl	$.LC0, %r9d
 1726      0000
 1727 0e6e 41B8FFFF 		movl	$-1, %r8d
 1727      FFFF
 1728 0e74 68000000 		pushq	$.LC3
 1728      00
 1729              		.cfi_def_cfa_offset 64
 1730 0e79 B9480100 		movl	$328, %ecx
 1730      00
 1731 0e7e EBC2     		jmp	.L208
 1732              		.cfi_endproc
 1733              	.LFE108:
GAS LISTING /tmp/cc3mzyOR.s 			page 39


 1735              		.section	.text.unlikely
 1736              	.LCOLDE41:
 1737              		.text
 1738              	.LHOTE41:
 1739              		.section	.rodata.str1.1
 1740              	.LC42:
 1741 0159 45417069 		.string	"EApiAHCreateSVersionString"
 1741      41484372 
 1741      65617465 
 1741      53566572 
 1741      73696F6E 
 1742              	.LC43:
 1743 0174 25752E25 		.string	"%u.%u"
 1743      7500
 1744              		.section	.text.unlikely
 1745              	.LCOLDB44:
 1746              		.text
 1747              	.LHOTB44:
 1748              		.p2align 4,,15
 1749              		.globl	EApiAHCreateSVersionString
 1751              	EApiAHCreateSVersionString:
 1752              	.LFB109:
 1753              		.cfi_startproc
 1754 0e80 4883EC08 		subq	$8, %rsp
 1755              		.cfi_def_cfa_offset 16
 1756 0e84 4885F6   		testq	%rsi, %rsi
 1757 0e87 4889F0   		movq	%rsi, %rax
 1758 0e8a 7468     		je	.L216
 1759 0e8c 85D2     		testl	%edx, %edx
 1760 0e8e 7428     		je	.L217
 1761 0e90 4189F8   		movl	%edi, %r8d
 1762 0e93 89F9     		movl	%edi, %ecx
 1763 0e95 89D6     		movl	%edx, %esi
 1764 0e97 41C1E810 		shrl	$16, %r8d
 1765 0e9b 4889C7   		movq	%rax, %rdi
 1766 0e9e C1E918   		shrl	$24, %ecx
 1767 0ea1 450FB6C0 		movzbl	%r8b, %r8d
 1768 0ea5 BA000000 		movl	$.LC43, %edx
 1768      00
 1769 0eaa 31C0     		xorl	%eax, %eax
 1770 0eac 4883C408 		addq	$8, %rsp
 1771              		.cfi_remember_state
 1772              		.cfi_def_cfa_offset 8
 1773 0eb0 E9000000 		jmp	EApiSprintf
 1773      00
 1774              		.p2align 4,,10
 1775 0eb5 0F1F00   		.p2align 3
 1776              	.L217:
 1777              		.cfi_restore_state
 1778 0eb8 4883EC08 		subq	$8, %rsp
 1779              		.cfi_def_cfa_offset 24
 1780 0ebc BA000000 		movl	$.LC42, %edx
 1780      00
 1781 0ec1 41B90000 		movl	$.LC0, %r9d
 1781      0000
 1782 0ec7 68000000 		pushq	$.LC14
 1782      00
GAS LISTING /tmp/cc3mzyOR.s 			page 40


 1783              		.cfi_def_cfa_offset 32
 1784 0ecc 41B8FFFF 		movl	$-1, %r8d
 1784      FFFF
 1785 0ed2 B9630100 		movl	$355, %ecx
 1785      00
 1786 0ed7 BE000000 		movl	$.LC2, %esi
 1786      00
 1787 0edc BF450000 		movl	$69, %edi
 1787      00
 1788 0ee1 31C0     		xorl	%eax, %eax
 1789 0ee3 E8000000 		call	siFormattedMessage_SC
 1789      00
 1790 0ee8 58       		popq	%rax
 1791              		.cfi_def_cfa_offset 24
 1792 0ee9 5A       		popq	%rdx
 1793              		.cfi_def_cfa_offset 16
 1794              	.L213:
 1795 0eea B8FFFFFF 		movl	$-1, %eax
 1795      FF
 1796 0eef 4883C408 		addq	$8, %rsp
 1797              		.cfi_remember_state
 1798              		.cfi_def_cfa_offset 8
 1799 0ef3 C3       		ret
 1800              	.L216:
 1801              		.cfi_restore_state
 1802 0ef4 4883EC08 		subq	$8, %rsp
 1803              		.cfi_def_cfa_offset 24
 1804 0ef8 B9620100 		movl	$354, %ecx
 1804      00
 1805 0efd BE000000 		movl	$.LC2, %esi
 1805      00
 1806 0f02 68000000 		pushq	$.LC3
 1806      00
 1807              		.cfi_def_cfa_offset 32
 1808 0f07 41B90000 		movl	$.LC0, %r9d
 1808      0000
 1809 0f0d 41B8FFFF 		movl	$-1, %r8d
 1809      FFFF
 1810 0f13 BA000000 		movl	$.LC42, %edx
 1810      00
 1811 0f18 BF450000 		movl	$69, %edi
 1811      00
 1812 0f1d E8000000 		call	siFormattedMessage_SC
 1812      00
 1813 0f22 59       		popq	%rcx
 1814              		.cfi_def_cfa_offset 24
 1815 0f23 5E       		popq	%rsi
 1816              		.cfi_def_cfa_offset 16
 1817 0f24 EBC4     		jmp	.L213
 1818              		.cfi_endproc
 1819              	.LFE109:
 1821              		.section	.text.unlikely
 1822              	.LCOLDE44:
 1823              		.text
 1824              	.LHOTE44:
 1825              		.section	.rodata.str1.1
 1826              	.LC45:
GAS LISTING /tmp/cc3mzyOR.s 			page 41


 1827 017a 45417069 		.string	"EApiAHCreateVersionString"
 1827      41484372 
 1827      65617465 
 1827      56657273 
 1827      696F6E53 
 1828              	.LC46:
 1829 0194 25752E25 		.string	"%u.%u.%u"
 1829      752E2575 
 1829      00
 1830              		.section	.text.unlikely
 1831              	.LCOLDB47:
 1832              		.text
 1833              	.LHOTB47:
 1834 0f26 662E0F1F 		.p2align 4,,15
 1834      84000000 
 1834      0000
 1835              		.globl	EApiAHCreateVersionString
 1837              	EApiAHCreateVersionString:
 1838              	.LFB110:
 1839              		.cfi_startproc
 1840 0f30 4883EC08 		subq	$8, %rsp
 1841              		.cfi_def_cfa_offset 16
 1842 0f34 4885F6   		testq	%rsi, %rsi
 1843 0f37 4889F0   		movq	%rsi, %rax
 1844 0f3a 7470     		je	.L223
 1845 0f3c 85D2     		testl	%edx, %edx
 1846 0f3e 7430     		je	.L224
 1847 0f40 4189F8   		movl	%edi, %r8d
 1848 0f43 89F9     		movl	%edi, %ecx
 1849 0f45 89D6     		movl	%edx, %esi
 1850 0f47 41C1E810 		shrl	$16, %r8d
 1851 0f4b 440FB7CF 		movzwl	%di, %r9d
 1852 0f4f C1E918   		shrl	$24, %ecx
 1853 0f52 4889C7   		movq	%rax, %rdi
 1854 0f55 450FB6C0 		movzbl	%r8b, %r8d
 1855 0f59 BA000000 		movl	$.LC46, %edx
 1855      00
 1856 0f5e 31C0     		xorl	%eax, %eax
 1857 0f60 4883C408 		addq	$8, %rsp
 1858              		.cfi_remember_state
 1859              		.cfi_def_cfa_offset 8
 1860 0f64 E9000000 		jmp	EApiSprintf
 1860      00
 1861 0f69 0F1F8000 		.p2align 4,,10
 1861      000000
 1862              		.p2align 3
 1863              	.L224:
 1864              		.cfi_restore_state
 1865 0f70 4883EC08 		subq	$8, %rsp
 1866              		.cfi_def_cfa_offset 24
 1867 0f74 BA000000 		movl	$.LC45, %edx
 1867      00
 1868 0f79 41B90000 		movl	$.LC0, %r9d
 1868      0000
 1869 0f7f 68000000 		pushq	$.LC14
 1869      00
 1870              		.cfi_def_cfa_offset 32
GAS LISTING /tmp/cc3mzyOR.s 			page 42


 1871 0f84 41B8FFFF 		movl	$-1, %r8d
 1871      FFFF
 1872 0f8a B9740100 		movl	$372, %ecx
 1872      00
 1873 0f8f BE000000 		movl	$.LC2, %esi
 1873      00
 1874 0f94 BF450000 		movl	$69, %edi
 1874      00
 1875 0f99 31C0     		xorl	%eax, %eax
 1876 0f9b E8000000 		call	siFormattedMessage_SC
 1876      00
 1877 0fa0 58       		popq	%rax
 1878              		.cfi_def_cfa_offset 24
 1879 0fa1 5A       		popq	%rdx
 1880              		.cfi_def_cfa_offset 16
 1881              	.L220:
 1882 0fa2 B8FFFFFF 		movl	$-1, %eax
 1882      FF
 1883 0fa7 4883C408 		addq	$8, %rsp
 1884              		.cfi_remember_state
 1885              		.cfi_def_cfa_offset 8
 1886 0fab C3       		ret
 1887              	.L223:
 1888              		.cfi_restore_state
 1889 0fac 4883EC08 		subq	$8, %rsp
 1890              		.cfi_def_cfa_offset 24
 1891 0fb0 B9730100 		movl	$371, %ecx
 1891      00
 1892 0fb5 BE000000 		movl	$.LC2, %esi
 1892      00
 1893 0fba 68000000 		pushq	$.LC3
 1893      00
 1894              		.cfi_def_cfa_offset 32
 1895 0fbf 41B90000 		movl	$.LC0, %r9d
 1895      0000
 1896 0fc5 41B8FFFF 		movl	$-1, %r8d
 1896      FFFF
 1897 0fcb BA000000 		movl	$.LC45, %edx
 1897      00
 1898 0fd0 BF450000 		movl	$69, %edi
 1898      00
 1899 0fd5 E8000000 		call	siFormattedMessage_SC
 1899      00
 1900 0fda 59       		popq	%rcx
 1901              		.cfi_def_cfa_offset 24
 1902 0fdb 5E       		popq	%rsi
 1903              		.cfi_def_cfa_offset 16
 1904 0fdc EBC4     		jmp	.L220
 1905              		.cfi_endproc
 1906              	.LFE110:
 1908              		.section	.text.unlikely
 1909              	.LCOLDE47:
 1910              		.text
 1911              	.LHOTE47:
 1912              		.globl	CompressedAsciiLookup
 1913              		.data
 1914              		.align 32
GAS LISTING /tmp/cc3mzyOR.s 			page 43


 1917              	CompressedAsciiLookup:
 1918 0000 20       		.byte	32
 1919 0001 41       		.byte	65
 1920 0002 42       		.byte	66
 1921 0003 43       		.byte	67
 1922 0004 44       		.byte	68
 1923 0005 45       		.byte	69
 1924 0006 46       		.byte	70
 1925 0007 47       		.byte	71
 1926 0008 48       		.byte	72
 1927 0009 49       		.byte	73
 1928 000a 4A       		.byte	74
 1929 000b 4B       		.byte	75
 1930 000c 4C       		.byte	76
 1931 000d 4D       		.byte	77
 1932 000e 4E       		.byte	78
 1933 000f 4F       		.byte	79
 1934 0010 50       		.byte	80
 1935 0011 51       		.byte	81
 1936 0012 52       		.byte	82
 1937 0013 53       		.byte	83
 1938 0014 54       		.byte	84
 1939 0015 55       		.byte	85
 1940 0016 56       		.byte	86
 1941 0017 57       		.byte	87
 1942 0018 58       		.byte	88
 1943 0019 59       		.byte	89
 1944 001a 5A       		.byte	90
 1945 001b 2A       		.byte	42
 1946 001c 2A       		.byte	42
 1947 001d 2A       		.byte	42
 1948 001e 2A       		.byte	42
 1949 001f 2A       		.byte	42
 1950              		.globl	ErrorLookup
 1951              		.section	.rodata.str1.1
 1952              	.LC48:
 1953 019d 45415049 		.string	"EAPI_STATUS_NOT_INITIALIZED"
 1953      5F535441 
 1953      5455535F 
 1953      4E4F545F 
 1953      494E4954 
 1954              	.LC49:
 1955 01b9 45415049 		.string	"EAPI_STATUS_INITIALIZED"
 1955      5F535441 
 1955      5455535F 
 1955      494E4954 
 1955      49414C49 
 1956              	.LC50:
 1957 01d1 45415049 		.string	"EAPI_STATUS_ALLOC_ERROR"
 1957      5F535441 
 1957      5455535F 
 1957      414C4C4F 
 1957      435F4552 
 1958              	.LC51:
 1959 01e9 45415049 		.string	"EAPI_STATUS_DRIVER_TIMEOUT"
 1959      5F535441 
 1959      5455535F 
GAS LISTING /tmp/cc3mzyOR.s 			page 44


 1959      44524956 
 1959      45525F54 
 1960              	.LC52:
 1961 0204 45415049 		.string	"EAPI_STATUS_INVALID_PARAMETER"
 1961      5F535441 
 1961      5455535F 
 1961      494E5641 
 1961      4C49445F 
 1962              		.section	.rodata.str1.8
 1963 00ba 00000000 		.align 8
 1963      0000
 1964              	.LC53:
 1965 00c0 45415049 		.string	"EAPI_STATUS_INVALID_BLOCK_ALIGNMENT"
 1965      5F535441 
 1965      5455535F 
 1965      494E5641 
 1965      4C49445F 
 1966 00e4 00000000 		.align 8
 1967              	.LC54:
 1968 00e8 45415049 		.string	"EAPI_STATUS_INVALID_BLOCK_LENGTH"
 1968      5F535441 
 1968      5455535F 
 1968      494E5641 
 1968      4C49445F 
 1969              		.section	.rodata.str1.1
 1970              	.LC55:
 1971 0222 45415049 		.string	"EAPI_STATUS_INVALID_DIRECTION"
 1971      5F535441 
 1971      5455535F 
 1971      494E5641 
 1971      4C49445F 
 1972              	.LC56:
 1973 0240 45415049 		.string	"EAPI_STATUS_INVALID_BITMASK"
 1973      5F535441 
 1973      5455535F 
 1973      494E5641 
 1973      4C49445F 
 1974              	.LC57:
 1975 025c 45415049 		.string	"EAPI_STATUS_RUNNING"
 1975      5F535441 
 1975      5455535F 
 1975      52554E4E 
 1975      494E4700 
 1976              	.LC58:
 1977 0270 45415049 		.string	"EAPI_STATUS_UNSUPPORTED"
 1977      5F535441 
 1977      5455535F 
 1977      554E5355 
 1977      50504F52 
 1978              	.LC59:
 1979 0288 45415049 		.string	"EAPI_STATUS_NOT_FOUND"
 1979      5F535441 
 1979      5455535F 
 1979      4E4F545F 
 1979      464F554E 
 1980              	.LC60:
 1981 029e 45415049 		.string	"EAPI_STATUS_TIMEOUT"
GAS LISTING /tmp/cc3mzyOR.s 			page 45


 1981      5F535441 
 1981      5455535F 
 1981      54494D45 
 1981      4F555400 
 1982              	.LC61:
 1983 02b2 45415049 		.string	"EAPI_STATUS_BUSY_COLLISION"
 1983      5F535441 
 1983      5455535F 
 1983      42555359 
 1983      5F434F4C 
 1984              	.LC62:
 1985 02cd 45415049 		.string	"EAPI_STATUS_READ_ERROR"
 1985      5F535441 
 1985      5455535F 
 1985      52454144 
 1985      5F455252 
 1986              	.LC63:
 1987 02e4 45415049 		.string	"EAPI_STATUS_WRITE_ERROR"
 1987      5F535441 
 1987      5455535F 
 1987      57524954 
 1987      455F4552 
 1988              	.LC64:
 1989 02fc 45415049 		.string	"EAPI_STATUS_MORE_DATA"
 1989      5F535441 
 1989      5455535F 
 1989      4D4F5245 
 1989      5F444154 
 1990              	.LC65:
 1991 0312 45415049 		.string	"EAPI_STATUS_ERROR"
 1991      5F535441 
 1991      5455535F 
 1991      4552524F 
 1991      5200
 1992              	.LC66:
 1993 0324 45415049 		.string	"EAPI_STATUS_SUCCESS"
 1993      5F535441 
 1993      5455535F 
 1993      53554343 
 1993      45535300 
 1994              		.section	.rodata
 1995              		.align 32
 1998              	ErrorLookup:
 1999 0000 FFFFFFFF 		.long	-1
 2000 0004 00000000 		.zero	4
 2001 0008 00000000 		.quad	.LC48
 2001      00000000 
 2002 0010 FEFFFFFF 		.long	-2
 2003 0014 00000000 		.zero	4
 2004 0018 00000000 		.quad	.LC49
 2004      00000000 
 2005 0020 FDFFFFFF 		.long	-3
 2006 0024 00000000 		.zero	4
 2007 0028 00000000 		.quad	.LC50
 2007      00000000 
 2008 0030 FCFFFFFF 		.long	-4
 2009 0034 00000000 		.zero	4
GAS LISTING /tmp/cc3mzyOR.s 			page 46


 2010 0038 00000000 		.quad	.LC51
 2010      00000000 
 2011 0040 FFFEFFFF 		.long	-257
 2012 0044 00000000 		.zero	4
 2013 0048 00000000 		.quad	.LC52
 2013      00000000 
 2014 0050 FEFEFFFF 		.long	-258
 2015 0054 00000000 		.zero	4
 2016 0058 00000000 		.quad	.LC53
 2016      00000000 
 2017 0060 FDFEFFFF 		.long	-259
 2018 0064 00000000 		.zero	4
 2019 0068 00000000 		.quad	.LC54
 2019      00000000 
 2020 0070 FCFEFFFF 		.long	-260
 2021 0074 00000000 		.zero	4
 2022 0078 00000000 		.quad	.LC55
 2022      00000000 
 2023 0080 FBFEFFFF 		.long	-261
 2024 0084 00000000 		.zero	4
 2025 0088 00000000 		.quad	.LC56
 2025      00000000 
 2026 0090 FAFEFFFF 		.long	-262
 2027 0094 00000000 		.zero	4
 2028 0098 00000000 		.quad	.LC57
 2028      00000000 
 2029 00a0 FFFCFFFF 		.long	-769
 2030 00a4 00000000 		.zero	4
 2031 00a8 00000000 		.quad	.LC58
 2031      00000000 
 2032 00b0 FFFBFFFF 		.long	-1025
 2033 00b4 00000000 		.zero	4
 2034 00b8 00000000 		.quad	.LC59
 2034      00000000 
 2035 00c0 FEFBFFFF 		.long	-1026
 2036 00c4 00000000 		.zero	4
 2037 00c8 00000000 		.quad	.LC60
 2037      00000000 
 2038 00d0 FDFBFFFF 		.long	-1027
 2039 00d4 00000000 		.zero	4
 2040 00d8 00000000 		.quad	.LC61
 2040      00000000 
 2041 00e0 FFFAFFFF 		.long	-1281
 2042 00e4 00000000 		.zero	4
 2043 00e8 00000000 		.quad	.LC62
 2043      00000000 
 2044 00f0 FEFAFFFF 		.long	-1282
 2045 00f4 00000000 		.zero	4
 2046 00f8 00000000 		.quad	.LC63
 2046      00000000 
 2047 0100 FFF9FFFF 		.long	-1537
 2048 0104 00000000 		.zero	4
 2049 0108 00000000 		.quad	.LC64
 2049      00000000 
 2050 0110 FFF0FFFF 		.long	-3841
 2051 0114 00000000 		.zero	4
 2052 0118 00000000 		.quad	.LC65
GAS LISTING /tmp/cc3mzyOR.s 			page 47


 2052      00000000 
 2053 0120 00000000 		.long	0
 2054 0124 00000000 		.zero	4
 2055 0128 00000000 		.quad	.LC66
 2055      00000000 
 2056              		.ident	"GCC: (Ubuntu 5.2.1-22ubuntu2) 5.2.1 20151010"
 2057              		.section	.note.GNU-stack,"",@progbits
GAS LISTING /tmp/cc3mzyOR.s 			page 48

