GAS LISTING /tmp/ccgpzMaN.s 			page 1


   1              		.file	"EApiAHStorage.c"
   2              		.section	.rodata.str1.1,"aMS",@progbits,1
   3              	.LC0:
   4 0000 25730A00 		.string	"%s\n"
   5              	.LC1:
   6 0004 45417069 		.string	"EApiAHWriteStorage"
   6      41485772 
   6      69746553 
   6      746F7261 
   6      676500
   7              		.section	.rodata.str1.8,"aMS",@progbits,1
   8              		.align 8
   9              	.LC2:
  10 0000 2F646576 		.string	"/development/eAPI/eapidk-code/apps/EApiValidateAPI/linux/../../common/EApiAHStorage.c"
  10      656C6F70 
  10      6D656E74 
  10      2F654150 
  10      492F6561 
  11              		.section	.rodata.str1.1
  12              	.LC3:
  13 0017 28704275 		.string	"(pBuffer==NULL)"
  13      66666572 
  13      3D3D4E55 
  13      4C4C2900 
  14              	.LC4:
  15 0027 28427974 		.string	"(ByteCnt==0)"
  15      65436E74 
  15      3D3D3029 
  15      00
  16              	.LC5:
  17 0034 28284279 		.string	"((ByteOffset+ByteCnt)>MaxLen)"
  17      74654F66 
  17      66736574 
  17      2B427974 
  17      65436E74 
  18              		.section	.rodata.str1.8
  19 0056 0000     		.align 8
  20              	.LC6:
  21 0058 28284164 		.string	"((AdjOffset+AdjLength)>MaxLen)"
  21      6A4F6666 
  21      7365742B 
  21      41646A4C 
  21      656E6774 
  22              		.section	.rodata.str1.1
  23              	.LC7:
  24 0052 416C6C6F 		.string	"Allocating Page Buffer"
  24      63617469 
  24      6E672050 
  24      61676520 
  24      42756666 
  25              		.section	.text.unlikely,"ax",@progbits
  26              	.LCOLDB8:
  27              		.text
  28              	.LHOTB8:
  29              		.p2align 4,,15
  30              		.globl	EApiAHWriteStorage
  32              	EApiAHWriteStorage:
GAS LISTING /tmp/ccgpzMaN.s 			page 2


  33              	.LFB99:
  34              		.cfi_startproc
  35 0000 4157     		pushq	%r15
  36              		.cfi_def_cfa_offset 16
  37              		.cfi_offset 15, -16
  38 0002 4156     		pushq	%r14
  39              		.cfi_def_cfa_offset 24
  40              		.cfi_offset 14, -24
  41 0004 4155     		pushq	%r13
  42              		.cfi_def_cfa_offset 32
  43              		.cfi_offset 13, -32
  44 0006 4154     		pushq	%r12
  45              		.cfi_def_cfa_offset 40
  46              		.cfi_offset 12, -40
  47 0008 55       		pushq	%rbp
  48              		.cfi_def_cfa_offset 48
  49              		.cfi_offset 6, -48
  50 0009 53       		pushq	%rbx
  51              		.cfi_def_cfa_offset 56
  52              		.cfi_offset 3, -56
  53 000a 4883EC28 		subq	$40, %rsp
  54              		.cfi_def_cfa_offset 96
  55 000e 64488B04 		movq	%fs:40, %rax
  55      25280000 
  55      00
  56 0017 48894424 		movq	%rax, 24(%rsp)
  56      18
  57 001c 31C0     		xorl	%eax, %eax
  58 001e 4885D2   		testq	%rdx, %rdx
  59 0021 0F841901 		je	.L24
  59      0000
  60 0027 85C9     		testl	%ecx, %ecx
  61 0029 89CD     		movl	%ecx, %ebp
  62 002b 7563     		jne	.L4
  63 002d 4883EC08 		subq	$8, %rsp
  64              		.cfi_def_cfa_offset 104
  65 0031 41B90000 		movl	$.LC0, %r9d
  65      0000
  66 0037 41B8FFFE 		movl	$-257, %r8d
  66      FFFF
  67 003d 68000000 		pushq	$.LC4
  67      00
  68              		.cfi_def_cfa_offset 112
  69 0042 B93E0000 		movl	$62, %ecx
  69      00
  70              	.L21:
  71 0047 BF450000 		movl	$69, %edi
  71      00
  72 004c BA000000 		movl	$.LC1, %edx
  72      00
  73 0051 BE000000 		movl	$.LC2, %esi
  73      00
  74 0056 31C0     		xorl	%eax, %eax
  75 0058 BBFFFEFF 		movl	$-257, %ebx
  75      FF
  76 005d E8000000 		call	siFormattedMessage_SC
  76      00
GAS LISTING /tmp/ccgpzMaN.s 			page 3


  77 0062 5F       		popq	%rdi
  78              		.cfi_def_cfa_offset 104
  79 0063 4158     		popq	%r8
  80              		.cfi_def_cfa_offset 96
  81              	.L13:
  82 0065 488B4C24 		movq	24(%rsp), %rcx
  82      18
  83 006a 6448330C 		xorq	%fs:40, %rcx
  83      25280000 
  83      00
  84 0073 89D8     		movl	%ebx, %eax
  85 0075 0F852502 		jne	.L25
  85      0000
  86 007b 4883C428 		addq	$40, %rsp
  87              		.cfi_remember_state
  88              		.cfi_def_cfa_offset 56
  89 007f 5B       		popq	%rbx
  90              		.cfi_def_cfa_offset 48
  91 0080 5D       		popq	%rbp
  92              		.cfi_def_cfa_offset 40
  93 0081 415C     		popq	%r12
  94              		.cfi_def_cfa_offset 32
  95 0083 415D     		popq	%r13
  96              		.cfi_def_cfa_offset 24
  97 0085 415E     		popq	%r14
  98              		.cfi_def_cfa_offset 16
  99 0087 415F     		popq	%r15
 100              		.cfi_def_cfa_offset 8
 101 0089 C3       		ret
 102 008a 660F1F44 		.p2align 4,,10
 102      0000
 103              		.p2align 3
 104              	.L4:
 105              		.cfi_restore_state
 106 0090 4189F5   		movl	%esi, %r13d
 107 0093 4989D4   		movq	%rdx, %r12
 108 0096 488D7424 		leaq	16(%rsp), %rsi
 108      10
 109 009b 488D5424 		leaq	20(%rsp), %rdx
 109      14
 110 00a0 4189FE   		movl	%edi, %r14d
 111 00a3 E8000000 		call	EApiStorageCap
 111      00
 112 00a8 85C0     		testl	%eax, %eax
 113 00aa 89C3     		movl	%eax, %ebx
 114 00ac 75B7     		jne	.L13
 115 00ae 8B742410 		movl	16(%rsp), %esi
 116 00b2 418D442D 		leal	0(%r13,%rbp), %eax
 116      00
 117 00b7 39F0     		cmpl	%esi, %eax
 118 00b9 0F87C100 		ja	.L26
 118      0000
 119 00bf 8B4C2414 		movl	20(%rsp), %ecx
 120 00c3 31D2     		xorl	%edx, %edx
 121 00c5 4489E8   		movl	%r13d, %eax
 122 00c8 F7F1     		divl	%ecx
 123 00ca 85D2     		testl	%edx, %edx
GAS LISTING /tmp/ccgpzMaN.s 			page 4


 124 00cc 4189D1   		movl	%edx, %r9d
 125 00cf 0F85CB00 		jne	.L27
 125      0000
 126 00d5 31D2     		xorl	%edx, %edx
 127 00d7 89E8     		movl	%ebp, %eax
 128 00d9 4189EF   		movl	%ebp, %r15d
 129 00dc F7F1     		divl	%ecx
 130 00de 4589EA   		movl	%r13d, %r10d
 131 00e1 85D2     		testl	%edx, %edx
 132 00e3 0F843701 		je	.L8
 132      0000
 133              	.L12:
 134 00e9 4101CF   		addl	%ecx, %r15d
 135 00ec 4129D7   		subl	%edx, %r15d
 136              	.L7:
 137 00ef 4139EF   		cmpl	%ebp, %r15d
 138 00f2 0F842801 		je	.L8
 138      0000
 139 00f8 438D0417 		leal	(%r15,%r10), %eax
 140 00fc 39C6     		cmpl	%eax, %esi
 141 00fe 0F83BC00 		jnb	.L9
 141      0000
 142 0104 4883EC08 		subq	$8, %rsp
 143              		.cfi_def_cfa_offset 104
 144 0108 B95C0000 		movl	$92, %ecx
 144      00
 145 010d BE000000 		movl	$.LC2, %esi
 145      00
 146 0112 68000000 		pushq	$.LC6
 146      00
 147              		.cfi_def_cfa_offset 112
 148 0117 41B90000 		movl	$.LC0, %r9d
 148      0000
 149 011d 41B8FFF0 		movl	$-3841, %r8d
 149      FFFF
 150 0123 BA000000 		movl	$.LC1, %edx
 150      00
 151 0128 BF450000 		movl	$69, %edi
 151      00
 152 012d 31C0     		xorl	%eax, %eax
 153 012f E8000000 		call	siFormattedMessage_SC
 153      00
 154 0134 BBFFF0FF 		movl	$-3841, %ebx
 154      FF
 155 0139 59       		popq	%rcx
 156              		.cfi_def_cfa_offset 104
 157 013a 5E       		popq	%rsi
 158              		.cfi_def_cfa_offset 96
 159 013b E925FFFF 		jmp	.L13
 159      FF
 160              		.p2align 4,,10
 161              		.p2align 3
 162              	.L24:
 163 0140 4883EC08 		subq	$8, %rsp
 164              		.cfi_def_cfa_offset 104
 165 0144 41B90000 		movl	$.LC0, %r9d
 165      0000
GAS LISTING /tmp/ccgpzMaN.s 			page 5


 166 014a 41B8FFFE 		movl	$-257, %r8d
 166      FFFF
 167 0150 68000000 		pushq	$.LC3
 167      00
 168              		.cfi_def_cfa_offset 112
 169 0155 B9390000 		movl	$57, %ecx
 169      00
 170 015a BA000000 		movl	$.LC1, %edx
 170      00
 171 015f BE000000 		movl	$.LC2, %esi
 171      00
 172 0164 BF450000 		movl	$69, %edi
 172      00
 173 0169 BBFFFEFF 		movl	$-257, %ebx
 173      FF
 174 016e E8000000 		call	siFormattedMessage_SC
 174      00
 175 0173 4159     		popq	%r9
 176              		.cfi_def_cfa_offset 104
 177 0175 415A     		popq	%r10
 178              		.cfi_def_cfa_offset 96
 179 0177 E9E9FEFF 		jmp	.L13
 179      FF
 180 017c 0F1F4000 		.p2align 4,,10
 181              		.p2align 3
 182              	.L26:
 183 0180 4883EC08 		subq	$8, %rsp
 184              		.cfi_remember_state
 185              		.cfi_def_cfa_offset 104
 186 0184 41B90000 		movl	$.LC0, %r9d
 186      0000
 187 018a 41B8FFFE 		movl	$-257, %r8d
 187      FFFF
 188 0190 68000000 		pushq	$.LC5
 188      00
 189              		.cfi_def_cfa_offset 112
 190 0195 B9490000 		movl	$73, %ecx
 190      00
 191 019a E9A8FEFF 		jmp	.L21
 191      FF
 192 019f 90       		.p2align 4,,10
 193              		.p2align 3
 194              	.L27:
 195              		.cfi_restore_state
 196 01a0 448D7C15 		leal	0(%rbp,%rdx), %r15d
 196      00
 197 01a5 4589EA   		movl	%r13d, %r10d
 198 01a8 4129D2   		subl	%edx, %r10d
 199 01ab 31D2     		xorl	%edx, %edx
 200 01ad 4489F8   		movl	%r15d, %eax
 201 01b0 F7F1     		divl	%ecx
 202 01b2 85D2     		testl	%edx, %edx
 203 01b4 0F8435FF 		je	.L7
 203      FFFF
 204 01ba E92AFFFF 		jmp	.L12
 204      FF
 205 01bf 90       		.p2align 4,,10
GAS LISTING /tmp/ccgpzMaN.s 			page 6


 206              		.p2align 3
 207              	.L9:
 208 01c0 4489FF   		movl	%r15d, %edi
 209 01c3 44894C24 		movl	%r9d, 12(%rsp)
 209      0C
 210 01c8 44895424 		movl	%r10d, 8(%rsp)
 210      08
 211 01cd E8000000 		call	malloc
 211      00
 212 01d2 4885C0   		testq	%rax, %rax
 213 01d5 4989C5   		movq	%rax, %r13
 214 01d8 448B5424 		movl	8(%rsp), %r10d
 214      08
 215 01dd 448B4C24 		movl	12(%rsp), %r9d
 215      0C
 216 01e2 7453     		je	.L28
 217 01e4 4589F8   		movl	%r15d, %r8d
 218 01e7 4489F9   		movl	%r15d, %ecx
 219 01ea 4889C2   		movq	%rax, %rdx
 220 01ed 4489D6   		movl	%r10d, %esi
 221 01f0 4489F7   		movl	%r14d, %edi
 222 01f3 44894C24 		movl	%r9d, 12(%rsp)
 222      0C
 223 01f8 44895424 		movl	%r10d, 8(%rsp)
 223      08
 224 01fd E8000000 		call	EApiStorageAreaRead
 224      00
 225 0202 85C0     		testl	%eax, %eax
 226 0204 89C3     		movl	%eax, %ebx
 227 0206 448B4C24 		movl	12(%rsp), %r9d
 227      0C
 228 020b 7466     		je	.L29
 229              	.L11:
 230 020d 4C89EF   		movq	%r13, %rdi
 231 0210 E8000000 		call	free
 231      00
 232 0215 E94BFEFF 		jmp	.L13
 232      FF
 233 021a 660F1F44 		.p2align 4,,10
 233      0000
 234              		.p2align 3
 235              	.L8:
 236 0220 89E9     		movl	%ebp, %ecx
 237 0222 4C89E2   		movq	%r12, %rdx
 238 0225 4489EE   		movl	%r13d, %esi
 239 0228 4489F7   		movl	%r14d, %edi
 240 022b E8000000 		call	EApiStorageAreaWrite
 240      00
 241 0230 89C3     		movl	%eax, %ebx
 242 0232 E92EFEFF 		jmp	.L13
 242      FF
 243              	.L28:
 244 0237 4883EC08 		subq	$8, %rsp
 245              		.cfi_def_cfa_offset 104
 246 023b BA000000 		movl	$.LC1, %edx
 246      00
 247 0240 41B90000 		movl	$.LC0, %r9d
GAS LISTING /tmp/ccgpzMaN.s 			page 7


 247      0000
 248 0246 68000000 		pushq	$.LC7
 248      00
 249              		.cfi_def_cfa_offset 112
 250 024b 41B8FDFF 		movl	$-3, %r8d
 250      FFFF
 251 0251 B9630000 		movl	$99, %ecx
 251      00
 252 0256 BE000000 		movl	$.LC2, %esi
 252      00
 253 025b BF450000 		movl	$69, %edi
 253      00
 254 0260 31C0     		xorl	%eax, %eax
 255 0262 E8000000 		call	siFormattedMessage_SC
 255      00
 256 0267 BBFDFFFF 		movl	$-3, %ebx
 256      FF
 257 026c 58       		popq	%rax
 258              		.cfi_def_cfa_offset 104
 259 026d 5A       		popq	%rdx
 260              		.cfi_def_cfa_offset 96
 261 026e E9F2FDFF 		jmp	.L13
 261      FF
 262              	.L29:
 263 0273 4489CF   		movl	%r9d, %edi
 264 0276 89EA     		movl	%ebp, %edx
 265 0278 4C89E6   		movq	%r12, %rsi
 266 027b 4C01EF   		addq	%r13, %rdi
 267 027e E8000000 		call	memcpy
 267      00
 268 0283 448B5424 		movl	8(%rsp), %r10d
 268      08
 269 0288 4489F9   		movl	%r15d, %ecx
 270 028b 4C89EA   		movq	%r13, %rdx
 271 028e 4489F7   		movl	%r14d, %edi
 272 0291 4489D6   		movl	%r10d, %esi
 273 0294 E8000000 		call	EApiStorageAreaWrite
 273      00
 274 0299 89C3     		movl	%eax, %ebx
 275 029b E96DFFFF 		jmp	.L11
 275      FF
 276              	.L25:
 277 02a0 E8000000 		call	__stack_chk_fail
 277      00
 278              		.cfi_endproc
 279              	.LFE99:
 281              		.section	.text.unlikely
 282              	.LCOLDE8:
 283              		.text
 284              	.LHOTE8:
 285              		.ident	"GCC: (Ubuntu 5.2.1-22ubuntu2) 5.2.1 20151010"
 286              		.section	.note.GNU-stack,"",@progbits
GAS LISTING /tmp/ccgpzMaN.s 			page 8

