	.file	"DbgChk.c"
	.text
.Ltext0:
	.globl	ErrorLookupA
	.section	.rodata
.LC0:
	.string	"NOT_INITIALIZED"
.LC1:
	.string	"INITIALIZED"
.LC2:
	.string	"ALLOC_ERROR"
.LC3:
	.string	"DRIVER_TIMEOUT"
.LC4:
	.string	"INVALID_PARAMETER"
.LC5:
	.string	"INVALID_BLOCK_ALIGNMENT"
.LC6:
	.string	"INVALID_BLOCK_LENGTH"
.LC7:
	.string	"INVALID_DIRECTION"
.LC8:
	.string	"INVALID_BITMASK"
.LC9:
	.string	"RUNNING"
.LC10:
	.string	"UNSUPPORTED"
.LC11:
	.string	"NOT_FOUND"
.LC12:
	.string	"TIMEOUT"
.LC13:
	.string	"BUSY_COLLISION"
.LC14:
	.string	"READ_ERROR"
.LC15:
	.string	"WRITE_ERROR"
.LC16:
	.string	"MORE_DATA"
.LC17:
	.string	"ERROR"
.LC18:
	.string	"SUCCESS"
	.align 32
	.type	ErrorLookupA, @object
	.size	ErrorLookupA, 304
ErrorLookupA:
	.long	-1
	.zero	4
	.quad	.LC0
	.long	-2
	.zero	4
	.quad	.LC1
	.long	-3
	.zero	4
	.quad	.LC2
	.long	-4
	.zero	4
	.quad	.LC3
	.long	-257
	.zero	4
	.quad	.LC4
	.long	-258
	.zero	4
	.quad	.LC5
	.long	-259
	.zero	4
	.quad	.LC6
	.long	-260
	.zero	4
	.quad	.LC7
	.long	-261
	.zero	4
	.quad	.LC8
	.long	-262
	.zero	4
	.quad	.LC9
	.long	-769
	.zero	4
	.quad	.LC10
	.long	-1025
	.zero	4
	.quad	.LC11
	.long	-1026
	.zero	4
	.quad	.LC12
	.long	-1027
	.zero	4
	.quad	.LC13
	.long	-1281
	.zero	4
	.quad	.LC14
	.long	-1282
	.zero	4
	.quad	.LC15
	.long	-1537
	.zero	4
	.quad	.LC16
	.long	-3841
	.zero	4
	.quad	.LC17
	.long	0
	.zero	4
	.quad	.LC18
	.text
	.globl	EApiGetErrorStringA
	.type	EApiGetErrorStringA, @function
EApiGetErrorStringA:
.LFB2:
	.file 1 "/development/eAPI/eapidk-code/apps/EApiValidateAPI/linux/../../common/DbgChk.c"
	.loc 1 70 0
	.cfi_startproc
	pushq	%rbp
	.cfi_def_cfa_offset 16
	.cfi_offset 6, -16
	movq	%rsp, %rbp
	.cfi_def_cfa_register 6
	movq	%rdi, -24(%rbp)
	movl	%esi, -28(%rbp)
	.loc 1 76 0
	movq	-24(%rbp), %rax
	movq	$0, (%rax)
	.loc 1 77 0
	movl	$19, -12(%rbp)
	.loc 1 78 0
	movq	$ErrorLookupA, -8(%rbp)
	.loc 1 77 0
	jmp	.L2
.L5:
	.loc 1 83 0
	movq	-8(%rbp), %rax
	movl	(%rax), %eax
	cmpl	-28(%rbp), %eax
	jne	.L3
	.loc 1 84 0
	movq	-8(%rbp), %rax
	movq	8(%rax), %rdx
	movq	-24(%rbp), %rax
	movq	%rdx, (%rax)
	.loc 1 85 0
	movl	$0, %eax
	jmp	.L4
.L3:
	.loc 1 79 0
	addq	$16, -8(%rbp)
.L2:
	.loc 1 79 0 is_stmt 0 discriminator 1
	movl	-12(%rbp), %eax
	leal	-1(%rax), %edx
	movl	%edx, -12(%rbp)
	.loc 1 77 0 is_stmt 1 discriminator 1
	testl	%eax, %eax
	jne	.L5
	.loc 1 88 0
	movl	$-3841, %eax
.L4:
	.loc 1 89 0
	popq	%rbp
	.cfi_def_cfa 7, 8
	ret
	.cfi_endproc
.LFE2:
	.size	EApiGetErrorStringA, .-EApiGetErrorStringA
	.globl	GetLastOccurance
	.type	GetLastOccurance, @function
GetLastOccurance:
.LFB3:
	.loc 1 94 0
	.cfi_startproc
	pushq	%rbp
	.cfi_def_cfa_offset 16
	.cfi_offset 6, -16
	movq	%rsp, %rbp
	.cfi_def_cfa_register 6
	movq	%rdi, -24(%rbp)
	.loc 1 95 0
	movq	-24(%rbp), %rax
	movq	%rax, -8(%rbp)
	.loc 1 96 0
	jmp	.L7
.L10:
	.loc 1 97 0
	movq	-24(%rbp), %rax
	leaq	1(%rax), %rdx
	movq	%rdx, -24(%rbp)
	movzbl	(%rax), %eax
	movsbl	%al, %eax
	cmpl	$47, %eax
	je	.L9
	cmpl	$92, %eax
	jne	.L8
.L9:
	.loc 1 100 0
	movq	-24(%rbp), %rax
	movq	%rax, -8(%rbp)
.L8:
	.loc 1 102 0
	nop
.L7:
	.loc 1 96 0
	movq	-24(%rbp), %rax
	movzbl	(%rax), %eax
	testb	%al, %al
	jne	.L10
	.loc 1 105 0
	movq	-8(%rbp), %rax
	.loc 1 106 0
	popq	%rbp
	.cfi_def_cfa 7, 8
	ret
	.cfi_endproc
.LFE3:
	.size	GetLastOccurance, .-GetLastOccurance
	.globl	cszLogFormat
	.section	.rodata
	.align 16
	.type	cszLogFormat, @object
	.size	cszLogFormat, 25
cszLogFormat:
	.string	"%c%04i %-15.15s %-30s | "
.LC19:
	.string	"%-25s | "
	.text
	.globl	siFormattedMessage_M2
	.type	siFormattedMessage_M2, @function
siFormattedMessage_M2:
.LFB4:
	.loc 1 120 0
	.cfi_startproc
	pushq	%rbp
	.cfi_def_cfa_offset 16
	.cfi_offset 6, -16
	movq	%rsp, %rbp
	.cfi_def_cfa_register 6
	subq	$272, %rsp
	movq	%rsi, -240(%rbp)
	movq	%rdx, -248(%rbp)
	movl	%ecx, -232(%rbp)
	movq	%r8, -256(%rbp)
	movq	%r9, -264(%rbp)
	testb	%al, %al
	je	.L13
	movaps	%xmm0, -128(%rbp)
	movaps	%xmm1, -112(%rbp)
	movaps	%xmm2, -96(%rbp)
	movaps	%xmm3, -80(%rbp)
	movaps	%xmm4, -64(%rbp)
	movaps	%xmm5, -48(%rbp)
	movaps	%xmm6, -32(%rbp)
	movaps	%xmm7, -16(%rbp)
.L13:
	movb	%dil, -228(%rbp)
	.loc 1 120 0
	movq	%fs:40, %rax
	movq	%rax, -184(%rbp)
	xorl	%eax, %eax
	.loc 1 124 0
	movl	$48, -208(%rbp)
	movl	$48, -204(%rbp)
	leaq	16(%rbp), %rax
	movq	%rax, -200(%rbp)
	leaq	-176(%rbp), %rax
	movq	%rax, -192(%rbp)
	.loc 1 126 0
	movq	-240(%rbp), %rax
	movq	%rax, %rdi
	call	GetLastOccurance
	movq	%rax, %rsi
	movsbl	-228(%rbp), %eax
	movq	-248(%rbp), %rcx
	movl	-232(%rbp), %edx
	movq	%rcx, %r8
	movq	%rsi, %rcx
	movl	%eax, %esi
	movl	$cszLogFormat, %edi
	movl	$0, %eax
	call	printf
	movl	%eax, -212(%rbp)
	.loc 1 133 0
	movq	-256(%rbp), %rax
	movq	%rax, %rsi
	movl	$.LC19, %edi
	movl	$0, %eax
	call	printf
	.loc 1 134 0
	leaq	-208(%rbp), %rdx
	movq	-264(%rbp), %rax
	movq	%rdx, %rsi
	movq	%rax, %rdi
	call	vprintf
	addl	%eax, -212(%rbp)
	.loc 1 136 0
	movl	-212(%rbp), %eax
	.loc 1 137 0
	movq	-184(%rbp), %rcx
	xorq	%fs:40, %rcx
	je	.L15
	call	__stack_chk_fail
.L15:
	leave
	.cfi_def_cfa 7, 8
	ret
	.cfi_endproc
.LFE4:
	.size	siFormattedMessage_M2, .-siFormattedMessage_M2
	.section	.rodata
.LC20:
	.string	"               0x%08X | "
	.text
	.globl	siFormattedMessage_SC
	.type	siFormattedMessage_SC, @function
siFormattedMessage_SC:
.LFB5:
	.loc 1 150 0
	.cfi_startproc
	pushq	%rbp
	.cfi_def_cfa_offset 16
	.cfi_offset 6, -16
	movq	%rsp, %rbp
	.cfi_def_cfa_register 6
	subq	$272, %rsp
	movq	%rsi, -240(%rbp)
	movq	%rdx, -248(%rbp)
	movl	%ecx, -232(%rbp)
	movl	%r8d, -252(%rbp)
	movq	%r9, -264(%rbp)
	testb	%al, %al
	je	.L17
	movaps	%xmm0, -128(%rbp)
	movaps	%xmm1, -112(%rbp)
	movaps	%xmm2, -96(%rbp)
	movaps	%xmm3, -80(%rbp)
	movaps	%xmm4, -64(%rbp)
	movaps	%xmm5, -48(%rbp)
	movaps	%xmm6, -32(%rbp)
	movaps	%xmm7, -16(%rbp)
.L17:
	movb	%dil, -228(%rbp)
	.loc 1 150 0
	movq	%fs:40, %rax
	movq	%rax, -184(%rbp)
	xorl	%eax, %eax
	.loc 1 154 0
	movl	$48, -208(%rbp)
	movl	$48, -204(%rbp)
	leaq	16(%rbp), %rax
	movq	%rax, -200(%rbp)
	leaq	-176(%rbp), %rax
	movq	%rax, -192(%rbp)
	.loc 1 155 0
	movl	-252(%rbp), %edx
	leaq	-216(%rbp), %rax
	movl	%edx, %esi
	movq	%rax, %rdi
	call	EApiGetErrorStringA
	.loc 1 156 0
	movq	-240(%rbp), %rax
	movq	%rax, %rdi
	call	GetLastOccurance
	movq	%rax, %rsi
	movsbl	-228(%rbp), %eax
	movq	-248(%rbp), %rcx
	movl	-232(%rbp), %edx
	movq	%rcx, %r8
	movq	%rsi, %rcx
	movl	%eax, %esi
	movl	$cszLogFormat, %edi
	movl	$0, %eax
	call	printf
	movl	%eax, -220(%rbp)
	.loc 1 163 0
	movq	-216(%rbp), %rax
	testq	%rax, %rax
	jne	.L18
	.loc 1 164 0
	movl	-252(%rbp), %eax
	movl	%eax, %esi
	movl	$.LC20, %edi
	movl	$0, %eax
	call	printf
	jmp	.L19
.L18:
	.loc 1 166 0
	movq	-216(%rbp), %rax
	movq	%rax, %rsi
	movl	$.LC19, %edi
	movl	$0, %eax
	call	printf
.L19:
	.loc 1 168 0
	leaq	-208(%rbp), %rdx
	movq	-264(%rbp), %rax
	movq	%rdx, %rsi
	movq	%rax, %rdi
	call	vprintf
	addl	%eax, -220(%rbp)
	.loc 1 170 0
	movl	-220(%rbp), %eax
	.loc 1 171 0
	movq	-184(%rbp), %rcx
	xorq	%fs:40, %rcx
	je	.L21
	call	__stack_chk_fail
.L21:
	leave
	.cfi_def_cfa 7, 8
	ret
	.cfi_endproc
.LFE5:
	.size	siFormattedMessage_SC, .-siFormattedMessage_SC
.Letext0:
	.file 2 "<built-in>"
	.file 3 "/usr/lib/gcc/x86_64-linux-gnu/5/include/stdarg.h"
	.file 4 "/usr/include/stdio.h"
	.file 5 "/usr/include/stdint.h"
	.file 6 "../../../include/EApi.h"
	.section	.note.GNU-stack,"",@progbits
