	.file	"EApiValidateAPI.c"
	.text
.Ltext0:
	.comm	LogStream,8,8
	.section	.rodata
.LC0:
	.string	"%c%04i %-30s | "
.LC1:
	.string	"               0x%08X | "
.LC2:
	.string	"%-25s | "
	.text
	.globl	siFFormattedMessage_SC
	.type	siFFormattedMessage_SC, @function
siFFormattedMessage_SC:
.LFB2:
	.file 1 "/development/eAPI/eapidk-code/apps/EApiValidateAPI/linux/../EApiValidateAPI.c"
	.loc 1 80 0
	.cfi_startproc
	pushq	%rbp
	.cfi_def_cfa_offset 16
	.cfi_offset 6, -16
	movq	%rsp, %rbp
	.cfi_def_cfa_register 6
	subq	$272, %rsp
	movq	%rdi, -232(%rbp)
	movq	%rdx, -248(%rbp)
	movq	%rcx, -256(%rbp)
	movl	%r8d, -240(%rbp)
	movl	%r9d, -260(%rbp)
	testb	%al, %al
	je	.L2
	movaps	%xmm0, -128(%rbp)
	movaps	%xmm1, -112(%rbp)
	movaps	%xmm2, -96(%rbp)
	movaps	%xmm3, -80(%rbp)
	movaps	%xmm4, -64(%rbp)
	movaps	%xmm5, -48(%rbp)
	movaps	%xmm6, -32(%rbp)
	movaps	%xmm7, -16(%rbp)
.L2:
	movb	%sil, -236(%rbp)
	movq	16(%rbp), %rax
	movq	%rax, -272(%rbp)
	.loc 1 80 0
	movq	%fs:40, %rax
	movq	%rax, -184(%rbp)
	xorl	%eax, %eax
	.loc 1 85 0
	movl	$48, -208(%rbp)
	movl	$48, -204(%rbp)
	leaq	24(%rbp), %rax
	movq	%rax, -200(%rbp)
	leaq	-176(%rbp), %rax
	movq	%rax, -192(%rbp)
	.loc 1 86 0
	movl	-260(%rbp), %edx
	leaq	-216(%rbp), %rax
	movl	%edx, %esi
	movq	%rax, %rdi
	call	EApiGetErrorStringA
	.loc 1 87 0
	movsbl	-236(%rbp), %edx
	movq	-256(%rbp), %rsi
	movl	-240(%rbp), %ecx
	movq	-232(%rbp), %rax
	movq	%rsi, %r8
	movl	$.LC0, %esi
	movq	%rax, %rdi
	movl	$0, %eax
	call	fprintf
	movl	%eax, -220(%rbp)
	.loc 1 94 0
	movq	-216(%rbp), %rax
	testq	%rax, %rax
	jne	.L3
	.loc 1 95 0
	movl	-260(%rbp), %edx
	movq	-232(%rbp), %rax
	movl	$.LC1, %esi
	movq	%rax, %rdi
	movl	$0, %eax
	call	fprintf
	jmp	.L4
.L3:
	.loc 1 97 0
	movq	-216(%rbp), %rdx
	movq	-232(%rbp), %rax
	movl	$.LC2, %esi
	movq	%rax, %rdi
	movl	$0, %eax
	call	fprintf
.L4:
	.loc 1 99 0
	leaq	-208(%rbp), %rdx
	movq	-272(%rbp), %rcx
	movq	-232(%rbp), %rax
	movq	%rcx, %rsi
	movq	%rax, %rdi
	call	vfprintf
	addl	%eax, -220(%rbp)
	.loc 1 101 0
	movl	-220(%rbp), %eax
	.loc 1 102 0
	movq	-184(%rbp), %rcx
	xorq	%fs:40, %rcx
	je	.L6
	call	__stack_chk_fail
.L6:
	leave
	.cfi_def_cfa 7, 8
	ret
	.cfi_endproc
.LFE2:
	.size	siFFormattedMessage_SC, .-siFFormattedMessage_SC
	.globl	Buffer
	.bss
	.align 32
	.type	Buffer, @object
	.size	Buffer, 1024
Buffer:
	.zero	1024
	.globl	BufPtrLen
	.data
	.align 4
	.type	BufPtrLen, @object
	.size	BufPtrLen, 4
BufPtrLen:
	.long	1024
	.globl	FailPass
	.section	.rodata
.LC3:
	.string	"FAIL"
.LC4:
	.string	"PASS"
	.data
	.align 16
	.type	FailPass, @object
	.size	FailPass, 16
FailPass:
	.quad	.LC3
	.quad	.LC4
	.globl	EApiStrings
	.section	.rodata
.LC5:
	.string	"Manufacturer"
.LC6:
	.string	"Board Name"
.LC7:
	.string	"Board Serial Number"
.LC8:
	.string	"Bios Revision"
.LC9:
	.string	"Platform Type"
.LC10:
	.string	"HW Revision"
.LC11:
	.string	"Board Revision"
.LC12:
	.string	"Manufacturing Date"
	.align 32
	.type	EApiStrings, @object
	.size	EApiStrings, 128
EApiStrings:
	.long	0
	.zero	4
	.quad	.LC5
	.long	1
	.zero	4
	.quad	.LC6
	.long	3
	.zero	4
	.quad	.LC7
	.long	4
	.zero	4
	.quad	.LC8
	.long	6
	.zero	4
	.quad	.LC9
	.long	5
	.zero	4
	.quad	.LC10
	.long	2
	.zero	4
	.quad	.LC11
	.long	-84865024
	.zero	4
	.quad	.LC12
.LC13:
	.string	"%-30s : %s\n"
	.align 8
.LC14:
	.string	"%-30s : EAPI_STATUS_UNSUPPORTED\n"
	.text
	.globl	EApiValidateStringApi
	.type	EApiValidateStringApi, @function
EApiValidateStringApi:
.LFB3:
	.loc 1 169 0
	.cfi_startproc
	pushq	%rbp
	.cfi_def_cfa_offset 16
	.cfi_offset 6, -16
	movq	%rsp, %rbp
	.cfi_def_cfa_register 6
	subq	$32, %rsp
	.loc 1 169 0
	movq	%fs:40, %rax
	movq	%rax, -8(%rbp)
	xorl	%eax, %eax
	.loc 1 174 0
	movl	$100, -28(%rbp)
	.loc 1 175 0
	movl	-28(%rbp), %eax
	movl	%eax, %eax
	movq	%rax, %rdi
	call	malloc
	movq	%rax, -16(%rbp)
	.loc 1 177 0
	movl	$10, %edi
	call	putchar
.LBB2:
	.loc 1 178 0
	movl	$0, -24(%rbp)
	jmp	.L8
.L11:
	.loc 1 179 0
	movl	$100, -28(%rbp)
	.loc 1 180 0
	movl	-24(%rbp), %eax
	salq	$4, %rax
	addq	$EApiStrings, %rax
	movl	(%rax), %eax
	leaq	-28(%rbp), %rdx
	movq	-16(%rbp), %rcx
	movq	%rcx, %rsi
	movl	%eax, %edi
	call	EApiBoardGetStringA
	movl	%eax, -20(%rbp)
	.loc 1 181 0
	cmpl	$0, -20(%rbp)
	jne	.L9
	.loc 1 183 0
	movl	-24(%rbp), %eax
	salq	$4, %rax
	addq	$EApiStrings+8, %rax
	movq	(%rax), %rax
	movq	-16(%rbp), %rdx
	movq	%rax, %rsi
	movl	$.LC13, %edi
	movl	$0, %eax
	call	printf
	jmp	.L10
.L9:
	.loc 1 190 0
	movl	-24(%rbp), %eax
	salq	$4, %rax
	addq	$EApiStrings+8, %rax
	movq	(%rax), %rax
	movq	%rax, %rsi
	movl	$.LC14, %edi
	movl	$0, %eax
	call	printf
.L10:
	.loc 1 178 0 discriminator 2
	addl	$1, -24(%rbp)
.L8:
	.loc 1 178 0 is_stmt 0 discriminator 1
	cmpl	$7, -24(%rbp)
	jbe	.L11
.LBE2:
	.loc 1 195 0 is_stmt 1
	movq	-16(%rbp), %rax
	movq	%rax, %rdi
	call	free
	.loc 1 196 0
	nop
	.loc 1 197 0
	movq	-8(%rbp), %rax
	xorq	%fs:40, %rax
	je	.L13
	call	__stack_chk_fail
.L13:
	leave
	.cfi_def_cfa 7, 8
	ret
	.cfi_endproc
.LFE3:
	.size	EApiValidateStringApi, .-EApiValidateStringApi
	.globl	EApiValues
	.section	.rodata
.LC15:
	.string	"EApi Spec Version"
.LC16:
	.string	"Boot Counter"
.LC17:
	.string	"Running Time Meter"
.LC18:
	.string	"Manufacturer PNP ID"
.LC19:
	.string	"Platform Revision"
.LC20:
	.string	"CPU Temperature"
.LC21:
	.string	"Chipset Temperature"
.LC22:
	.string	"System Temperature"
.LC23:
	.string	"Cpu Fan"
.LC24:
	.string	"System Fan"
.LC25:
	.string	"VCORE"
.LC26:
	.string	"2.5V"
.LC27:
	.string	"3.3V"
.LC28:
	.string	"VBAT"
.LC29:
	.string	"5V"
.LC30:
	.string	"5VSB"
.LC31:
	.string	"12V"
	.align 32
	.type	EApiValues, @object
	.size	EApiValues, 408
EApiValues:
	.long	0
	.zero	4
	.quad	.LC15
	.quad	EApiAHCreateSVersionString
	.long	1
	.zero	4
	.quad	.LC16
	.quad	EApiAHCreateDecimalString
	.long	2
	.zero	4
	.quad	.LC17
	.quad	EApiAHCreateTimeString
	.long	3
	.zero	4
	.quad	.LC18
	.quad	EApiAHCreatePNPIDString
	.long	4
	.zero	4
	.quad	.LC19
	.quad	EApiAHCreateSVersionString
	.long	131072
	.zero	4
	.quad	.LC20
	.quad	EApiAHCreateTempString
	.long	131073
	.zero	4
	.quad	.LC21
	.quad	EApiAHCreateTempString
	.long	131074
	.zero	4
	.quad	.LC22
	.quad	EApiAHCreateTempString
	.long	139264
	.zero	4
	.quad	.LC23
	.quad	EApiAHCreateRotationsString
	.long	139265
	.zero	4
	.quad	.LC24
	.quad	EApiAHCreateRotationsString
	.long	135172
	.zero	4
	.quad	.LC25
	.quad	EApiAHCreateVoltageString
	.long	135176
	.zero	4
	.quad	.LC26
	.quad	EApiAHCreateVoltageString
	.long	135180
	.zero	4
	.quad	.LC27
	.quad	EApiAHCreateVoltageString
	.long	135184
	.zero	4
	.quad	.LC28
	.quad	EApiAHCreateVoltageString
	.long	135188
	.zero	4
	.quad	.LC29
	.quad	EApiAHCreateVoltageString
	.long	135192
	.zero	4
	.quad	.LC30
	.quad	EApiAHCreateVoltageString
	.long	135196
	.zero	4
	.quad	.LC31
	.quad	EApiAHCreateVoltageString
	.text
	.globl	EApiValidateValuesApi
	.type	EApiValidateValuesApi, @function
EApiValidateValuesApi:
.LFB4:
	.loc 1 274 0
	.cfi_startproc
	pushq	%rbp
	.cfi_def_cfa_offset 16
	.cfi_offset 6, -16
	movq	%rsp, %rbp
	.cfi_def_cfa_register 6
	subq	$1056, %rsp
	.loc 1 274 0
	movq	%fs:40, %rax
	movq	%rax, -8(%rbp)
	xorl	%eax, %eax
	.loc 1 282 0
	movl	$10, %edi
	call	putchar
	.loc 1 284 0
	movl	$0, -1048(%rbp)
	jmp	.L15
.L18:
	.loc 1 285 0
	movl	-1048(%rbp), %edx
	movq	%rdx, %rax
	addq	%rax, %rax
	addq	%rdx, %rax
	salq	$3, %rax
	addq	$EApiValues, %rax
	movl	(%rax), %eax
	leaq	-1052(%rbp), %rdx
	movq	%rdx, %rsi
	movl	%eax, %edi
	call	EApiBoardGetValue
	movl	%eax, -1044(%rbp)
	cmpl	$0, -1044(%rbp)
	jne	.L16
	.loc 1 287 0
	movl	-1048(%rbp), %edx
	movq	%rdx, %rax
	addq	%rax, %rax
	addq	%rdx, %rax
	salq	$3, %rax
	addq	$EApiValues+16, %rax
	movq	(%rax), %rax
	movl	-1052(%rbp), %ecx
	leaq	-1040(%rbp), %rsi
	movl	$1024, %edx
	movl	%ecx, %edi
	call	*%rax
	.loc 1 288 0
	movl	-1048(%rbp), %edx
	movq	%rdx, %rax
	addq	%rax, %rax
	addq	%rdx, %rax
	salq	$3, %rax
	addq	$EApiValues+8, %rax
	movq	(%rax), %rax
	leaq	-1040(%rbp), %rdx
	movq	%rax, %rsi
	movl	$.LC13, %edi
	movl	$0, %eax
	call	printf
	jmp	.L17
.L16:
	.loc 1 290 0
	leaq	-1040(%rbp), %rcx
	movl	-1044(%rbp), %eax
	movl	$1024, %edx
	movq	%rcx, %rsi
	movl	%eax, %edi
	call	EApiAHCreateErrorString
	.loc 1 291 0
	movl	-1048(%rbp), %edx
	movq	%rdx, %rax
	addq	%rax, %rax
	addq	%rdx, %rax
	salq	$3, %rax
	addq	$EApiValues+8, %rax
	movq	(%rax), %rax
	leaq	-1040(%rbp), %rdx
	movq	%rax, %rsi
	movl	$.LC13, %edi
	movl	$0, %eax
	call	printf
.L17:
	.loc 1 284 0 discriminator 2
	addl	$1, -1048(%rbp)
.L15:
	.loc 1 284 0 is_stmt 0 discriminator 1
	cmpl	$16, -1048(%rbp)
	jbe	.L18
	.loc 1 305 0 is_stmt 1
	nop
	.loc 1 306 0
	movq	-8(%rbp), %rax
	xorq	%fs:40, %rax
	je	.L20
	call	__stack_chk_fail
.L20:
	leave
	.cfi_def_cfa 7, 8
	ret
	.cfi_endproc
.LFE4:
	.size	EApiValidateValuesApi, .-EApiValidateValuesApi
	.globl	EApiI2CLLValidate
	.section	.rodata
	.align 32
	.type	EApiI2CLLValidate, @object
	.size	EApiI2CLLValidate, 560
EApiI2CLLValidate:
	.byte	-8
	.zero	7
	.quad	0
	.long	0
	.zero	4
	.quad	0
	.long	0
	.long	0
	.long	-257
	.long	-257
	.long	-257
	.zero	4
	.byte	-8
	.zero	7
	.quad	0
	.long	10
	.zero	4
	.quad	0
	.long	0
	.long	0
	.long	-257
	.long	-257
	.long	-257
	.zero	4
	.byte	-8
	.zero	7
	.quad	0
	.long	0
	.zero	4
	.quad	0
	.long	10
	.long	0
	.long	-257
	.long	-257
	.long	-257
	.zero	4
	.byte	-8
	.zero	7
	.quad	0
	.long	0
	.zero	4
	.quad	0
	.long	0
	.long	10
	.long	-257
	.long	-257
	.long	-257
	.zero	4
	.byte	-8
	.zero	7
	.quad	0
	.long	0
	.zero	4
	.quad	0
	.long	0
	.long	10
	.long	-257
	.long	-257
	.long	-257
	.zero	4
	.byte	-8
	.zero	7
	.quad	0
	.long	0
	.zero	4
	.quad	0
	.long	10
	.long	20
	.long	-257
	.long	-1537
	.long	-1537
	.zero	4
	.byte	-8
	.zero	7
	.quad	0
	.long	0
	.zero	4
	.quad	Buffer
	.long	10
	.long	20
	.long	-1025
	.long	-1537
	.long	-769
	.zero	4
	.byte	-8
	.zero	7
	.quad	Buffer
	.long	0
	.zero	4
	.quad	0
	.long	0
	.long	0
	.long	-257
	.long	-257
	.long	-257
	.zero	4
	.byte	-8
	.zero	7
	.quad	Buffer
	.long	10
	.zero	4
	.quad	0
	.long	0
	.long	0
	.long	-1025
	.long	-769
	.long	-769
	.zero	4
	.byte	-8
	.zero	7
	.quad	0
	.long	0
	.zero	4
	.quad	Buffer
	.long	1024
	.long	10
	.long	-1025
	.long	-769
	.long	-769
	.zero	4
	.globl	EApiI2CHLReadValidate
	.align 32
	.type	EApiI2CHLReadValidate, @object
	.size	EApiI2CHLReadValidate, 240
EApiI2CHLReadValidate:
	.long	248
	.long	0
	.quad	Buffer
	.long	1024
	.long	10
	.long	-1025
	.long	-769
	.long	-1025
	.zero	4
	.long	248
	.long	0
	.quad	0
	.long	1024
	.long	10
	.long	-257
	.long	-257
	.long	-257
	.zero	4
	.long	248
	.long	0
	.quad	Buffer
	.long	0
	.long	20
	.long	-257
	.long	-257
	.long	-257
	.zero	4
	.long	248
	.long	0
	.quad	Buffer
	.long	1024
	.long	0
	.long	-257
	.long	-257
	.long	-257
	.zero	4
	.long	248
	.long	0
	.quad	Buffer
	.long	16
	.long	20
	.long	-769
	.long	-1537
	.long	-1025
	.zero	4
	.long	248
	.long	0
	.quad	Buffer
	.long	1024
	.long	10
	.long	-1025
	.long	-769
	.long	-1025
	.zero	4
	.globl	EApiI2CHLWriteValidate
	.align 32
	.type	EApiI2CHLWriteValidate, @object
	.size	EApiI2CHLWriteValidate, 120
EApiI2CHLWriteValidate:
	.long	248
	.long	0
	.quad	Buffer
	.long	0
	.long	10
	.long	-1025
	.long	-769
	.long	-1025
	.zero	4
	.long	248
	.long	0
	.quad	0
	.long	0
	.long	10
	.long	-257
	.long	-257
	.long	-257
	.zero	4
	.long	248
	.long	0
	.quad	Buffer
	.long	0
	.long	0
	.long	-257
	.long	-257
	.long	-257
	.zero	4
	.globl	I2CMaxClk
	.bss
	.align 4
	.type	I2CMaxClk, @object
	.size	I2CMaxClk, 4
I2CMaxClk:
	.zero	4
	.globl	EApiI2CInterfaceValidate
	.section	.rodata
	.align 32
	.type	EApiI2CInterfaceValidate, @object
	.size	EApiI2CInterfaceValidate, 48
EApiI2CInterfaceValidate:
	.quad	I2CMaxClk
	.long	0
	.long	-769
	.long	-769
	.zero	4
	.quad	0
	.long	-257
	.long	-257
	.long	-257
	.zero	4
	.globl	I2CDevices
	.align 32
	.type	I2CDevices, @object
	.size	I2CDevices, 60
I2CDevices:
	.value	160
	.value	16
	.value	2
	.value	5
	.long	256
	.value	162
	.value	256
	.value	2
	.value	5
	.long	256
	.value	166
	.value	16
	.value	1
	.value	5
	.long	256
	.value	174
	.value	16
	.value	2
	.value	5
	.long	256
	.value	-3499
	.value	256
	.value	2
	.value	5
	.long	256
	.globl	EApiI2CBuses
.LC32:
	.string	"External I2C"
.LC33:
	.string	"LVDS 1 I2C/DDC"
.LC34:
	.string	"LVDS 2 I2C/DDC"
.LC35:
	.string	"Unsupported"
	.align 32
	.type	EApiI2CBuses, @object
	.size	EApiI2CBuses, 64
EApiI2CBuses:
	.long	0
	.zero	4
	.quad	.LC32
	.long	1
	.zero	4
	.quad	.LC33
	.long	2
	.zero	4
	.quad	.LC34
	.long	3840
	.zero	4
	.quad	.LC35
.LC36:
	.string	"%02X"
	.text
	.globl	printHex
	.type	printHex, @function
printHex:
.LFB5:
	.loc 1 398 0
	.cfi_startproc
	pushq	%rbp
	.cfi_def_cfa_offset 16
	.cfi_offset 6, -16
	movq	%rsp, %rbp
	.cfi_def_cfa_register 6
	subq	$32, %rsp
	movq	%rdi, -8(%rbp)
	movq	%rsi, -16(%rbp)
	movq	%rdx, -24(%rbp)
	.loc 1 399 0
	jmp	.L22
.L23:
	.loc 1 400 0
	movq	-16(%rbp), %rax
	movzbl	(%rax), %eax
	movzbl	%al, %edx
	movq	-8(%rbp), %rax
	movl	$.LC36, %esi
	movq	%rax, %rdi
	movl	$0, %eax
	call	fprintf
	.loc 1 401 0
	addq	$1, -16(%rbp)
.L22:
	.loc 1 399 0
	movq	-24(%rbp), %rax
	leaq	-1(%rax), %rdx
	movq	%rdx, -24(%rbp)
	testq	%rax, %rax
	jne	.L23
	.loc 1 403 0
	nop
	leave
	.cfi_def_cfa 7, 8
	ret
	.cfi_endproc
.LFE5:
	.size	printHex, .-printHex
	.section	.rodata
.LC37:
	.string	"%x  "
.LC38:
	.string	"Reyyyy in ke error e "
.LC39:
	.string	"Reyyyy that is wunderbar"
.LC40:
	.string	"Reyyyy that is an error"
	.text
	.globl	EApiValidateI2CApi
	.type	EApiValidateI2CApi, @function
EApiValidateI2CApi:
.LFB6:
	.loc 1 405 0
	.cfi_startproc
	pushq	%rbp
	.cfi_def_cfa_offset 16
	.cfi_offset 6, -16
	movq	%rsp, %rbp
	.cfi_def_cfa_register 6
	subq	$176, %rsp
	.loc 1 405 0
	movq	%fs:40, %rax
	movq	%rax, -8(%rbp)
	xorl	%eax, %eax
	.loc 1 415 0
	leaq	-80(%rbp), %rax
	movl	$64, %r9d
	movl	$64, %r8d
	movq	%rax, %rcx
	movl	$-2147483648, %edx
	movl	$80, %esi
	movl	$11, %edi
	call	EApiI2CReadTransfer
	movl	%eax, -136(%rbp)
	.loc 1 423 0
	cmpl	$0, -136(%rbp)
	jne	.L25
.LBB3:
	.loc 1 425 0
	movl	$0, -164(%rbp)
.LBB4:
	.loc 1 426 0
	movl	$0, -160(%rbp)
	jmp	.L26
.L29:
	.loc 1 427 0
	movl	-164(%rbp), %eax
	andl	$15, %eax
	testl	%eax, %eax
	jne	.L27
	.loc 1 428 0
	movl	$10, %edi
	call	putchar
	jmp	.L28
.L27:
	.loc 1 429 0
	movl	-164(%rbp), %eax
	andl	$7, %eax
	testl	%eax, %eax
	jne	.L28
	.loc 1 430 0
	movl	$32, %edi
	call	putchar
.L28:
	.loc 1 431 0 discriminator 2
	addl	$1, -164(%rbp)
	.loc 1 433 0 discriminator 2
	movl	-160(%rbp), %eax
	cltq
	movzbl	-80(%rbp,%rax), %eax
	movzbl	%al, %eax
	movl	%eax, %esi
	movl	$.LC37, %edi
	movl	$0, %eax
	call	printf
	.loc 1 426 0 discriminator 2
	addl	$1, -160(%rbp)
.L26:
	.loc 1 426 0 is_stmt 0 discriminator 1
	cmpl	$63, -160(%rbp)
	jle	.L29
.LBE4:
	.loc 1 436 0 is_stmt 1
	movl	$10, %edi
	call	putchar
.LBE3:
	jmp	.L30
.L25:
	.loc 1 439 0
	movl	$.LC38, %edi
	call	puts
.L30:
.LBB5:
	.loc 1 445 0
	movl	$0, -156(%rbp)
	jmp	.L31
.L36:
	.loc 1 446 0
	movl	-156(%rbp), %eax
	movzbl	%al, %eax
	leaq	-129(%rbp), %rdx
	movl	$1, %r9d
	movl	$1, %r8d
	movq	%rdx, %rcx
	movl	%eax, %edx
	movl	$39, %esi
	movl	$11, %edi
	call	EApiI2CReadTransfer
	movl	%eax, -136(%rbp)
	.loc 1 454 0
	cmpl	$0, -136(%rbp)
	jne	.L32
.LBB6:
	.loc 1 456 0
	movl	$0, -152(%rbp)
	jmp	.L33
.L34:
	.loc 1 457 0 discriminator 3
	movl	-152(%rbp), %eax
	cltq
	movzbl	-129(%rbp,%rax), %eax
	movzbl	%al, %eax
	movl	%eax, %esi
	movl	$.LC37, %edi
	movl	$0, %eax
	call	printf
	.loc 1 456 0 discriminator 3
	addl	$1, -152(%rbp)
.L33:
	.loc 1 456 0 is_stmt 0 discriminator 1
	cmpl	$0, -152(%rbp)
	jle	.L34
.LBE6:
	.loc 1 459 0 is_stmt 1
	movl	$10, %edi
	call	putchar
	jmp	.L35
.L32:
	.loc 1 462 0
	movl	$.LC38, %edi
	call	puts
.L35:
	.loc 1 445 0 discriminator 2
	addl	$1, -156(%rbp)
.L31:
	.loc 1 445 0 is_stmt 0 discriminator 1
	cmpl	$7, -156(%rbp)
	jle	.L36
.LBE5:
.LBB7:
	.loc 1 468 0 is_stmt 1
	movl	$0, -148(%rbp)
	jmp	.L37
.L38:
	.loc 1 469 0 discriminator 3
	movl	-148(%rbp), %eax
	movl	%eax, %edx
	movl	-148(%rbp), %eax
	cltq
	movb	%dl, -128(%rbp,%rax)
	.loc 1 468 0 discriminator 3
	addl	$1, -148(%rbp)
.L37:
	.loc 1 468 0 is_stmt 0 discriminator 1
	cmpl	$9, -148(%rbp)
	jle	.L38
.LBE7:
.LBB8:
	.loc 1 471 0 is_stmt 1
	movl	$0, -144(%rbp)
	jmp	.L39
.L42:
	.loc 1 477 0
	leaq	-128(%rbp), %rdx
	movl	-144(%rbp), %eax
	cltq
	addq	%rdx, %rax
	.loc 1 473 0
	movl	$1, %r8d
	movq	%rax, %rcx
	movl	$2, %edx
	movl	$39, %esi
	movl	$11, %edi
	call	EApiI2CWriteTransfer
	movl	%eax, -136(%rbp)
	.loc 1 480 0
	cmpl	$0, -136(%rbp)
	jne	.L40
	.loc 1 481 0
	movl	$.LC39, %edi
	call	puts
	jmp	.L41
.L40:
	.loc 1 483 0
	movl	$.LC40, %edi
	call	puts
.L41:
	.loc 1 485 0 discriminator 2
	movl	$5, %edi
	call	sleep
	.loc 1 471 0 discriminator 2
	addl	$1, -144(%rbp)
.L39:
	.loc 1 471 0 is_stmt 0 discriminator 1
	cmpl	$9, -144(%rbp)
	jle	.L42
.LBE8:
	.loc 1 493 0 is_stmt 1
	movb	$0, -112(%rbp)
	.loc 1 494 0
	movb	$51, -111(%rbp)
	.loc 1 495 0
	movb	$80, -110(%rbp)
	.loc 1 496 0
	movb	$16, -109(%rbp)
	.loc 1 497 0
	movb	$9, -108(%rbp)
	.loc 1 498 0
	movb	$116, -107(%rbp)
	.loc 1 499 0
	movb	$99, -106(%rbp)
	.loc 1 500 0
	movb	$111, -105(%rbp)
	.loc 1 501 0
	movb	$77, -104(%rbp)
	.loc 1 502 0
	movb	$48, -103(%rbp)
	.loc 1 503 0
	movb	$17, -102(%rbp)
	.loc 1 504 0
	movb	$-81, -101(%rbp)
	.loc 1 505 0
	movb	$0, -100(%rbp)
	.loc 1 506 0
	movb	$0, -99(%rbp)
	.loc 1 507 0
	movb	$0, -98(%rbp)
	.loc 1 509 0
	movb	$1, -97(%rbp)
	.loc 1 510 0
	movb	$6, -96(%rbp)
	.loc 1 511 0
	movb	$33, -95(%rbp)
	.loc 1 512 0
	movb	$-48, -94(%rbp)
	.loc 1 513 0
	movb	$0, -93(%rbp)
	.loc 1 514 0
	movb	$32, -92(%rbp)
	.loc 1 515 0
	movb	$2, -91(%rbp)
	.loc 1 516 0
	movb	$15, -90(%rbp)
	.loc 1 517 0
	movb	$-32, -89(%rbp)
	.loc 1 518 0
	movb	$0, -88(%rbp)
	.loc 1 519 0
	movb	$1, -87(%rbp)
	.loc 1 520 0
	movb	$2, -86(%rbp)
	.loc 1 521 0
	movb	$3, -85(%rbp)
	.loc 1 522 0
	movb	$4, -84(%rbp)
	.loc 1 523 0
	movb	$0, -83(%rbp)
	.loc 1 524 0
	movb	$8, -82(%rbp)
	.loc 1 525 0
	movb	$0, -81(%rbp)
.LBB9:
	.loc 1 530 0
	movl	$0, -140(%rbp)
	jmp	.L43
.L46:
	.loc 1 536 0
	leaq	-112(%rbp), %rdx
	movl	-140(%rbp), %eax
	cltq
	addq	%rax, %rdx
	.loc 1 532 0
	movl	-140(%rbp), %eax
	movzwl	%ax, %eax
	orl	$-2147483648, %eax
	movl	$1, %r8d
	movq	%rdx, %rcx
	movl	%eax, %edx
	movl	$80, %esi
	movl	$11, %edi
	call	EApiI2CWriteTransfer
	movl	%eax, -136(%rbp)
	.loc 1 539 0
	cmpl	$0, -136(%rbp)
	jne	.L44
	.loc 1 540 0
	movl	$.LC39, %edi
	call	puts
	jmp	.L45
.L44:
	.loc 1 542 0
	movl	$.LC40, %edi
	call	puts
.L45:
	.loc 1 543 0 discriminator 2
	movl	$1, %edi
	call	sleep
	.loc 1 530 0 discriminator 2
	addl	$1, -140(%rbp)
.L43:
	.loc 1 530 0 is_stmt 0 discriminator 1
	cmpl	$31, -140(%rbp)
	jle	.L46
.LBE9:
	.loc 1 546 0 is_stmt 1
	nop
	.loc 1 610 0
	movq	-8(%rbp), %rax
	xorq	%fs:40, %rax
	je	.L48
	call	__stack_chk_fail
.L48:
	leave
	.cfi_def_cfa 7, 8
	ret
	.cfi_endproc
.LFE6:
	.size	EApiValidateI2CApi, .-EApiValidateI2CApi
	.globl	EApiStorageDevices
	.section	.rodata
.LC41:
	.string	"Standard Storage"
.LC42:
	.string	"Dummy PICMG Storage"
	.align 32
	.type	EApiStorageDevices, @object
	.size	EApiStorageDevices, 72
EApiStorageDevices:
	.long	0
	.zero	4
	.quad	.LC41
	.long	32
	.zero	4
	.long	-93057024
	.zero	4
	.quad	.LC42
	.long	128
	.zero	4
	.long	3840
	.zero	4
	.quad	.LC35
	.long	32
	.zero	4
	.globl	StorageValidate
	.align 32
	.type	StorageValidate, @object
	.size	StorageValidate, 240
StorageValidate:
	.long	0
	.zero	4
	.quad	Buffer
	.long	1024
	.long	10
	.long	0
	.long	-769
	.long	-769
	.zero	4
	.long	0
	.zero	4
	.quad	0
	.long	1024
	.long	100
	.long	-257
	.long	-257
	.long	-257
	.zero	4
	.long	33
	.zero	4
	.quad	Buffer
	.long	0
	.long	20
	.long	-257
	.long	-259
	.long	-769
	.zero	4
	.long	33
	.zero	4
	.quad	Buffer
	.long	16
	.long	20
	.long	-259
	.long	0
	.long	-769
	.zero	4
	.long	33
	.zero	4
	.quad	Buffer
	.long	1024
	.long	0
	.long	-257
	.long	-257
	.long	-769
	.zero	4
	.long	1
	.zero	4
	.quad	Buffer
	.long	1024
	.long	10
	.long	0
	.long	-769
	.long	-769
	.zero	4
	.comm	StorageSize,4,4
	.comm	BlockLength,4,4
	.globl	StorageCapValidate
	.align 32
	.type	StorageCapValidate, @object
	.size	StorageCapValidate, 128
StorageCapValidate:
	.quad	StorageSize
	.quad	BlockLength
	.long	0
	.long	-769
	.long	-769
	.zero	4
	.quad	StorageSize
	.quad	0
	.long	0
	.long	-769
	.long	-769
	.zero	4
	.quad	0
	.quad	BlockLength
	.long	0
	.long	-769
	.long	-769
	.zero	4
	.quad	0
	.quad	0
	.long	-257
	.long	-257
	.long	-257
	.zero	4
.LC43:
	.string	"%-30s : "
.LC44:
	.string	"%-30s : %02X %s\n"
.LC45:
	.string	"EApiStorageAreaRead"
	.align 8
.LC46:
	.string	"/development/eAPI/eapidk-code/apps/EApiValidateAPI/linux/../EApiValidateAPI.c"
.LC47:
	.string	"   %2d    %2d    [%s]\n"
.LC48:
	.string	"EApiStorageAreaWrite"
.LC49:
	.string	"EApiStorageCap"
	.text
	.globl	EApiValidateStorageApi
	.type	EApiValidateStorageApi, @function
EApiValidateStorageApi:
.LFB7:
	.loc 1 661 0
	.cfi_startproc
	pushq	%rbp
	.cfi_def_cfa_offset 16
	.cfi_offset 6, -16
	movq	%rsp, %rbp
	.cfi_def_cfa_register 6
	subq	$1056, %rsp
	.loc 1 661 0
	movq	%fs:40, %rax
	movq	%rax, -8(%rbp)
	xorl	%eax, %eax
	.loc 1 666 0
	movl	$0, -1052(%rbp)
	jmp	.L50
.L55:
	.loc 1 667 0
	movl	-1052(%rbp), %edx
	movq	%rdx, %rax
	addq	%rax, %rax
	addq	%rdx, %rax
	salq	$3, %rax
	addq	$EApiStorageDevices+16, %rax
	movl	(%rax), %ecx
	movl	-1052(%rbp), %edx
	movq	%rdx, %rax
	addq	%rax, %rax
	addq	%rdx, %rax
	salq	$3, %rax
	addq	$EApiStorageDevices, %rax
	movl	(%rax), %eax
	leaq	-1040(%rbp), %rdx
	movl	%ecx, %r8d
	movl	$1024, %ecx
	movl	$0, %esi
	movl	%eax, %edi
	call	EApiStorageAreaRead
	movl	%eax, -1044(%rbp)
	.loc 1 674 0
	cmpl	$0, -1044(%rbp)
	jne	.L51
	.loc 1 676 0
	movl	-1052(%rbp), %edx
	movq	%rdx, %rax
	addq	%rax, %rax
	addq	%rdx, %rax
	salq	$3, %rax
	addq	$EApiStorageDevices+8, %rax
	movq	(%rax), %rax
	movq	%rax, %rsi
	movl	$.LC43, %edi
	movl	$0, %eax
	call	printf
	.loc 1 680 0
	movq	stdout(%rip), %rax
	leaq	-1040(%rbp), %rcx
	movl	$16, %edx
	movq	%rcx, %rsi
	movq	%rax, %rdi
	call	printHex
	.loc 1 681 0
	movl	$10, %edi
	call	putchar
	.loc 1 687 0
	movl	-1052(%rbp), %edx
	movq	%rdx, %rax
	addq	%rax, %rax
	addq	%rdx, %rax
	salq	$3, %rax
	addq	$EApiStorageDevices+16, %rax
	movl	(%rax), %eax
	.loc 1 683 0
	movl	$-858993459, %edx
	mull	%edx
	movl	%edx, %ecx
	shrl	$2, %ecx
	movl	-1052(%rbp), %edx
	movq	%rdx, %rax
	addq	%rax, %rax
	addq	%rdx, %rax
	salq	$3, %rax
	addq	$EApiStorageDevices, %rax
	movl	(%rax), %eax
	leaq	-1040(%rbp), %rdx
	movl	$13, %esi
	movl	%eax, %edi
	call	EApiAHWriteStorage
	movl	%eax, -1044(%rbp)
	.loc 1 689 0
	cmpl	$0, -1044(%rbp)
	jne	.L52
	.loc 1 691 0
	movl	-1052(%rbp), %edx
	movq	%rdx, %rax
	addq	%rax, %rax
	addq	%rdx, %rax
	salq	$3, %rax
	addq	$EApiStorageDevices+8, %rax
	movq	(%rax), %rax
	movq	%rax, %rsi
	movl	$.LC43, %edi
	movl	$0, %eax
	call	printf
	.loc 1 695 0
	movq	stdout(%rip), %rax
	leaq	-1040(%rbp), %rcx
	movl	$16, %edx
	movq	%rcx, %rsi
	movq	%rax, %rdi
	call	printHex
	.loc 1 696 0
	movl	$10, %edi
	call	putchar
	jmp	.L54
.L52:
	.loc 1 700 0
	leaq	-1040(%rbp), %rcx
	movl	-1044(%rbp), %eax
	movl	$1024, %edx
	movq	%rcx, %rsi
	movl	%eax, %edi
	call	EApiAHCreateErrorString
	.loc 1 704 0
	movl	-1052(%rbp), %edx
	movq	%rdx, %rax
	addq	%rax, %rax
	addq	%rdx, %rax
	salq	$2, %rax
	addq	$I2CDevices, %rax
	movzwl	(%rax), %eax
	.loc 1 701 0
	movzwl	%ax, %esi
	movl	-1052(%rbp), %edx
	movq	%rdx, %rax
	addq	%rax, %rax
	addq	%rdx, %rax
	salq	$3, %rax
	addq	$EApiStorageDevices+8, %rax
	movq	(%rax), %rax
	leaq	-1040(%rbp), %rdx
	movq	%rdx, %rcx
	movl	%esi, %edx
	movq	%rax, %rsi
	movl	$.LC44, %edi
	movl	$0, %eax
	call	printf
	jmp	.L54
.L51:
	.loc 1 712 0
	leaq	-1040(%rbp), %rcx
	movl	-1044(%rbp), %eax
	movl	$1024, %edx
	movq	%rcx, %rsi
	movl	%eax, %edi
	call	EApiAHCreateErrorString
	.loc 1 713 0
	movl	-1052(%rbp), %edx
	movq	%rdx, %rax
	addq	%rax, %rax
	addq	%rdx, %rax
	salq	$3, %rax
	addq	$EApiStorageDevices+8, %rax
	movq	(%rax), %rax
	leaq	-1040(%rbp), %rdx
	movq	%rax, %rsi
	movl	$.LC13, %edi
	movl	$0, %eax
	call	printf
.L54:
	.loc 1 666 0 discriminator 2
	addl	$1, -1052(%rbp)
.L50:
	.loc 1 666 0 is_stmt 0 discriminator 1
	cmpl	$2, -1052(%rbp)
	jbe	.L55
	.loc 1 719 0 is_stmt 1
	movl	$0, -1052(%rbp)
	jmp	.L56
.L65:
	.loc 1 721 0
	movl	$0, -1048(%rbp)
	jmp	.L57
.L64:
	.loc 1 723 0
	movl	-1048(%rbp), %edx
	movq	%rdx, %rax
	salq	$2, %rax
	addq	%rdx, %rax
	salq	$3, %rax
	addq	$StorageValidate+20, %rax
	movl	(%rax), %r8d
	movl	-1048(%rbp), %edx
	movq	%rdx, %rax
	salq	$2, %rax
	addq	%rdx, %rax
	salq	$3, %rax
	addq	$StorageValidate+16, %rax
	movl	(%rax), %ecx
	movl	-1048(%rbp), %edx
	movq	%rdx, %rax
	salq	$2, %rax
	addq	%rdx, %rax
	salq	$3, %rax
	addq	$StorageValidate+8, %rax
	movq	(%rax), %rdi
	movl	-1048(%rbp), %edx
	movq	%rdx, %rax
	salq	$2, %rax
	addq	%rdx, %rax
	salq	$3, %rax
	addq	$StorageValidate, %rax
	movl	(%rax), %esi
	movl	-1052(%rbp), %eax
	movq	%rdi, %rdx
	movl	%eax, %edi
	call	EApiStorageAreaRead
	movl	%eax, -1044(%rbp)
	.loc 1 730 0
	movl	-1048(%rbp), %edx
	movq	%rdx, %rax
	salq	$2, %rax
	addq	%rdx, %rax
	salq	$3, %rax
	addq	$StorageValidate+24, %rax
	movl	(%rax), %eax
	cmpl	-1044(%rbp), %eax
	je	.L58
	.loc 1 730 0 is_stmt 0 discriminator 2
	movl	-1048(%rbp), %edx
	movq	%rdx, %rax
	salq	$2, %rax
	addq	%rdx, %rax
	salq	$3, %rax
	addq	$StorageValidate+28, %rax
	movl	(%rax), %eax
	cmpl	-1044(%rbp), %eax
	je	.L58
	.loc 1 730 0 discriminator 4
	movl	-1048(%rbp), %edx
	movq	%rdx, %rax
	salq	$2, %rax
	addq	%rdx, %rax
	salq	$3, %rax
	addq	$StorageValidate+32, %rax
	movl	(%rax), %eax
	cmpl	-1044(%rbp), %eax
	jne	.L59
.L58:
	.loc 1 730 0 discriminator 5
	movl	$1, %eax
	jmp	.L60
.L59:
	.loc 1 730 0 discriminator 6
	movl	$0, %eax
.L60:
	.loc 1 730 0 discriminator 8
	cltq
	movq	FailPass(,%rax,8), %rdx
	movq	LogStream(%rip), %rax
	movl	-1044(%rbp), %ecx
	pushq	%rdx
	movl	-1048(%rbp), %edx
	pushq	%rdx
	movl	-1052(%rbp), %edx
	pushq	%rdx
	pushq	$.LC47
	movl	%ecx, %r9d
	movl	$730, %r8d
	movl	$.LC45, %ecx
	movl	$.LC46, %edx
	movl	$76, %esi
	movq	%rax, %rdi
	movl	$0, %eax
	call	siFFormattedMessage_SC
	addq	$32, %rsp
	.loc 1 732 0 is_stmt 1 discriminator 8
	movl	-1048(%rbp), %edx
	movq	%rdx, %rax
	salq	$2, %rax
	addq	%rdx, %rax
	salq	$3, %rax
	addq	$StorageValidate+20, %rax
	movl	(%rax), %ecx
	movl	-1048(%rbp), %edx
	movq	%rdx, %rax
	salq	$2, %rax
	addq	%rdx, %rax
	salq	$3, %rax
	addq	$StorageValidate+8, %rax
	movq	(%rax), %rdi
	movl	-1048(%rbp), %edx
	movq	%rdx, %rax
	salq	$2, %rax
	addq	%rdx, %rax
	salq	$3, %rax
	addq	$StorageValidate, %rax
	movl	(%rax), %esi
	movl	-1052(%rbp), %eax
	movq	%rdi, %rdx
	movl	%eax, %edi
	call	EApiStorageAreaWrite
	movl	%eax, -1044(%rbp)
	.loc 1 738 0 discriminator 8
	movl	-1048(%rbp), %edx
	movq	%rdx, %rax
	salq	$2, %rax
	addq	%rdx, %rax
	salq	$3, %rax
	addq	$StorageValidate+24, %rax
	movl	(%rax), %eax
	cmpl	-1044(%rbp), %eax
	je	.L61
	.loc 1 738 0 is_stmt 0 discriminator 2
	movl	-1048(%rbp), %edx
	movq	%rdx, %rax
	salq	$2, %rax
	addq	%rdx, %rax
	salq	$3, %rax
	addq	$StorageValidate+28, %rax
	movl	(%rax), %eax
	cmpl	-1044(%rbp), %eax
	je	.L61
	.loc 1 738 0 discriminator 4
	movl	-1048(%rbp), %edx
	movq	%rdx, %rax
	salq	$2, %rax
	addq	%rdx, %rax
	salq	$3, %rax
	addq	$StorageValidate+32, %rax
	movl	(%rax), %eax
	cmpl	-1044(%rbp), %eax
	jne	.L62
.L61:
	.loc 1 738 0 discriminator 5
	movl	$1, %eax
	jmp	.L63
.L62:
	.loc 1 738 0 discriminator 6
	movl	$0, %eax
.L63:
	.loc 1 738 0 discriminator 8
	cltq
	movq	FailPass(,%rax,8), %rdx
	movq	LogStream(%rip), %rax
	movl	-1044(%rbp), %ecx
	pushq	%rdx
	movl	-1048(%rbp), %edx
	pushq	%rdx
	movl	-1052(%rbp), %edx
	pushq	%rdx
	pushq	$.LC47
	movl	%ecx, %r9d
	movl	$738, %r8d
	movl	$.LC48, %ecx
	movl	$.LC46, %edx
	movl	$76, %esi
	movq	%rax, %rdi
	movl	$0, %eax
	call	siFFormattedMessage_SC
	addq	$32, %rsp
	.loc 1 721 0 is_stmt 1 discriminator 8
	addl	$1, -1048(%rbp)
.L57:
	.loc 1 721 0 is_stmt 0 discriminator 2
	cmpl	$5, -1048(%rbp)
	jbe	.L64
	.loc 1 719 0 is_stmt 1 discriminator 2
	addl	$1, -1052(%rbp)
.L56:
	.loc 1 719 0 is_stmt 0 discriminator 1
	cmpl	$9, -1052(%rbp)
	jbe	.L65
	.loc 1 742 0 is_stmt 1
	movl	$0, -1052(%rbp)
	jmp	.L66
.L72:
	.loc 1 744 0
	movl	$0, -1048(%rbp)
	jmp	.L67
.L71:
	.loc 1 746 0
	movl	-1048(%rbp), %eax
	salq	$5, %rax
	addq	$StorageCapValidate+8, %rax
	movq	(%rax), %rdx
	movl	-1048(%rbp), %eax
	salq	$5, %rax
	addq	$StorageCapValidate, %rax
	movq	(%rax), %rcx
	movl	-1052(%rbp), %eax
	movq	%rcx, %rsi
	movl	%eax, %edi
	call	EApiStorageCap
	movl	%eax, -1044(%rbp)
	.loc 1 751 0
	movl	-1048(%rbp), %eax
	salq	$5, %rax
	addq	$StorageCapValidate+16, %rax
	movl	(%rax), %eax
	cmpl	-1044(%rbp), %eax
	je	.L68
	.loc 1 751 0 is_stmt 0 discriminator 2
	movl	-1048(%rbp), %eax
	salq	$5, %rax
	addq	$StorageCapValidate+20, %rax
	movl	(%rax), %eax
	cmpl	-1044(%rbp), %eax
	je	.L68
	.loc 1 751 0 discriminator 4
	movl	-1048(%rbp), %eax
	salq	$5, %rax
	addq	$StorageCapValidate+24, %rax
	movl	(%rax), %eax
	cmpl	-1044(%rbp), %eax
	jne	.L69
.L68:
	.loc 1 751 0 discriminator 5
	movl	$1, %eax
	jmp	.L70
.L69:
	.loc 1 751 0 discriminator 6
	movl	$0, %eax
.L70:
	.loc 1 751 0 discriminator 8
	cltq
	movq	FailPass(,%rax,8), %rdx
	movq	LogStream(%rip), %rax
	movl	-1044(%rbp), %ecx
	pushq	%rdx
	movl	-1048(%rbp), %edx
	pushq	%rdx
	movl	-1052(%rbp), %edx
	pushq	%rdx
	pushq	$.LC47
	movl	%ecx, %r9d
	movl	$751, %r8d
	movl	$.LC49, %ecx
	movl	$.LC46, %edx
	movl	$76, %esi
	movq	%rax, %rdi
	movl	$0, %eax
	call	siFFormattedMessage_SC
	addq	$32, %rsp
	.loc 1 744 0 is_stmt 1 discriminator 8
	addl	$1, -1048(%rbp)
.L67:
	.loc 1 744 0 is_stmt 0 discriminator 2
	cmpl	$3, -1048(%rbp)
	jbe	.L71
	.loc 1 742 0 is_stmt 1 discriminator 2
	addl	$1, -1052(%rbp)
.L66:
	.loc 1 742 0 is_stmt 0 discriminator 1
	cmpl	$9, -1052(%rbp)
	jbe	.L72
	.loc 1 754 0 is_stmt 1
	nop
	.loc 1 755 0
	movq	-8(%rbp), %rax
	xorq	%fs:40, %rax
	je	.L74
	call	__stack_chk_fail
.L74:
	leave
	.cfi_def_cfa 7, 8
	ret
	.cfi_endproc
.LFE7:
	.size	EApiValidateStorageApi, .-EApiValidateStorageApi
	.comm	GpioInputs,4,4
	.comm	GpioOutputs,4,4
	.globl	EApiGpioterfaceValidate
	.section	.rodata
	.align 32
	.type	EApiGpioterfaceValidate, @object
	.size	EApiGpioterfaceValidate, 128
EApiGpioterfaceValidate:
	.quad	GpioInputs
	.quad	GpioOutputs
	.long	0
	.long	-769
	.long	-769
	.zero	4
	.quad	GpioInputs
	.quad	0
	.long	0
	.long	-769
	.long	-769
	.zero	4
	.quad	0
	.quad	GpioOutputs
	.long	0
	.long	-769
	.long	-769
	.zero	4
	.quad	0
	.quad	0
	.long	-257
	.long	-257
	.long	-257
	.zero	4
	.globl	EApiGpioDevices
.LC50:
	.string	"GPIO Bank0"
.LC51:
	.string	"GPIO GPIO0"
.LC52:
	.string	"GPIO GPIO1"
.LC53:
	.string	"GPIO GPIO2"
.LC54:
	.string	"GPIO GPIO3"
.LC55:
	.string	"GPIO GPIO4"
.LC56:
	.string	"GPIO GPIO5"
.LC57:
	.string	"GPIO GPIO6"
.LC58:
	.string	"GPIO GPIO7"
.LC59:
	.string	"GPIO GPIO8"
.LC60:
	.string	"GPIO GPIO9"
	.align 32
	.type	EApiGpioDevices, @object
	.size	EApiGpioDevices, 192
EApiGpioDevices:
	.long	65536
	.zero	4
	.quad	.LC50
	.long	0
	.zero	4
	.quad	.LC51
	.long	1
	.zero	4
	.quad	.LC52
	.long	2
	.zero	4
	.quad	.LC53
	.long	3
	.zero	4
	.quad	.LC54
	.long	4
	.zero	4
	.quad	.LC55
	.long	5
	.zero	4
	.quad	.LC56
	.long	6
	.zero	4
	.quad	.LC57
	.long	7
	.zero	4
	.quad	.LC58
	.long	8
	.zero	4
	.quad	.LC59
	.long	9
	.zero	4
	.quad	.LC60
	.long	3840
	.zero	4
	.quad	.LC35
.LC61:
	.string	"EApiGPIOGetDirectionCaps"
.LC62:
	.string	"%-15s %-25s : %s\n"
	.align 8
.LC63:
	.string	"%-15s %-25s : Inputs   =%08X Outputs=%08X\n"
.LC64:
	.string	"EApiGPIOGetDirection"
.LC65:
	.string	"%-15s %-25s : Direction=%08X\n"
.LC66:
	.string	"EApiGPIOGetLevel"
.LC67:
	.string	"%-15s %-25s : Level    =%08X\n"
.LC68:
	.string	"EApiGPIOSetDirection"
.LC69:
	.string	"EApiGPIOSetLevel"
	.text
	.globl	EApiValidateGPIOApi
	.type	EApiValidateGPIOApi, @function
EApiValidateGPIOApi:
.LFB8:
	.loc 1 800 0
	.cfi_startproc
	pushq	%rbp
	.cfi_def_cfa_offset 16
	.cfi_offset 6, -16
	movq	%rsp, %rbp
	.cfi_def_cfa_register 6
	subq	$1072, %rsp
	.loc 1 800 0
	movq	%fs:40, %rax
	movq	%rax, -8(%rbp)
	xorl	%eax, %eax
	.loc 1 808 0
	movl	$0, -1052(%rbp)
	jmp	.L76
.L85:
	.loc 1 810 0
	movl	-1052(%rbp), %eax
	salq	$4, %rax
	addq	$EApiGpioDevices, %rax
	movl	(%rax), %eax
	leaq	-1056(%rbp), %rdx
	leaq	-1060(%rbp), %rcx
	movq	%rcx, %rsi
	movl	%eax, %edi
	call	EApiGPIOGetDirectionCaps
	movl	%eax, -1044(%rbp)
	.loc 1 811 0
	cmpl	$0, -1044(%rbp)
	je	.L77
	.loc 1 813 0
	leaq	-1040(%rbp), %rcx
	movl	-1044(%rbp), %eax
	movl	$1024, %edx
	movq	%rcx, %rsi
	movl	%eax, %edi
	call	EApiAHCreateErrorString
	.loc 1 814 0
	movl	-1052(%rbp), %eax
	salq	$4, %rax
	addq	$EApiGpioDevices+8, %rax
	movq	(%rax), %rax
	leaq	-1040(%rbp), %rdx
	movq	%rdx, %rcx
	movl	$.LC61, %edx
	movq	%rax, %rsi
	movl	$.LC62, %edi
	movl	$0, %eax
	call	printf
	.loc 1 820 0
	jmp	.L78
.L77:
	.loc 1 822 0
	movl	-1056(%rbp), %ecx
	movl	-1060(%rbp), %edx
	movl	-1052(%rbp), %eax
	salq	$4, %rax
	addq	$EApiGpioDevices+8, %rax
	movq	(%rax), %rax
	movl	%ecx, %r8d
	movl	%edx, %ecx
	movl	$.LC61, %edx
	movq	%rax, %rsi
	movl	$.LC63, %edi
	movl	$0, %eax
	call	printf
	.loc 1 829 0
	movl	-1060(%rbp), %edx
	movl	-1056(%rbp), %eax
	movl	%edx, %ecx
	orl	%eax, %ecx
	movl	-1052(%rbp), %eax
	salq	$4, %rax
	addq	$EApiGpioDevices, %rax
	movl	(%rax), %eax
	leaq	-1068(%rbp), %rdx
	movl	%ecx, %esi
	movl	%eax, %edi
	call	EApiGPIOGetDirection
	movl	%eax, -1044(%rbp)
	.loc 1 830 0
	cmpl	$0, -1044(%rbp)
	je	.L79
	.loc 1 832 0
	leaq	-1040(%rbp), %rcx
	movl	-1044(%rbp), %eax
	movl	$1024, %edx
	movq	%rcx, %rsi
	movl	%eax, %edi
	call	EApiAHCreateErrorString
	.loc 1 833 0
	movl	-1052(%rbp), %eax
	salq	$4, %rax
	addq	$EApiGpioDevices+8, %rax
	movq	(%rax), %rax
	leaq	-1040(%rbp), %rdx
	movq	%rdx, %rcx
	movl	$.LC64, %edx
	movq	%rax, %rsi
	movl	$.LC62, %edi
	movl	$0, %eax
	call	printf
	.loc 1 839 0
	jmp	.L78
.L79:
	.loc 1 841 0
	movl	-1068(%rbp), %edx
	movl	-1052(%rbp), %eax
	salq	$4, %rax
	addq	$EApiGpioDevices+8, %rax
	movq	(%rax), %rax
	movl	%edx, %ecx
	movl	$.LC64, %edx
	movq	%rax, %rsi
	movl	$.LC65, %edi
	movl	$0, %eax
	call	printf
	.loc 1 847 0
	movl	-1060(%rbp), %edx
	movl	-1056(%rbp), %eax
	movl	%edx, %ecx
	orl	%eax, %ecx
	movl	-1052(%rbp), %eax
	salq	$4, %rax
	addq	$EApiGpioDevices, %rax
	movl	(%rax), %eax
	leaq	-1064(%rbp), %rdx
	movl	%ecx, %esi
	movl	%eax, %edi
	call	EApiGPIOGetLevel
	movl	%eax, -1044(%rbp)
	.loc 1 848 0
	cmpl	$0, -1044(%rbp)
	je	.L80
	.loc 1 850 0
	leaq	-1040(%rbp), %rcx
	movl	-1044(%rbp), %eax
	movl	$1024, %edx
	movq	%rcx, %rsi
	movl	%eax, %edi
	call	EApiAHCreateErrorString
	.loc 1 851 0
	movl	-1052(%rbp), %eax
	salq	$4, %rax
	addq	$EApiGpioDevices+8, %rax
	movq	(%rax), %rax
	leaq	-1040(%rbp), %rdx
	movq	%rdx, %rcx
	movl	$.LC66, %edx
	movq	%rax, %rsi
	movl	$.LC62, %edi
	movl	$0, %eax
	call	printf
	.loc 1 857 0
	jmp	.L78
.L80:
	.loc 1 859 0
	movl	-1064(%rbp), %edx
	movl	-1052(%rbp), %eax
	salq	$4, %rax
	addq	$EApiGpioDevices+8, %rax
	movq	(%rax), %rax
	movl	%edx, %ecx
	movl	$.LC66, %edx
	movq	%rax, %rsi
	movl	$.LC67, %edi
	movl	$0, %eax
	call	printf
	.loc 1 865 0
	movl	-1060(%rbp), %eax
	movzwl	%ax, %edx
	movl	-1060(%rbp), %ecx
	movl	-1056(%rbp), %eax
	orl	%eax, %ecx
	movl	-1052(%rbp), %eax
	salq	$4, %rax
	addq	$EApiGpioDevices, %rax
	movl	(%rax), %eax
	movl	%ecx, %esi
	movl	%eax, %edi
	call	EApiGPIOSetDirection
	movl	%eax, -1044(%rbp)
	.loc 1 870 0
	cmpl	$0, -1044(%rbp)
	je	.L81
	.loc 1 872 0
	leaq	-1040(%rbp), %rcx
	movl	-1044(%rbp), %eax
	movl	$1024, %edx
	movq	%rcx, %rsi
	movl	%eax, %edi
	call	EApiAHCreateErrorString
	.loc 1 873 0
	movl	-1052(%rbp), %eax
	salq	$4, %rax
	addq	$EApiGpioDevices+8, %rax
	movq	(%rax), %rax
	leaq	-1040(%rbp), %rdx
	movq	%rdx, %rcx
	movl	$.LC68, %edx
	movq	%rax, %rsi
	movl	$.LC62, %edi
	movl	$0, %eax
	call	printf
	.loc 1 879 0
	jmp	.L78
.L81:
	.loc 1 881 0
	movl	-1060(%rbp), %edx
	movl	-1056(%rbp), %eax
	movl	%edx, %ecx
	orl	%eax, %ecx
	movl	-1052(%rbp), %eax
	salq	$4, %rax
	addq	$EApiGpioDevices, %rax
	movl	(%rax), %eax
	leaq	-1068(%rbp), %rdx
	movl	%ecx, %esi
	movl	%eax, %edi
	call	EApiGPIOGetDirection
	movl	%eax, -1044(%rbp)
	.loc 1 882 0
	cmpl	$0, -1044(%rbp)
	je	.L82
	.loc 1 884 0
	leaq	-1040(%rbp), %rcx
	movl	-1044(%rbp), %eax
	movl	$1024, %edx
	movq	%rcx, %rsi
	movl	%eax, %edi
	call	EApiAHCreateErrorString
	.loc 1 885 0
	movl	-1052(%rbp), %eax
	salq	$4, %rax
	addq	$EApiGpioDevices+8, %rax
	movq	(%rax), %rax
	leaq	-1040(%rbp), %rdx
	movq	%rdx, %rcx
	movl	$.LC64, %edx
	movq	%rax, %rsi
	movl	$.LC62, %edi
	movl	$0, %eax
	call	printf
	.loc 1 891 0
	jmp	.L78
.L82:
	.loc 1 893 0
	movl	-1068(%rbp), %edx
	movl	-1052(%rbp), %eax
	salq	$4, %rax
	addq	$EApiGpioDevices+8, %rax
	movq	(%rax), %rax
	movl	%edx, %ecx
	movl	$.LC64, %edx
	movq	%rax, %rsi
	movl	$.LC65, %edi
	movl	$0, %eax
	call	printf
	.loc 1 899 0
	movl	-1056(%rbp), %edx
	movl	-1056(%rbp), %ecx
	movl	-1052(%rbp), %eax
	salq	$4, %rax
	addq	$EApiGpioDevices, %rax
	movl	(%rax), %eax
	movl	%ecx, %esi
	movl	%eax, %edi
	call	EApiGPIOSetLevel
	movl	%eax, -1044(%rbp)
	.loc 1 900 0
	cmpl	$0, -1044(%rbp)
	je	.L83
	.loc 1 902 0
	leaq	-1040(%rbp), %rcx
	movl	-1044(%rbp), %eax
	movl	$1024, %edx
	movq	%rcx, %rsi
	movl	%eax, %edi
	call	EApiAHCreateErrorString
	.loc 1 903 0
	movl	-1052(%rbp), %eax
	salq	$4, %rax
	addq	$EApiGpioDevices+8, %rax
	movq	(%rax), %rax
	leaq	-1040(%rbp), %rdx
	movq	%rdx, %rcx
	movl	$.LC69, %edx
	movq	%rax, %rsi
	movl	$.LC62, %edi
	movl	$0, %eax
	call	printf
	.loc 1 909 0
	jmp	.L78
.L83:
	.loc 1 911 0
	movl	-1060(%rbp), %edx
	movl	-1056(%rbp), %eax
	movl	%edx, %ecx
	orl	%eax, %ecx
	movl	-1052(%rbp), %eax
	salq	$4, %rax
	addq	$EApiGpioDevices, %rax
	movl	(%rax), %eax
	leaq	-1064(%rbp), %rdx
	movl	%ecx, %esi
	movl	%eax, %edi
	call	EApiGPIOGetLevel
	movl	%eax, -1044(%rbp)
	.loc 1 912 0
	cmpl	$0, -1044(%rbp)
	je	.L84
	.loc 1 914 0
	leaq	-1040(%rbp), %rcx
	movl	-1044(%rbp), %eax
	movl	$1024, %edx
	movq	%rcx, %rsi
	movl	%eax, %edi
	call	EApiAHCreateErrorString
	.loc 1 915 0
	movl	-1052(%rbp), %eax
	salq	$4, %rax
	addq	$EApiGpioDevices+8, %rax
	movq	(%rax), %rax
	leaq	-1040(%rbp), %rdx
	movq	%rdx, %rcx
	movl	$.LC64, %edx
	movq	%rax, %rsi
	movl	$.LC62, %edi
	movl	$0, %eax
	call	printf
	.loc 1 921 0
	jmp	.L78
.L84:
	.loc 1 923 0
	movl	-1064(%rbp), %edx
	movl	-1052(%rbp), %eax
	salq	$4, %rax
	addq	$EApiGpioDevices+8, %rax
	movq	(%rax), %rax
	movl	%edx, %ecx
	movl	$.LC69, %edx
	movq	%rax, %rsi
	movl	$.LC67, %edi
	movl	$0, %eax
	call	printf
.L78:
	.loc 1 808 0 discriminator 2
	addl	$1, -1052(%rbp)
.L76:
	.loc 1 808 0 is_stmt 0 discriminator 1
	cmpl	$11, -1052(%rbp)
	jbe	.L85
	.loc 1 929 0 is_stmt 1
	movl	$0, -1052(%rbp)
	jmp	.L86
.L92:
	.loc 1 931 0
	movl	$0, -1048(%rbp)
	jmp	.L87
.L91:
	.loc 1 933 0
	movl	-1048(%rbp), %eax
	salq	$5, %rax
	addq	$EApiGpioterfaceValidate+8, %rax
	movq	(%rax), %rdx
	movl	-1048(%rbp), %eax
	salq	$5, %rax
	addq	$EApiGpioterfaceValidate, %rax
	movq	(%rax), %rcx
	movl	-1052(%rbp), %eax
	movq	%rcx, %rsi
	movl	%eax, %edi
	call	EApiGPIOGetDirectionCaps
	movl	%eax, -1044(%rbp)
	.loc 1 938 0
	movl	-1048(%rbp), %eax
	salq	$5, %rax
	addq	$EApiGpioterfaceValidate+16, %rax
	movl	(%rax), %eax
	cmpl	-1044(%rbp), %eax
	je	.L88
	.loc 1 938 0 is_stmt 0 discriminator 2
	movl	-1048(%rbp), %eax
	salq	$5, %rax
	addq	$EApiGpioterfaceValidate+20, %rax
	movl	(%rax), %eax
	cmpl	-1044(%rbp), %eax
	je	.L88
	.loc 1 938 0 discriminator 4
	movl	-1048(%rbp), %eax
	salq	$5, %rax
	addq	$EApiGpioterfaceValidate+24, %rax
	movl	(%rax), %eax
	cmpl	-1044(%rbp), %eax
	jne	.L89
.L88:
	.loc 1 938 0 discriminator 5
	movl	$1, %eax
	jmp	.L90
.L89:
	.loc 1 938 0 discriminator 6
	movl	$0, %eax
.L90:
	.loc 1 938 0 discriminator 8
	cltq
	movq	FailPass(,%rax,8), %rdx
	movq	LogStream(%rip), %rax
	movl	-1044(%rbp), %ecx
	pushq	%rdx
	movl	-1048(%rbp), %edx
	pushq	%rdx
	movl	-1052(%rbp), %edx
	pushq	%rdx
	pushq	$.LC47
	movl	%ecx, %r9d
	movl	$938, %r8d
	movl	$.LC61, %ecx
	movl	$.LC46, %edx
	movl	$76, %esi
	movq	%rax, %rdi
	movl	$0, %eax
	call	siFFormattedMessage_SC
	addq	$32, %rsp
	.loc 1 931 0 is_stmt 1 discriminator 8
	addl	$1, -1048(%rbp)
.L87:
	.loc 1 931 0 is_stmt 0 discriminator 2
	cmpl	$3, -1048(%rbp)
	jbe	.L91
	.loc 1 929 0 is_stmt 1 discriminator 2
	addl	$1, -1052(%rbp)
.L86:
	.loc 1 929 0 is_stmt 0 discriminator 1
	cmpl	$9, -1052(%rbp)
	jbe	.L92
	.loc 1 941 0 is_stmt 1
	nop
	.loc 1 942 0
	movq	-8(%rbp), %rax
	xorq	%fs:40, %rax
	je	.L94
	call	__stack_chk_fail
.L94:
	leave
	.cfi_def_cfa 7, 8
	ret
	.cfi_endproc
.LFE8:
	.size	EApiValidateGPIOApi, .-EApiValidateGPIOApi
	.globl	TestFunctions
	.section	.rodata
.LC70:
	.string	"Values Function"
.LC71:
	.string	"Strings Function"
.LC72:
	.string	"I2C Function"
.LC73:
	.string	"Storage Function"
.LC74:
	.string	"Gpio Function"
	.align 32
	.type	TestFunctions, @object
	.size	TestFunctions, 80
TestFunctions:
	.quad	EApiValidateValuesApi
	.quad	.LC70
	.quad	EApiValidateStringApi
	.quad	.LC71
	.quad	EApiValidateI2CApi
	.quad	.LC72
	.quad	EApiValidateStorageApi
	.quad	.LC73
	.quad	EApiValidateGPIOApi
	.quad	.LC74
.LC75:
	.string	"w"
.LC76:
	.string	"EApiValidateAPI.log"
.LC77:
	.string	"Id"
.LC78:
	.string	"Status Code"
.LC79:
	.string	"Function Name"
	.align 8
.LC80:
	.string	"L%04u %-30s | %-25s | %5s %5s    [%s]\n"
.LC81:
	.string	"Status"
.LC82:
	.string	"Test#"
	.align 8
.LC83:
	.string	"EApi(Embedded Application Interface)\nEApi Verification Tool                            Version %u.%u.%u\n"
	.text
	.globl	main
	.type	main, @function
main:
.LFB9:
	.loc 1 968 0
	.cfi_startproc
	pushq	%rbp
	.cfi_def_cfa_offset 16
	.cfi_offset 6, -16
	movq	%rsp, %rbp
	.cfi_def_cfa_register 6
	.loc 1 970 0
	movl	$.LC75, %esi
	movl	$.LC76, %edi
	call	fopen
	movq	%rax, LogStream(%rip)
	.loc 1 971 0
	movq	LogStream(%rip), %rax
	testq	%rax, %rax
	jne	.L96
	.loc 1 972 0
	movq	stdout(%rip), %rax
	movq	%rax, LogStream(%rip)
.L96:
	.loc 1 973 0
	call	EApiLibInitialize
	testl	%eax, %eax
	je	.L97
	.loc 1 975 0
	movl	$2, %edi
	call	exit
.L97:
	.loc 1 977 0
	movq	LogStream(%rip), %rax
	pushq	$.LC81
	pushq	$.LC82
	movl	$.LC77, %r9d
	movl	$.LC78, %r8d
	movl	$.LC79, %ecx
	movl	$980, %edx
	movl	$.LC80, %esi
	movq	%rax, %rdi
	movl	$0, %eax
	call	fprintf
	addq	$16, %rsp
	.loc 1 988 0
	movq	stderr(%rip), %rax
	movl	$766, %r8d
	movl	$5, %ecx
	movl	$0, %edx
	movl	$.LC83, %esi
	movq	%rax, %rdi
	movl	$0, %eax
	call	fprintf
	.loc 1 1017 0
	movl	$EApiValidateValuesApi, %eax
	call	*%rax
	.loc 1 1018 0
	movl	$EApiValidateStringApi, %eax
	call	*%rax
	.loc 1 1019 0
	movl	$EApiValidateI2CApi, %eax
	call	*%rax
	.loc 1 1021 0
	call	EApiLibInitialize
	testl	%eax, %eax
	je	.L98
	.loc 1 1023 0
	movl	$3, %edi
	call	exit
.L98:
	.loc 1 1025 0
	movl	$0, %edi
	call	exit
	.cfi_endproc
.LFE9:
	.size	main, .-main
.Letext0:
	.file 2 "/usr/lib/gcc/x86_64-linux-gnu/5/include/stddef.h"
	.file 3 "/usr/include/x86_64-linux-gnu/bits/types.h"
	.file 4 "/usr/include/stdio.h"
	.file 5 "/usr/include/libio.h"
	.file 6 "/usr/lib/gcc/x86_64-linux-gnu/5/include/stdarg.h"
	.file 7 "<built-in>"
	.file 8 "/usr/include/stdint.h"
	.file 9 "../../../include/EApi.h"
	.file 10 "../../include/EApiAHStr.h"
	.file 11 "../../include/EApiAHI2C.h"
	.section	.note.GNU-stack,"",@progbits
