GAS LISTING /tmp/ccDSOxRM.s 			page 1


   1              		.file	"EApiAHStr.c"
   2              		.text
   3              	.Ltext0:
   4              		.globl	ErrorLookup
   5              		.section	.rodata
   6              	.LC0:
   7 0000 45415049 		.string	"EAPI_STATUS_NOT_INITIALIZED"
   7      5F535441 
   7      5455535F 
   7      4E4F545F 
   7      494E4954 
   8              	.LC1:
   9 001c 45415049 		.string	"EAPI_STATUS_INITIALIZED"
   9      5F535441 
   9      5455535F 
   9      494E4954 
   9      49414C49 
  10              	.LC2:
  11 0034 45415049 		.string	"EAPI_STATUS_ALLOC_ERROR"
  11      5F535441 
  11      5455535F 
  11      414C4C4F 
  11      435F4552 
  12              	.LC3:
  13 004c 45415049 		.string	"EAPI_STATUS_DRIVER_TIMEOUT"
  13      5F535441 
  13      5455535F 
  13      44524956 
  13      45525F54 
  14              	.LC4:
  15 0067 45415049 		.string	"EAPI_STATUS_INVALID_PARAMETER"
  15      5F535441 
  15      5455535F 
  15      494E5641 
  15      4C49445F 
  16 0085 000000   		.align 8
  17              	.LC5:
  18 0088 45415049 		.string	"EAPI_STATUS_INVALID_BLOCK_ALIGNMENT"
  18      5F535441 
  18      5455535F 
  18      494E5641 
  18      4C49445F 
  19 00ac 00000000 		.align 8
  20              	.LC6:
  21 00b0 45415049 		.string	"EAPI_STATUS_INVALID_BLOCK_LENGTH"
  21      5F535441 
  21      5455535F 
  21      494E5641 
  21      4C49445F 
  22              	.LC7:
  23 00d1 45415049 		.string	"EAPI_STATUS_INVALID_DIRECTION"
  23      5F535441 
  23      5455535F 
  23      494E5641 
  23      4C49445F 
  24              	.LC8:
  25 00ef 45415049 		.string	"EAPI_STATUS_INVALID_BITMASK"
GAS LISTING /tmp/ccDSOxRM.s 			page 2


  25      5F535441 
  25      5455535F 
  25      494E5641 
  25      4C49445F 
  26              	.LC9:
  27 010b 45415049 		.string	"EAPI_STATUS_RUNNING"
  27      5F535441 
  27      5455535F 
  27      52554E4E 
  27      494E4700 
  28              	.LC10:
  29 011f 45415049 		.string	"EAPI_STATUS_UNSUPPORTED"
  29      5F535441 
  29      5455535F 
  29      554E5355 
  29      50504F52 
  30              	.LC11:
  31 0137 45415049 		.string	"EAPI_STATUS_NOT_FOUND"
  31      5F535441 
  31      5455535F 
  31      4E4F545F 
  31      464F554E 
  32              	.LC12:
  33 014d 45415049 		.string	"EAPI_STATUS_TIMEOUT"
  33      5F535441 
  33      5455535F 
  33      54494D45 
  33      4F555400 
  34              	.LC13:
  35 0161 45415049 		.string	"EAPI_STATUS_BUSY_COLLISION"
  35      5F535441 
  35      5455535F 
  35      42555359 
  35      5F434F4C 
  36              	.LC14:
  37 017c 45415049 		.string	"EAPI_STATUS_READ_ERROR"
  37      5F535441 
  37      5455535F 
  37      52454144 
  37      5F455252 
  38              	.LC15:
  39 0193 45415049 		.string	"EAPI_STATUS_WRITE_ERROR"
  39      5F535441 
  39      5455535F 
  39      57524954 
  39      455F4552 
  40              	.LC16:
  41 01ab 45415049 		.string	"EAPI_STATUS_MORE_DATA"
  41      5F535441 
  41      5455535F 
  41      4D4F5245 
  41      5F444154 
  42              	.LC17:
  43 01c1 45415049 		.string	"EAPI_STATUS_ERROR"
  43      5F535441 
  43      5455535F 
  43      4552524F 
GAS LISTING /tmp/ccDSOxRM.s 			page 3


  43      5200
  44              	.LC18:
  45 01d3 45415049 		.string	"EAPI_STATUS_SUCCESS"
  45      5F535441 
  45      5455535F 
  45      53554343 
  45      45535300 
  46 01e7 00000000 		.align 32
  46      00000000 
  46      00000000 
  46      00000000 
  46      00000000 
  49              	ErrorLookup:
  50 0200 FFFFFFFF 		.long	-1
  51 0204 00000000 		.zero	4
  52 0208 00000000 		.quad	.LC0
  52      00000000 
  53 0210 FEFFFFFF 		.long	-2
  54 0214 00000000 		.zero	4
  55 0218 00000000 		.quad	.LC1
  55      00000000 
  56 0220 FDFFFFFF 		.long	-3
  57 0224 00000000 		.zero	4
  58 0228 00000000 		.quad	.LC2
  58      00000000 
  59 0230 FCFFFFFF 		.long	-4
  60 0234 00000000 		.zero	4
  61 0238 00000000 		.quad	.LC3
  61      00000000 
  62 0240 FFFEFFFF 		.long	-257
  63 0244 00000000 		.zero	4
  64 0248 00000000 		.quad	.LC4
  64      00000000 
  65 0250 FEFEFFFF 		.long	-258
  66 0254 00000000 		.zero	4
  67 0258 00000000 		.quad	.LC5
  67      00000000 
  68 0260 FDFEFFFF 		.long	-259
  69 0264 00000000 		.zero	4
  70 0268 00000000 		.quad	.LC6
  70      00000000 
  71 0270 FCFEFFFF 		.long	-260
  72 0274 00000000 		.zero	4
  73 0278 00000000 		.quad	.LC7
  73      00000000 
  74 0280 FBFEFFFF 		.long	-261
  75 0284 00000000 		.zero	4
  76 0288 00000000 		.quad	.LC8
  76      00000000 
  77 0290 FAFEFFFF 		.long	-262
  78 0294 00000000 		.zero	4
  79 0298 00000000 		.quad	.LC9
  79      00000000 
  80 02a0 FFFCFFFF 		.long	-769
  81 02a4 00000000 		.zero	4
  82 02a8 00000000 		.quad	.LC10
  82      00000000 
GAS LISTING /tmp/ccDSOxRM.s 			page 4


  83 02b0 FFFBFFFF 		.long	-1025
  84 02b4 00000000 		.zero	4
  85 02b8 00000000 		.quad	.LC11
  85      00000000 
  86 02c0 FEFBFFFF 		.long	-1026
  87 02c4 00000000 		.zero	4
  88 02c8 00000000 		.quad	.LC12
  88      00000000 
  89 02d0 FDFBFFFF 		.long	-1027
  90 02d4 00000000 		.zero	4
  91 02d8 00000000 		.quad	.LC13
  91      00000000 
  92 02e0 FFFAFFFF 		.long	-1281
  93 02e4 00000000 		.zero	4
  94 02e8 00000000 		.quad	.LC14
  94      00000000 
  95 02f0 FEFAFFFF 		.long	-1282
  96 02f4 00000000 		.zero	4
  97 02f8 00000000 		.quad	.LC15
  97      00000000 
  98 0300 FFF9FFFF 		.long	-1537
  99 0304 00000000 		.zero	4
 100 0308 00000000 		.quad	.LC16
 100      00000000 
 101 0310 FFF0FFFF 		.long	-3841
 102 0314 00000000 		.zero	4
 103 0318 00000000 		.quad	.LC17
 103      00000000 
 104 0320 00000000 		.long	0
 105 0324 00000000 		.zero	4
 106 0328 00000000 		.quad	.LC18
 106      00000000 
 107              	.LC19:
 108 0330 25730A00 		.string	"%s\n"
 109              	.LC20:
 110 0334 45417069 		.string	"EApiAHCreateErrorString"
 110      41484372 
 110      65617465 
 110      4572726F 
 110      72537472 
 111 034c 00000000 		.align 8
 112              	.LC21:
 113 0350 2F646576 		.string	"/development/eAPI/eapidk-code/apps/EApiValidateAPI/linux/../../common/EApiAHStr.c"
 113      656C6F70 
 113      6D656E74 
 113      2F654150 
 113      492F6561 
 114              	.LC22:
 115 03a2 28705374 		.string	"(pString==NULL)"
 115      72696E67 
 115      3D3D4E55 
 115      4C4C2900 
 116              	.LC23:
 117 03b2 28537472 		.string	"(StrBufLen==0)"
 117      4275664C 
 117      656E3D3D 
 117      302900
GAS LISTING /tmp/ccDSOxRM.s 			page 5


 118              	.LC24:
 119 03c1 554E4B4E 		.string	"UNKNOWN ERROR(0x%08X)"
 119      4F574E20 
 119      4552524F 
 119      52283078 
 119      25303858 
 120              		.text
 121              		.globl	EApiAHCreateErrorString
 123              	EApiAHCreateErrorString:
 124              	.LFB2:
 125              		.file 1 "/development/eAPI/eapidk-code/apps/EApiValidateAPI/linux/../../common/EApiAHStr.c"
   1:/development/eAPI/eapidk-code/apps/EApiValidateAPI/linux/../../common/EApiAHStr.c **** /*
   2:/development/eAPI/eapidk-code/apps/EApiValidateAPI/linux/../../common/EApiAHStr.c ****  *<KHeader>
   3:/development/eAPI/eapidk-code/apps/EApiValidateAPI/linux/../../common/EApiAHStr.c ****  *+=========================================================================
   4:/development/eAPI/eapidk-code/apps/EApiValidateAPI/linux/../../common/EApiAHStr.c ****  *I  Project Name: EApiDK Embedded Application Development Kit
   5:/development/eAPI/eapidk-code/apps/EApiValidateAPI/linux/../../common/EApiAHStr.c ****  *+=========================================================================
   6:/development/eAPI/eapidk-code/apps/EApiValidateAPI/linux/../../common/EApiAHStr.c ****  *I  $HeadURL: http://svn.code.sf.net/p/eapidk/code/trunk/apps/common/EApiAHStr.c $
   7:/development/eAPI/eapidk-code/apps/EApiValidateAPI/linux/../../common/EApiAHStr.c ****  *+=========================================================================
   8:/development/eAPI/eapidk-code/apps/EApiValidateAPI/linux/../../common/EApiAHStr.c ****  *I   Copyright: Copyright (c) 2002-2009, Kontron Embedded Modules GmbH
   9:/development/eAPI/eapidk-code/apps/EApiValidateAPI/linux/../../common/EApiAHStr.c ****  *I      Author: John Kearney,                  John.Kearney@kontron.com
  10:/development/eAPI/eapidk-code/apps/EApiValidateAPI/linux/../../common/EApiAHStr.c ****  *I
  11:/development/eAPI/eapidk-code/apps/EApiValidateAPI/linux/../../common/EApiAHStr.c ****  *I     License: All rights reserved. This program and the accompanying 
  12:/development/eAPI/eapidk-code/apps/EApiValidateAPI/linux/../../common/EApiAHStr.c ****  *I              materials are licensed and made available under the 
  13:/development/eAPI/eapidk-code/apps/EApiValidateAPI/linux/../../common/EApiAHStr.c ****  *I              terms and conditions of the BSD License which 
  14:/development/eAPI/eapidk-code/apps/EApiValidateAPI/linux/../../common/EApiAHStr.c ****  *I              accompanies this distribution. The full text of the 
  15:/development/eAPI/eapidk-code/apps/EApiValidateAPI/linux/../../common/EApiAHStr.c ****  *I              license may be found at 
  16:/development/eAPI/eapidk-code/apps/EApiValidateAPI/linux/../../common/EApiAHStr.c ****  *I              http://opensource.org/licenses/bsd-license.php
  17:/development/eAPI/eapidk-code/apps/EApiValidateAPI/linux/../../common/EApiAHStr.c ****  *I              
  18:/development/eAPI/eapidk-code/apps/EApiValidateAPI/linux/../../common/EApiAHStr.c ****  *I              THE PROGRAM IS DISTRIBUTED UNDER THE BSD LICENSE ON AN "
  19:/development/eAPI/eapidk-code/apps/EApiValidateAPI/linux/../../common/EApiAHStr.c ****  *I              AS IS" BASIS, WITHOUT WARRANTIES OR REPRESENTATIONS OF 
  20:/development/eAPI/eapidk-code/apps/EApiValidateAPI/linux/../../common/EApiAHStr.c ****  *I              ANY KIND, EITHER EXPRESS OR IMPLIED.
  21:/development/eAPI/eapidk-code/apps/EApiValidateAPI/linux/../../common/EApiAHStr.c ****  *I
  22:/development/eAPI/eapidk-code/apps/EApiValidateAPI/linux/../../common/EApiAHStr.c ****  *I Description: Auto Created for EApiAHStr.c
  23:/development/eAPI/eapidk-code/apps/EApiValidateAPI/linux/../../common/EApiAHStr.c ****  *I
  24:/development/eAPI/eapidk-code/apps/EApiValidateAPI/linux/../../common/EApiAHStr.c ****  *+-------------------------------------------------------------------------
  25:/development/eAPI/eapidk-code/apps/EApiValidateAPI/linux/../../common/EApiAHStr.c ****  *I
  26:/development/eAPI/eapidk-code/apps/EApiValidateAPI/linux/../../common/EApiAHStr.c ****  *I  File Name            : EApiAHStr.c
  27:/development/eAPI/eapidk-code/apps/EApiValidateAPI/linux/../../common/EApiAHStr.c ****  *I  File Location        : apps\common
  28:/development/eAPI/eapidk-code/apps/EApiValidateAPI/linux/../../common/EApiAHStr.c ****  *I  Last committed       : $Revision: 74 $
  29:/development/eAPI/eapidk-code/apps/EApiValidateAPI/linux/../../common/EApiAHStr.c ****  *I  Last changed by      : $Author: dethrophes $
  30:/development/eAPI/eapidk-code/apps/EApiValidateAPI/linux/../../common/EApiAHStr.c ****  *I  Last changed date    : $Date: 2010-06-23 21:26:50 +0200 (Wed, 23 Jun 2010) $
  31:/development/eAPI/eapidk-code/apps/EApiValidateAPI/linux/../../common/EApiAHStr.c ****  *I  ID                   : $Id: EApiAHStr.c 74 2010-06-23 19:26:50Z dethrophes $
  32:/development/eAPI/eapidk-code/apps/EApiValidateAPI/linux/../../common/EApiAHStr.c ****  *I
  33:/development/eAPI/eapidk-code/apps/EApiValidateAPI/linux/../../common/EApiAHStr.c ****  *+=========================================================================
  34:/development/eAPI/eapidk-code/apps/EApiValidateAPI/linux/../../common/EApiAHStr.c ****  *</KHeader>
  35:/development/eAPI/eapidk-code/apps/EApiValidateAPI/linux/../../common/EApiAHStr.c ****  */
  36:/development/eAPI/eapidk-code/apps/EApiValidateAPI/linux/../../common/EApiAHStr.c ****   #include <EApiApp.h>
  37:/development/eAPI/eapidk-code/apps/EApiValidateAPI/linux/../../common/EApiAHStr.c **** typedef struct ErrorLookupTbl_S{
  38:/development/eAPI/eapidk-code/apps/EApiValidateAPI/linux/../../common/EApiAHStr.c ****   const EApiStatus_t StatusCode;
  39:/development/eAPI/eapidk-code/apps/EApiValidateAPI/linux/../../common/EApiAHStr.c ****   const TCHAR *const  ErrorString;
  40:/development/eAPI/eapidk-code/apps/EApiValidateAPI/linux/../../common/EApiAHStr.c **** }ErrorLookupTbl_t;
  41:/development/eAPI/eapidk-code/apps/EApiValidateAPI/linux/../../common/EApiAHStr.c **** 
  42:/development/eAPI/eapidk-code/apps/EApiValidateAPI/linux/../../common/EApiAHStr.c **** #define EAPI_INVALID_STRLEN ((size_t )-1)
  43:/development/eAPI/eapidk-code/apps/EApiValidateAPI/linux/../../common/EApiAHStr.c **** 
  44:/development/eAPI/eapidk-code/apps/EApiValidateAPI/linux/../../common/EApiAHStr.c **** const ErrorLookupTbl_t ErrorLookup[]={
  45:/development/eAPI/eapidk-code/apps/EApiValidateAPI/linux/../../common/EApiAHStr.c ****   {EAPI_STATUS_NOT_INITIALIZED        , TEXT("EAPI_STATUS_NOT_INITIALIZED"          )},
  46:/development/eAPI/eapidk-code/apps/EApiValidateAPI/linux/../../common/EApiAHStr.c ****   {EAPI_STATUS_INITIALIZED            , TEXT("EAPI_STATUS_INITIALIZED"              )},
GAS LISTING /tmp/ccDSOxRM.s 			page 6


  47:/development/eAPI/eapidk-code/apps/EApiValidateAPI/linux/../../common/EApiAHStr.c ****   {EAPI_STATUS_ALLOC_ERROR            , TEXT("EAPI_STATUS_ALLOC_ERROR"              )},
  48:/development/eAPI/eapidk-code/apps/EApiValidateAPI/linux/../../common/EApiAHStr.c ****   {EAPI_STATUS_DRIVER_TIMEOUT         , TEXT("EAPI_STATUS_DRIVER_TIMEOUT"           )},
  49:/development/eAPI/eapidk-code/apps/EApiValidateAPI/linux/../../common/EApiAHStr.c ****   {EAPI_STATUS_INVALID_PARAMETER      , TEXT("EAPI_STATUS_INVALID_PARAMETER"        )},
  50:/development/eAPI/eapidk-code/apps/EApiValidateAPI/linux/../../common/EApiAHStr.c ****   {EAPI_STATUS_INVALID_BLOCK_ALIGNMENT, TEXT("EAPI_STATUS_INVALID_BLOCK_ALIGNMENT"  )},
  51:/development/eAPI/eapidk-code/apps/EApiValidateAPI/linux/../../common/EApiAHStr.c ****   {EAPI_STATUS_INVALID_BLOCK_LENGTH   , TEXT("EAPI_STATUS_INVALID_BLOCK_LENGTH"     )},
  52:/development/eAPI/eapidk-code/apps/EApiValidateAPI/linux/../../common/EApiAHStr.c ****   {EAPI_STATUS_INVALID_DIRECTION      , TEXT("EAPI_STATUS_INVALID_DIRECTION"        )},
  53:/development/eAPI/eapidk-code/apps/EApiValidateAPI/linux/../../common/EApiAHStr.c ****   {EAPI_STATUS_INVALID_BITMASK        , TEXT("EAPI_STATUS_INVALID_BITMASK"          )},
  54:/development/eAPI/eapidk-code/apps/EApiValidateAPI/linux/../../common/EApiAHStr.c ****   {EAPI_STATUS_RUNNING                , TEXT("EAPI_STATUS_RUNNING"                  )},
  55:/development/eAPI/eapidk-code/apps/EApiValidateAPI/linux/../../common/EApiAHStr.c ****   {EAPI_STATUS_UNSUPPORTED            , TEXT("EAPI_STATUS_UNSUPPORTED"              )},
  56:/development/eAPI/eapidk-code/apps/EApiValidateAPI/linux/../../common/EApiAHStr.c ****   {EAPI_STATUS_NOT_FOUND              , TEXT("EAPI_STATUS_NOT_FOUND"                )},
  57:/development/eAPI/eapidk-code/apps/EApiValidateAPI/linux/../../common/EApiAHStr.c ****   {EAPI_STATUS_TIMEOUT                , TEXT("EAPI_STATUS_TIMEOUT"                  )},
  58:/development/eAPI/eapidk-code/apps/EApiValidateAPI/linux/../../common/EApiAHStr.c ****   {EAPI_STATUS_BUSY_COLLISION         , TEXT("EAPI_STATUS_BUSY_COLLISION"           )},
  59:/development/eAPI/eapidk-code/apps/EApiValidateAPI/linux/../../common/EApiAHStr.c ****   {EAPI_STATUS_READ_ERROR             , TEXT("EAPI_STATUS_READ_ERROR"               )},
  60:/development/eAPI/eapidk-code/apps/EApiValidateAPI/linux/../../common/EApiAHStr.c ****   {EAPI_STATUS_WRITE_ERROR            , TEXT("EAPI_STATUS_WRITE_ERROR"              )},
  61:/development/eAPI/eapidk-code/apps/EApiValidateAPI/linux/../../common/EApiAHStr.c ****   {EAPI_STATUS_MORE_DATA              , TEXT("EAPI_STATUS_MORE_DATA"                )},
  62:/development/eAPI/eapidk-code/apps/EApiValidateAPI/linux/../../common/EApiAHStr.c ****   {EAPI_STATUS_ERROR                  , TEXT("EAPI_STATUS_ERROR"                    )},
  63:/development/eAPI/eapidk-code/apps/EApiValidateAPI/linux/../../common/EApiAHStr.c ****   {EAPI_STATUS_SUCCESS                , TEXT("EAPI_STATUS_SUCCESS"                  )},
  64:/development/eAPI/eapidk-code/apps/EApiValidateAPI/linux/../../common/EApiAHStr.c **** };
  65:/development/eAPI/eapidk-code/apps/EApiValidateAPI/linux/../../common/EApiAHStr.c **** #define UNKNOWN_ERR_LEN sizeof("UNKNOWN ERROR(0x00000000)")
  66:/development/eAPI/eapidk-code/apps/EApiValidateAPI/linux/../../common/EApiAHStr.c **** size_t EApiAHCreateErrorString(
  67:/development/eAPI/eapidk-code/apps/EApiValidateAPI/linux/../../common/EApiAHStr.c ****     __IN EApiStatus_t DispStatusCode  ,
  68:/development/eAPI/eapidk-code/apps/EApiValidateAPI/linux/../../common/EApiAHStr.c ****     __OUT TCHAR *const    pString     , 
  69:/development/eAPI/eapidk-code/apps/EApiValidateAPI/linux/../../common/EApiAHStr.c ****     __IN const size_t     StrBufLen 
  70:/development/eAPI/eapidk-code/apps/EApiValidateAPI/linux/../../common/EApiAHStr.c ****     )
  71:/development/eAPI/eapidk-code/apps/EApiValidateAPI/linux/../../common/EApiAHStr.c **** {
 126              		.loc 1 71 0
 127              		.cfi_startproc
 128 0000 55       		pushq	%rbp
 129              		.cfi_def_cfa_offset 16
 130              		.cfi_offset 6, -16
 131 0001 4889E5   		movq	%rsp, %rbp
 132              		.cfi_def_cfa_register 6
 133 0004 4883EC30 		subq	$48, %rsp
 134 0008 897DEC   		movl	%edi, -20(%rbp)
 135 000b 488975E0 		movq	%rsi, -32(%rbp)
 136 000f 488955D8 		movq	%rdx, -40(%rbp)
  72:/development/eAPI/eapidk-code/apps/EApiValidateAPI/linux/../../common/EApiAHStr.c ****   size_t StatusCode=EAPI_INVALID_STRLEN;
 137              		.loc 1 72 0
 138 0013 48C745F8 		movq	$-1, -8(%rbp)
 138      FFFFFFFF 
  73:/development/eAPI/eapidk-code/apps/EApiValidateAPI/linux/../../common/EApiAHStr.c ****   unsigned i;
  74:/development/eAPI/eapidk-code/apps/EApiValidateAPI/linux/../../common/EApiAHStr.c **** 
  75:/development/eAPI/eapidk-code/apps/EApiValidateAPI/linux/../../common/EApiAHStr.c ****   EAPI_APP_ASSERT_PARAMATER_NULL(
 139              		.loc 1 75 0
 140 001b 48837DE0 		cmpq	$0, -32(%rbp)
 140      00
 141 0020 7544     		jne	.L2
 142              		.loc 1 75 0 is_stmt 0 discriminator 1
 143 0022 4883EC08 		subq	$8, %rsp
 144 0026 68000000 		pushq	$.LC22
 144      00
 145 002b 41B90000 		movl	$.LC19, %r9d
 145      0000
 146 0031 41B8FFFF 		movl	$-1, %r8d
 146      FFFF
 147 0037 B94F0000 		movl	$79, %ecx
 147      00
GAS LISTING /tmp/ccDSOxRM.s 			page 7


 148 003c BA000000 		movl	$.LC20, %edx
 148      00
 149 0041 BE000000 		movl	$.LC21, %esi
 149      00
 150 0046 BF450000 		movl	$69, %edi
 150      00
 151 004b B8000000 		movl	$0, %eax
 151      00
 152 0050 E8000000 		call	siFormattedMessage_SC
 152      00
 153 0055 4883C410 		addq	$16, %rsp
 154 0059 48C745F8 		movq	$-1, -8(%rbp)
 154      FFFFFFFF 
 155 0061 E9F80000 		jmp	.L10
 155      00
 156              	.L2:
  76:/development/eAPI/eapidk-code/apps/EApiValidateAPI/linux/../../common/EApiAHStr.c ****       EApiAHCreateErrorString, 
  77:/development/eAPI/eapidk-code/apps/EApiValidateAPI/linux/../../common/EApiAHStr.c ****       EAPI_INVALID_STRLEN, 
  78:/development/eAPI/eapidk-code/apps/EApiValidateAPI/linux/../../common/EApiAHStr.c ****       pString
  79:/development/eAPI/eapidk-code/apps/EApiValidateAPI/linux/../../common/EApiAHStr.c ****     );
  80:/development/eAPI/eapidk-code/apps/EApiValidateAPI/linux/../../common/EApiAHStr.c ****   EAPI_APP_ASSERT_PARAMATER_ZERO(
 157              		.loc 1 80 0 is_stmt 1
 158 0066 48837DD8 		cmpq	$0, -40(%rbp)
 158      00
 159 006b 7544     		jne	.L4
 160              		.loc 1 80 0 is_stmt 0 discriminator 1
 161 006d 4883EC08 		subq	$8, %rsp
 162 0071 68000000 		pushq	$.LC23
 162      00
 163 0076 41B90000 		movl	$.LC19, %r9d
 163      0000
 164 007c 41B8FFFF 		movl	$-1, %r8d
 164      FFFF
 165 0082 B9540000 		movl	$84, %ecx
 165      00
 166 0087 BA000000 		movl	$.LC20, %edx
 166      00
 167 008c BE000000 		movl	$.LC21, %esi
 167      00
 168 0091 BF450000 		movl	$69, %edi
 168      00
 169 0096 B8000000 		movl	$0, %eax
 169      00
 170 009b E8000000 		call	siFormattedMessage_SC
 170      00
 171 00a0 4883C410 		addq	$16, %rsp
 172 00a4 48C745F8 		movq	$-1, -8(%rbp)
 172      FFFFFFFF 
 173 00ac E9AD0000 		jmp	.L10
 173      00
 174              	.L4:
  81:/development/eAPI/eapidk-code/apps/EApiValidateAPI/linux/../../common/EApiAHStr.c ****       EApiAHCreateErrorString, 
  82:/development/eAPI/eapidk-code/apps/EApiValidateAPI/linux/../../common/EApiAHStr.c ****       EAPI_INVALID_STRLEN, 
  83:/development/eAPI/eapidk-code/apps/EApiValidateAPI/linux/../../common/EApiAHStr.c ****       StrBufLen
  84:/development/eAPI/eapidk-code/apps/EApiValidateAPI/linux/../../common/EApiAHStr.c ****     );
  85:/development/eAPI/eapidk-code/apps/EApiValidateAPI/linux/../../common/EApiAHStr.c **** 
  86:/development/eAPI/eapidk-code/apps/EApiValidateAPI/linux/../../common/EApiAHStr.c ****   for(i=0; i<ARRAY_SIZE(ErrorLookup);i++)
GAS LISTING /tmp/ccDSOxRM.s 			page 8


 175              		.loc 1 86 0 is_stmt 1
 176 00b1 C745F400 		movl	$0, -12(%rbp)
 176      000000
 177 00b8 EB5E     		jmp	.L5
 178              	.L8:
  87:/development/eAPI/eapidk-code/apps/EApiValidateAPI/linux/../../common/EApiAHStr.c ****   {
  88:/development/eAPI/eapidk-code/apps/EApiValidateAPI/linux/../../common/EApiAHStr.c ****     if(ErrorLookup[i].StatusCode==DispStatusCode){
 179              		.loc 1 88 0
 180 00ba 8B45F4   		movl	-12(%rbp), %eax
 181 00bd 48C1E004 		salq	$4, %rax
 182 00c1 48050000 		addq	$ErrorLookup, %rax
 182      0000
 183 00c7 8B00     		movl	(%rax), %eax
 184 00c9 3B45EC   		cmpl	-20(%rbp), %eax
 185 00cc 7546     		jne	.L6
  89:/development/eAPI/eapidk-code/apps/EApiValidateAPI/linux/../../common/EApiAHStr.c **** 
  90:/development/eAPI/eapidk-code/apps/EApiValidateAPI/linux/../../common/EApiAHStr.c ****       if(pString!=NULL){
 186              		.loc 1 90 0
 187 00ce 48837DE0 		cmpq	$0, -32(%rbp)
 187      00
 188 00d3 7435     		je	.L7
  91:/development/eAPI/eapidk-code/apps/EApiValidateAPI/linux/../../common/EApiAHStr.c ****         EApiStrCpy(pString, StrBufLen, ErrorLookup[i].ErrorString);
 189              		.loc 1 91 0
 190 00d5 8B45F4   		movl	-12(%rbp), %eax
 191 00d8 48C1E004 		salq	$4, %rax
 192 00dc 48050000 		addq	$ErrorLookup+8, %rax
 192      0000
 193 00e2 488B10   		movq	(%rax), %rdx
 194 00e5 488B4DD8 		movq	-40(%rbp), %rcx
 195 00e9 488B45E0 		movq	-32(%rbp), %rax
 196 00ed 4889CE   		movq	%rcx, %rsi
 197 00f0 4889C7   		movq	%rax, %rdi
 198 00f3 E8000000 		call	EApiStrCpy
 198      00
  92:/development/eAPI/eapidk-code/apps/EApiValidateAPI/linux/../../common/EApiAHStr.c ****         StatusCode= EAPI_strlen (pString);
 199              		.loc 1 92 0
 200 00f8 488B45E0 		movq	-32(%rbp), %rax
 201 00fc 4889C7   		movq	%rax, %rdi
 202 00ff E8000000 		call	strlen
 202      00
 203 0104 488945F8 		movq	%rax, -8(%rbp)
  93:/development/eAPI/eapidk-code/apps/EApiValidateAPI/linux/../../common/EApiAHStr.c ****         goto ExitSuccess;
 204              		.loc 1 93 0
 205 0108 EB54     		jmp	.L10
 206              	.L7:
  94:/development/eAPI/eapidk-code/apps/EApiValidateAPI/linux/../../common/EApiAHStr.c ****       }
  95:/development/eAPI/eapidk-code/apps/EApiValidateAPI/linux/../../common/EApiAHStr.c ****       StatusCode= EAPI_INVALID_STRLEN;
 207              		.loc 1 95 0
 208 010a 48C745F8 		movq	$-1, -8(%rbp)
 208      FFFFFFFF 
  96:/development/eAPI/eapidk-code/apps/EApiValidateAPI/linux/../../common/EApiAHStr.c ****       goto ExitSuccess;
 209              		.loc 1 96 0
 210 0112 EB4A     		jmp	.L10
 211              	.L6:
  86:/development/eAPI/eapidk-code/apps/EApiValidateAPI/linux/../../common/EApiAHStr.c ****   {
 212              		.loc 1 86 0 discriminator 2
 213 0114 8345F401 		addl	$1, -12(%rbp)
GAS LISTING /tmp/ccDSOxRM.s 			page 9


 214              	.L5:
  86:/development/eAPI/eapidk-code/apps/EApiValidateAPI/linux/../../common/EApiAHStr.c ****   {
 215              		.loc 1 86 0 is_stmt 0 discriminator 1
 216 0118 837DF412 		cmpl	$18, -12(%rbp)
 217 011c 769C     		jbe	.L8
  97:/development/eAPI/eapidk-code/apps/EApiValidateAPI/linux/../../common/EApiAHStr.c ****     }
  98:/development/eAPI/eapidk-code/apps/EApiValidateAPI/linux/../../common/EApiAHStr.c ****   }
  99:/development/eAPI/eapidk-code/apps/EApiValidateAPI/linux/../../common/EApiAHStr.c ****   if(pString!=NULL){
 218              		.loc 1 99 0 is_stmt 1
 219 011e 48837DE0 		cmpq	$0, -32(%rbp)
 219      00
 220 0123 7431     		je	.L9
 100:/development/eAPI/eapidk-code/apps/EApiValidateAPI/linux/../../common/EApiAHStr.c ****     EApiSprintf(pString, StrBufLen, 
 221              		.loc 1 100 0
 222 0125 8B55EC   		movl	-20(%rbp), %edx
 223 0128 488B75D8 		movq	-40(%rbp), %rsi
 224 012c 488B45E0 		movq	-32(%rbp), %rax
 225 0130 89D1     		movl	%edx, %ecx
 226 0132 BA000000 		movl	$.LC24, %edx
 226      00
 227 0137 4889C7   		movq	%rax, %rdi
 228 013a B8000000 		movl	$0, %eax
 228      00
 229 013f E8000000 		call	EApiSprintf
 229      00
 101:/development/eAPI/eapidk-code/apps/EApiValidateAPI/linux/../../common/EApiAHStr.c ****       TEXT("UNKNOWN ERROR(0x%08")TEXT(PRIX32)TEXT(")"), 
 102:/development/eAPI/eapidk-code/apps/EApiValidateAPI/linux/../../common/EApiAHStr.c ****       DispStatusCode
 103:/development/eAPI/eapidk-code/apps/EApiValidateAPI/linux/../../common/EApiAHStr.c ****       );
 104:/development/eAPI/eapidk-code/apps/EApiValidateAPI/linux/../../common/EApiAHStr.c ****     StatusCode=EAPI_strlen (pString);
 230              		.loc 1 104 0
 231 0144 488B45E0 		movq	-32(%rbp), %rax
 232 0148 4889C7   		movq	%rax, %rdi
 233 014b E8000000 		call	strlen
 233      00
 234 0150 488945F8 		movq	%rax, -8(%rbp)
 105:/development/eAPI/eapidk-code/apps/EApiValidateAPI/linux/../../common/EApiAHStr.c ****     goto ExitSuccess;
 235              		.loc 1 105 0
 236 0154 EB08     		jmp	.L10
 237              	.L9:
 106:/development/eAPI/eapidk-code/apps/EApiValidateAPI/linux/../../common/EApiAHStr.c ****   }
 107:/development/eAPI/eapidk-code/apps/EApiValidateAPI/linux/../../common/EApiAHStr.c ****   StatusCode=EAPI_INVALID_STRLEN;
 238              		.loc 1 107 0
 239 0156 48C745F8 		movq	$-1, -8(%rbp)
 239      FFFFFFFF 
 240              	.L3:
 241              	.L10:
 108:/development/eAPI/eapidk-code/apps/EApiValidateAPI/linux/../../common/EApiAHStr.c **** EAPI_APP_ASSERT_EXIT
 109:/development/eAPI/eapidk-code/apps/EApiValidateAPI/linux/../../common/EApiAHStr.c **** ExitSuccess:
 110:/development/eAPI/eapidk-code/apps/EApiValidateAPI/linux/../../common/EApiAHStr.c ****   return StatusCode;
 242              		.loc 1 110 0
 243 015e 488B45F8 		movq	-8(%rbp), %rax
 111:/development/eAPI/eapidk-code/apps/EApiValidateAPI/linux/../../common/EApiAHStr.c **** }
 244              		.loc 1 111 0
 245 0162 C9       		leave
 246              		.cfi_def_cfa 7, 8
 247 0163 C3       		ret
 248              		.cfi_endproc
GAS LISTING /tmp/ccDSOxRM.s 			page 10


 249              	.LFE2:
 251              		.section	.rodata
 252              	.LC25:
 253 03d7 45417069 		.string	"EApiAHCreateErrorStringAlloc"
 253      41484372 
 253      65617465 
 253      4572726F 
 253      72537472 
 254              		.text
 255              		.globl	EApiAHCreateErrorStringAlloc
 257              	EApiAHCreateErrorStringAlloc:
 258              	.LFB3:
 112:/development/eAPI/eapidk-code/apps/EApiValidateAPI/linux/../../common/EApiAHStr.c **** EApiStatus_t
 113:/development/eAPI/eapidk-code/apps/EApiValidateAPI/linux/../../common/EApiAHStr.c **** EApiAHCreateErrorStringAlloc(
 114:/development/eAPI/eapidk-code/apps/EApiValidateAPI/linux/../../common/EApiAHStr.c ****   __IN uint32_t         DispStatusCode  ,
 115:/development/eAPI/eapidk-code/apps/EApiValidateAPI/linux/../../common/EApiAHStr.c ****   __OUT TCHAR * *const  pString 
 116:/development/eAPI/eapidk-code/apps/EApiValidateAPI/linux/../../common/EApiAHStr.c ****   )
 117:/development/eAPI/eapidk-code/apps/EApiValidateAPI/linux/../../common/EApiAHStr.c **** {
 259              		.loc 1 117 0
 260              		.cfi_startproc
 261 0164 55       		pushq	%rbp
 262              		.cfi_def_cfa_offset 16
 263              		.cfi_offset 6, -16
 264 0165 4889E5   		movq	%rsp, %rbp
 265              		.cfi_def_cfa_register 6
 266 0168 4883EC20 		subq	$32, %rsp
 267 016c 897DEC   		movl	%edi, -20(%rbp)
 268 016f 488975E0 		movq	%rsi, -32(%rbp)
 118:/development/eAPI/eapidk-code/apps/EApiValidateAPI/linux/../../common/EApiAHStr.c ****   EApiStatus_t StatusCode=EAPI_STATUS_SUCCESS;
 269              		.loc 1 118 0
 270 0173 C745F000 		movl	$0, -16(%rbp)
 270      000000
 119:/development/eAPI/eapidk-code/apps/EApiValidateAPI/linux/../../common/EApiAHStr.c ****   unsigned i;
 120:/development/eAPI/eapidk-code/apps/EApiValidateAPI/linux/../../common/EApiAHStr.c ****   size_t StrLen;
 121:/development/eAPI/eapidk-code/apps/EApiValidateAPI/linux/../../common/EApiAHStr.c **** 
 122:/development/eAPI/eapidk-code/apps/EApiValidateAPI/linux/../../common/EApiAHStr.c ****   EAPI_APP_ASSERT_PARAMATER_NULL(EApiAHCreateErrorStringAlloc, EAPI_STATUS_INVALID_PARAMETER, pStri
 271              		.loc 1 122 0
 272 017a 48837DE0 		cmpq	$0, -32(%rbp)
 272      00
 273 017f 7543     		jne	.L13
 274              		.loc 1 122 0 is_stmt 0 discriminator 1
 275 0181 4883EC08 		subq	$8, %rsp
 276 0185 68000000 		pushq	$.LC22
 276      00
 277 018a 41B90000 		movl	$.LC19, %r9d
 277      0000
 278 0190 41B8FFFE 		movl	$-257, %r8d
 278      FFFF
 279 0196 B97A0000 		movl	$122, %ecx
 279      00
 280 019b BA000000 		movl	$.LC25, %edx
 280      00
 281 01a0 BE000000 		movl	$.LC21, %esi
 281      00
 282 01a5 BF450000 		movl	$69, %edi
 282      00
 283 01aa B8000000 		movl	$0, %eax
GAS LISTING /tmp/ccDSOxRM.s 			page 11


 283      00
 284 01af E8000000 		call	siFormattedMessage_SC
 284      00
 285 01b4 4883C410 		addq	$16, %rsp
 286 01b8 C745F0FF 		movl	$-257, -16(%rbp)
 286      FEFFFF
 287 01bf E9E20000 		jmp	.L19
 287      00
 288              	.L13:
 123:/development/eAPI/eapidk-code/apps/EApiValidateAPI/linux/../../common/EApiAHStr.c **** 
 124:/development/eAPI/eapidk-code/apps/EApiValidateAPI/linux/../../common/EApiAHStr.c ****   for(i=0; i<ARRAY_SIZE(ErrorLookup);i++)
 289              		.loc 1 124 0 is_stmt 1
 290 01c4 C745F400 		movl	$0, -12(%rbp)
 290      000000
 291 01cb E9890000 		jmp	.L15
 291      00
 292              	.L18:
 125:/development/eAPI/eapidk-code/apps/EApiValidateAPI/linux/../../common/EApiAHStr.c ****   {
 126:/development/eAPI/eapidk-code/apps/EApiValidateAPI/linux/../../common/EApiAHStr.c ****     if(ErrorLookup[i].StatusCode==DispStatusCode){
 293              		.loc 1 126 0
 294 01d0 8B45F4   		movl	-12(%rbp), %eax
 295 01d3 48C1E004 		salq	$4, %rax
 296 01d7 48050000 		addq	$ErrorLookup, %rax
 296      0000
 297 01dd 8B00     		movl	(%rax), %eax
 298 01df 3B45EC   		cmpl	-20(%rbp), %eax
 299 01e2 7571     		jne	.L16
 127:/development/eAPI/eapidk-code/apps/EApiValidateAPI/linux/../../common/EApiAHStr.c ****       StrLen=EAPI_strlen(ErrorLookup[i].ErrorString)+1;
 300              		.loc 1 127 0
 301 01e4 8B45F4   		movl	-12(%rbp), %eax
 302 01e7 48C1E004 		salq	$4, %rax
 303 01eb 48050000 		addq	$ErrorLookup+8, %rax
 303      0000
 304 01f1 488B00   		movq	(%rax), %rax
 305 01f4 4889C7   		movq	%rax, %rdi
 306 01f7 E8000000 		call	strlen
 306      00
 307 01fc 4883C001 		addq	$1, %rax
 308 0200 488945F8 		movq	%rax, -8(%rbp)
 128:/development/eAPI/eapidk-code/apps/EApiValidateAPI/linux/../../common/EApiAHStr.c ****       *pString=malloc(StrLen*sizeof(TCHAR));
 309              		.loc 1 128 0
 310 0204 488B45F8 		movq	-8(%rbp), %rax
 311 0208 4889C7   		movq	%rax, %rdi
 312 020b E8000000 		call	malloc
 312      00
 313 0210 4889C2   		movq	%rax, %rdx
 314 0213 488B45E0 		movq	-32(%rbp), %rax
 315 0217 488910   		movq	%rdx, (%rax)
 129:/development/eAPI/eapidk-code/apps/EApiValidateAPI/linux/../../common/EApiAHStr.c ****       if(*pString!=NULL)
 316              		.loc 1 129 0
 317 021a 488B45E0 		movq	-32(%rbp), %rax
 318 021e 488B00   		movq	(%rax), %rax
 319 0221 4885C0   		testq	%rax, %rax
 320 0224 7426     		je	.L17
 130:/development/eAPI/eapidk-code/apps/EApiValidateAPI/linux/../../common/EApiAHStr.c ****         EApiStrCpy(*pString, StrLen, ErrorLookup[i].ErrorString);
 321              		.loc 1 130 0
 322 0226 8B45F4   		movl	-12(%rbp), %eax
GAS LISTING /tmp/ccDSOxRM.s 			page 12


 323 0229 48C1E004 		salq	$4, %rax
 324 022d 48050000 		addq	$ErrorLookup+8, %rax
 324      0000
 325 0233 488B10   		movq	(%rax), %rdx
 326 0236 488B45E0 		movq	-32(%rbp), %rax
 327 023a 488B00   		movq	(%rax), %rax
 328 023d 488B4DF8 		movq	-8(%rbp), %rcx
 329 0241 4889CE   		movq	%rcx, %rsi
 330 0244 4889C7   		movq	%rax, %rdi
 331 0247 E8000000 		call	EApiStrCpy
 331      00
 332              	.L17:
 131:/development/eAPI/eapidk-code/apps/EApiValidateAPI/linux/../../common/EApiAHStr.c ****       StatusCode=EAPI_STATUS_SUCCESS;
 333              		.loc 1 131 0
 334 024c C745F000 		movl	$0, -16(%rbp)
 334      000000
 132:/development/eAPI/eapidk-code/apps/EApiValidateAPI/linux/../../common/EApiAHStr.c ****       goto SuccessExit;
 335              		.loc 1 132 0
 336 0253 EB51     		jmp	.L19
 337              	.L16:
 124:/development/eAPI/eapidk-code/apps/EApiValidateAPI/linux/../../common/EApiAHStr.c ****   {
 338              		.loc 1 124 0 discriminator 2
 339 0255 8345F401 		addl	$1, -12(%rbp)
 340              	.L15:
 124:/development/eAPI/eapidk-code/apps/EApiValidateAPI/linux/../../common/EApiAHStr.c ****   {
 341              		.loc 1 124 0 is_stmt 0 discriminator 1
 342 0259 837DF412 		cmpl	$18, -12(%rbp)
 343 025d 0F866DFF 		jbe	.L18
 343      FFFF
 133:/development/eAPI/eapidk-code/apps/EApiValidateAPI/linux/../../common/EApiAHStr.c ****     }
 134:/development/eAPI/eapidk-code/apps/EApiValidateAPI/linux/../../common/EApiAHStr.c ****   }
 135:/development/eAPI/eapidk-code/apps/EApiValidateAPI/linux/../../common/EApiAHStr.c ****   *pString=malloc(UNKNOWN_ERR_LEN*sizeof(TCHAR));
 344              		.loc 1 135 0 is_stmt 1
 345 0263 BF1A0000 		movl	$26, %edi
 345      00
 346 0268 E8000000 		call	malloc
 346      00
 347 026d 4889C2   		movq	%rax, %rdx
 348 0270 488B45E0 		movq	-32(%rbp), %rax
 349 0274 488910   		movq	%rdx, (%rax)
 136:/development/eAPI/eapidk-code/apps/EApiValidateAPI/linux/../../common/EApiAHStr.c ****   if(*pString!=NULL)
 350              		.loc 1 136 0
 351 0277 488B45E0 		movq	-32(%rbp), %rax
 352 027b 488B00   		movq	(%rax), %rax
 353 027e 4885C0   		testq	%rax, %rax
 354 0281 7423     		je	.L19
 137:/development/eAPI/eapidk-code/apps/EApiValidateAPI/linux/../../common/EApiAHStr.c ****     EApiSprintf(*pString, 
 355              		.loc 1 137 0
 356 0283 488B45E0 		movq	-32(%rbp), %rax
 357 0287 488B00   		movq	(%rax), %rax
 358 028a 8B55EC   		movl	-20(%rbp), %edx
 359 028d 89D1     		movl	%edx, %ecx
 360 028f BA000000 		movl	$.LC24, %edx
 360      00
 361 0294 BE1A0000 		movl	$26, %esi
 361      00
 362 0299 4889C7   		movq	%rax, %rdi
GAS LISTING /tmp/ccDSOxRM.s 			page 13


 363 029c B8000000 		movl	$0, %eax
 363      00
 364 02a1 E8000000 		call	EApiSprintf
 364      00
 365              	.L14:
 366              	.L19:
 138:/development/eAPI/eapidk-code/apps/EApiValidateAPI/linux/../../common/EApiAHStr.c ****       UNKNOWN_ERR_LEN, 
 139:/development/eAPI/eapidk-code/apps/EApiValidateAPI/linux/../../common/EApiAHStr.c ****       TEXT("UNKNOWN ERROR(0x%08")TEXT(PRIX32)TEXT(")"), 
 140:/development/eAPI/eapidk-code/apps/EApiValidateAPI/linux/../../common/EApiAHStr.c ****       DispStatusCode
 141:/development/eAPI/eapidk-code/apps/EApiValidateAPI/linux/../../common/EApiAHStr.c ****       );
 142:/development/eAPI/eapidk-code/apps/EApiValidateAPI/linux/../../common/EApiAHStr.c **** EAPI_APP_ASSERT_EXIT
 143:/development/eAPI/eapidk-code/apps/EApiValidateAPI/linux/../../common/EApiAHStr.c **** SuccessExit:
 144:/development/eAPI/eapidk-code/apps/EApiValidateAPI/linux/../../common/EApiAHStr.c ****   return StatusCode;
 367              		.loc 1 144 0
 368 02a6 8B45F0   		movl	-16(%rbp), %eax
 145:/development/eAPI/eapidk-code/apps/EApiValidateAPI/linux/../../common/EApiAHStr.c **** }
 369              		.loc 1 145 0
 370 02a9 C9       		leave
 371              		.cfi_def_cfa 7, 8
 372 02aa C3       		ret
 373              		.cfi_endproc
 374              	.LFE3:
 376              		.section	.rodata
 377              	.LC26:
 378 03f4 45417069 		.string	"EApiAHGetString"
 378      41484765 
 378      74537472 
 378      696E6700 
 379              	.LC27:
 380 0404 45417069 		.string	"EApiAHGetStringAlloc"
 380      41484765 
 380      74537472 
 380      696E6741 
 380      6C6C6F63 
 381 0419 00000000 		.align 8
 381      000000
 382              	.LC28:
 383 0420 496E7465 		.string	"Interface Returning Different String Lengths"
 383      72666163 
 383      65205265 
 383      7475726E 
 383      696E6720 
 384 044d 000000   		.align 8
 385              	.LC29:
 386 0450 52657475 		.string	"Returned String Missing Terminating \\0 Character."
 386      726E6564 
 386      20537472 
 386      696E6720 
 386      4D697373 
 387              		.text
 388              		.globl	EApiAHGetString
 390              	EApiAHGetString:
 391              	.LFB4:
 146:/development/eAPI/eapidk-code/apps/EApiValidateAPI/linux/../../common/EApiAHStr.c **** 
 147:/development/eAPI/eapidk-code/apps/EApiValidateAPI/linux/../../common/EApiAHStr.c **** size_t 
 148:/development/eAPI/eapidk-code/apps/EApiValidateAPI/linux/../../common/EApiAHStr.c **** EApiAHGetString(
 149:/development/eAPI/eapidk-code/apps/EApiValidateAPI/linux/../../common/EApiAHStr.c ****     __IN  uint32_t        StringID  , /* EApi String ID */
GAS LISTING /tmp/ccDSOxRM.s 			page 14


 150:/development/eAPI/eapidk-code/apps/EApiValidateAPI/linux/../../common/EApiAHStr.c ****     __OUT TCHAR *         pString   , /* Pointer To String pBuffer */
 151:/development/eAPI/eapidk-code/apps/EApiValidateAPI/linux/../../common/EApiAHStr.c ****     __IN  size_t          StrBufLen   /* String pBuffer Length */
 152:/development/eAPI/eapidk-code/apps/EApiValidateAPI/linux/../../common/EApiAHStr.c ****     )
 153:/development/eAPI/eapidk-code/apps/EApiValidateAPI/linux/../../common/EApiAHStr.c **** {
 392              		.loc 1 153 0
 393              		.cfi_startproc
 394 02ab 55       		pushq	%rbp
 395              		.cfi_def_cfa_offset 16
 396              		.cfi_offset 6, -16
 397 02ac 4889E5   		movq	%rsp, %rbp
 398              		.cfi_def_cfa_register 6
 399 02af 4883EC40 		subq	$64, %rsp
 400 02b3 897DDC   		movl	%edi, -36(%rbp)
 401 02b6 488975D0 		movq	%rsi, -48(%rbp)
 402 02ba 488955C8 		movq	%rdx, -56(%rbp)
 403              		.loc 1 153 0
 404 02be 64488B04 		movq	%fs:40, %rax
 404      25280000 
 404      00
 405 02c7 488945F8 		movq	%rax, -8(%rbp)
 406 02cb 31C0     		xorl	%eax, %eax
 154:/development/eAPI/eapidk-code/apps/EApiValidateAPI/linux/../../common/EApiAHStr.c ****   size_t StatusCode=EAPI_INVALID_STRLEN;
 407              		.loc 1 154 0
 408 02cd 48C745E8 		movq	$-1, -24(%rbp)
 408      FFFFFFFF 
 155:/development/eAPI/eapidk-code/apps/EApiValidateAPI/linux/../../common/EApiAHStr.c ****   uint32_t StringLenLcl=(uint32_t)StrBufLen;
 409              		.loc 1 155 0
 410 02d5 488B45C8 		movq	-56(%rbp), %rax
 411 02d9 8945E4   		movl	%eax, -28(%rbp)
 156:/development/eAPI/eapidk-code/apps/EApiValidateAPI/linux/../../common/EApiAHStr.c ****   size_t StringBufferLenBck=StrBufLen;
 412              		.loc 1 156 0
 413 02dc 488B45C8 		movq	-56(%rbp), %rax
 414 02e0 488945F0 		movq	%rax, -16(%rbp)
 157:/development/eAPI/eapidk-code/apps/EApiValidateAPI/linux/../../common/EApiAHStr.c ****   EAPI_APP_ASSERT_PARAMATER_NULL(EApiAHGetString, EAPI_INVALID_STRLEN, pString);
 415              		.loc 1 157 0
 416 02e4 48837DD0 		cmpq	$0, -48(%rbp)
 416      00
 417 02e9 7544     		jne	.L22
 418              		.loc 1 157 0 is_stmt 0 discriminator 1
 419 02eb 4883EC08 		subq	$8, %rsp
 420 02ef 68000000 		pushq	$.LC22
 420      00
 421 02f4 41B90000 		movl	$.LC19, %r9d
 421      0000
 422 02fa 41B8FFFF 		movl	$-1, %r8d
 422      FFFF
 423 0300 B99D0000 		movl	$157, %ecx
 423      00
 424 0305 BA000000 		movl	$.LC26, %edx
 424      00
 425 030a BE000000 		movl	$.LC21, %esi
 425      00
 426 030f BF450000 		movl	$69, %edi
 426      00
 427 0314 B8000000 		movl	$0, %eax
 427      00
 428 0319 E8000000 		call	siFormattedMessage_SC
GAS LISTING /tmp/ccDSOxRM.s 			page 15


 428      00
 429 031e 4883C410 		addq	$16, %rsp
 430 0322 48C745E8 		movq	$-1, -24(%rbp)
 430      FFFFFFFF 
 431 032a E93F0100 		jmp	.L23
 431      00
 432              	.L22:
 158:/development/eAPI/eapidk-code/apps/EApiValidateAPI/linux/../../common/EApiAHStr.c ****   EAPI_APP_ASSERT_PARAMATER_ZERO(EApiAHGetString, EAPI_INVALID_STRLEN, StrBufLen);
 433              		.loc 1 158 0 is_stmt 1
 434 032f 48837DC8 		cmpq	$0, -56(%rbp)
 434      00
 435 0334 7544     		jne	.L24
 436              		.loc 1 158 0 is_stmt 0 discriminator 1
 437 0336 4883EC08 		subq	$8, %rsp
 438 033a 68000000 		pushq	$.LC23
 438      00
 439 033f 41B90000 		movl	$.LC19, %r9d
 439      0000
 440 0345 41B8FFFF 		movl	$-1, %r8d
 440      FFFF
 441 034b B99E0000 		movl	$158, %ecx
 441      00
 442 0350 BA000000 		movl	$.LC26, %edx
 442      00
 443 0355 BE000000 		movl	$.LC21, %esi
 443      00
 444 035a BF450000 		movl	$69, %edi
 444      00
 445 035f B8000000 		movl	$0, %eax
 445      00
 446 0364 E8000000 		call	siFormattedMessage_SC
 446      00
 447 0369 4883C410 		addq	$16, %rsp
 448 036d 48C745E8 		movq	$-1, -24(%rbp)
 448      FFFFFFFF 
 449 0375 E9F40000 		jmp	.L23
 449      00
 450              	.L24:
 159:/development/eAPI/eapidk-code/apps/EApiValidateAPI/linux/../../common/EApiAHStr.c **** 
 160:/development/eAPI/eapidk-code/apps/EApiValidateAPI/linux/../../common/EApiAHStr.c ****   StatusCode=EApiBoardGetString(StringID, pString, &StringLenLcl);
 451              		.loc 1 160 0 is_stmt 1
 452 037a 488D55E4 		leaq	-28(%rbp), %rdx
 453 037e 488B4DD0 		movq	-48(%rbp), %rcx
 454 0382 8B45DC   		movl	-36(%rbp), %eax
 455 0385 4889CE   		movq	%rcx, %rsi
 456 0388 89C7     		movl	%eax, %edi
 457 038a E8000000 		call	EApiBoardGetStringA
 457      00
 458 038f 89C0     		movl	%eax, %eax
 459 0391 488945E8 		movq	%rax, -24(%rbp)
 161:/development/eAPI/eapidk-code/apps/EApiValidateAPI/linux/../../common/EApiAHStr.c ****   if(!EAPI_TEST_SUCCESS(StatusCode))
 460              		.loc 1 161 0
 461 0395 48837DE8 		cmpq	$0, -24(%rbp)
 461      00
 462 039a 741B     		je	.L25
 162:/development/eAPI/eapidk-code/apps/EApiValidateAPI/linux/../../common/EApiAHStr.c ****       StringLenLcl=(uint32_t)EApiAHCreateErrorString((uint32_t)StatusCode, pString, StringBufferLen
 463              		.loc 1 162 0
GAS LISTING /tmp/ccDSOxRM.s 			page 16


 464 039c 488B45E8 		movq	-24(%rbp), %rax
 465 03a0 89C1     		movl	%eax, %ecx
 466 03a2 488B55F0 		movq	-16(%rbp), %rdx
 467 03a6 488B45D0 		movq	-48(%rbp), %rax
 468 03aa 4889C6   		movq	%rax, %rsi
 469 03ad 89CF     		movl	%ecx, %edi
 470 03af E8000000 		call	EApiAHCreateErrorString
 470      00
 471 03b4 8945E4   		movl	%eax, -28(%rbp)
 472              	.L25:
 163:/development/eAPI/eapidk-code/apps/EApiValidateAPI/linux/../../common/EApiAHStr.c **** #if (STRICT_VALIDATION>0)
 164:/development/eAPI/eapidk-code/apps/EApiValidateAPI/linux/../../common/EApiAHStr.c ****   EAPI_APP_RETURN_ERROR_IF(
 473              		.loc 1 164 0
 474 03b7 8B45E4   		movl	-28(%rbp), %eax
 475 03ba 89C0     		movl	%eax, %eax
 476 03bc 483B45F0 		cmpq	-16(%rbp), %rax
 477 03c0 7641     		jbe	.L26
 478              		.loc 1 164 0 is_stmt 0 discriminator 1
 479 03c2 4883EC08 		subq	$8, %rsp
 480 03c6 68000000 		pushq	$.LC28
 480      00
 481 03cb 41B90000 		movl	$.LC19, %r9d
 481      0000
 482 03d1 41B8FFFF 		movl	$-1, %r8d
 482      FFFF
 483 03d7 B9A90000 		movl	$169, %ecx
 483      00
 484 03dc BA000000 		movl	$.LC27, %edx
 484      00
 485 03e1 BE000000 		movl	$.LC21, %esi
 485      00
 486 03e6 BF450000 		movl	$69, %edi
 486      00
 487 03eb B8000000 		movl	$0, %eax
 487      00
 488 03f0 E8000000 		call	siFormattedMessage_SC
 488      00
 489 03f5 4883C410 		addq	$16, %rsp
 490 03f9 48C745E8 		movq	$-1, -24(%rbp)
 490      FFFFFFFF 
 491 0401 EB6B     		jmp	.L23
 492              	.L26:
 165:/development/eAPI/eapidk-code/apps/EApiValidateAPI/linux/../../common/EApiAHStr.c ****       EApiAHGetStringAlloc, 
 166:/development/eAPI/eapidk-code/apps/EApiValidateAPI/linux/../../common/EApiAHStr.c ****       (StringLenLcl>StringBufferLenBck), 
 167:/development/eAPI/eapidk-code/apps/EApiValidateAPI/linux/../../common/EApiAHStr.c ****       EAPI_INVALID_STRLEN, 
 168:/development/eAPI/eapidk-code/apps/EApiValidateAPI/linux/../../common/EApiAHStr.c ****       "Interface Returning Different String Lengths"
 169:/development/eAPI/eapidk-code/apps/EApiValidateAPI/linux/../../common/EApiAHStr.c ****       );
 170:/development/eAPI/eapidk-code/apps/EApiValidateAPI/linux/../../common/EApiAHStr.c ****   if(EApiStrLen(pString, StringBufferLenBck)==StringBufferLenBck)
 493              		.loc 1 170 0 is_stmt 1
 494 0403 488B55F0 		movq	-16(%rbp), %rdx
 495 0407 488B45D0 		movq	-48(%rbp), %rax
 496 040b 4889D6   		movq	%rdx, %rsi
 497 040e 4889C7   		movq	%rax, %rdi
 498 0411 E8000000 		call	EApiStrLen
 498      00
 499 0416 483B45F0 		cmpq	-16(%rbp), %rax
 500 041a 7549     		jne	.L27
GAS LISTING /tmp/ccDSOxRM.s 			page 17


 171:/development/eAPI/eapidk-code/apps/EApiValidateAPI/linux/../../common/EApiAHStr.c ****   {
 172:/development/eAPI/eapidk-code/apps/EApiValidateAPI/linux/../../common/EApiAHStr.c ****      EAPI_FORMATED_MES('E', 
 501              		.loc 1 172 0
 502 041c 4883EC08 		subq	$8, %rsp
 503 0420 68000000 		pushq	$.LC29
 503      00
 504 0425 41B90000 		movl	$.LC19, %r9d
 504      0000
 505 042b 41B8FFFF 		movl	$-1, %r8d
 505      FFFF
 506 0431 B9B00000 		movl	$176, %ecx
 506      00
 507 0436 BA000000 		movl	$.LC26, %edx
 507      00
 508 043b BE000000 		movl	$.LC21, %esi
 508      00
 509 0440 BF450000 		movl	$69, %edi
 509      00
 510 0445 B8000000 		movl	$0, %eax
 510      00
 511 044a E8000000 		call	siFormattedMessage_SC
 511      00
 512 044f 4883C410 		addq	$16, %rsp
 173:/development/eAPI/eapidk-code/apps/EApiValidateAPI/linux/../../common/EApiAHStr.c ****          EApiAHGetString, 
 174:/development/eAPI/eapidk-code/apps/EApiValidateAPI/linux/../../common/EApiAHStr.c ****          EAPI_INVALID_STRLEN, 
 175:/development/eAPI/eapidk-code/apps/EApiValidateAPI/linux/../../common/EApiAHStr.c ****          "Returned String Missing Terminating \\0 Character." 
 176:/development/eAPI/eapidk-code/apps/EApiValidateAPI/linux/../../common/EApiAHStr.c ****          );
 177:/development/eAPI/eapidk-code/apps/EApiValidateAPI/linux/../../common/EApiAHStr.c ****     pString[StringBufferLenBck-1]=TEXT('\0');
 513              		.loc 1 177 0
 514 0453 488B45F0 		movq	-16(%rbp), %rax
 515 0457 488D50FF 		leaq	-1(%rax), %rdx
 516 045b 488B45D0 		movq	-48(%rbp), %rax
 517 045f 4801D0   		addq	%rdx, %rax
 518 0462 C60000   		movb	$0, (%rax)
 519              	.L27:
 178:/development/eAPI/eapidk-code/apps/EApiValidateAPI/linux/../../common/EApiAHStr.c ****   }
 179:/development/eAPI/eapidk-code/apps/EApiValidateAPI/linux/../../common/EApiAHStr.c **** #endif
 180:/development/eAPI/eapidk-code/apps/EApiValidateAPI/linux/../../common/EApiAHStr.c ****   StatusCode=StringLenLcl;
 520              		.loc 1 180 0
 521 0465 8B45E4   		movl	-28(%rbp), %eax
 522 0468 89C0     		movl	%eax, %eax
 523 046a 488945E8 		movq	%rax, -24(%rbp)
 524              	.L23:
 181:/development/eAPI/eapidk-code/apps/EApiValidateAPI/linux/../../common/EApiAHStr.c **** EAPI_APP_ASSERT_EXIT
 182:/development/eAPI/eapidk-code/apps/EApiValidateAPI/linux/../../common/EApiAHStr.c **** /* SuccessExit: */
 183:/development/eAPI/eapidk-code/apps/EApiValidateAPI/linux/../../common/EApiAHStr.c ****   return StatusCode;
 525              		.loc 1 183 0
 526 046e 488B45E8 		movq	-24(%rbp), %rax
 184:/development/eAPI/eapidk-code/apps/EApiValidateAPI/linux/../../common/EApiAHStr.c **** }
 527              		.loc 1 184 0
 528 0472 488B4DF8 		movq	-8(%rbp), %rcx
 529 0476 6448330C 		xorq	%fs:40, %rcx
 529      25280000 
 529      00
 530 047f 7405     		je	.L29
 531 0481 E8000000 		call	__stack_chk_fail
 531      00
GAS LISTING /tmp/ccDSOxRM.s 			page 18


 532              	.L29:
 533 0486 C9       		leave
 534              		.cfi_def_cfa 7, 8
 535 0487 C3       		ret
 536              		.cfi_endproc
 537              	.LFE4:
 539              		.section	.rodata
 540              	.LC30:
 541 0482 4D656D6F 		.string	"Memory Allocation Error"
 541      72792041 
 541      6C6C6F63 
 541      6174696F 
 541      6E204572 
 542              		.text
 543              		.globl	EApiAHGetStringAlloc
 545              	EApiAHGetStringAlloc:
 546              	.LFB5:
 185:/development/eAPI/eapidk-code/apps/EApiValidateAPI/linux/../../common/EApiAHStr.c **** 
 186:/development/eAPI/eapidk-code/apps/EApiValidateAPI/linux/../../common/EApiAHStr.c **** EApiStatus_t 
 187:/development/eAPI/eapidk-code/apps/EApiValidateAPI/linux/../../common/EApiAHStr.c **** EApiAHGetStringAlloc(
 188:/development/eAPI/eapidk-code/apps/EApiValidateAPI/linux/../../common/EApiAHStr.c ****     __IN  uint32_t        StringID, /* EApi String ID */
 189:/development/eAPI/eapidk-code/apps/EApiValidateAPI/linux/../../common/EApiAHStr.c ****     __OUT TCHAR * *const  pString   /* Pointer to where string 
 190:/development/eAPI/eapidk-code/apps/EApiValidateAPI/linux/../../common/EApiAHStr.c ****                                      * pointer should be stored 
 191:/development/eAPI/eapidk-code/apps/EApiValidateAPI/linux/../../common/EApiAHStr.c ****                                      */
 192:/development/eAPI/eapidk-code/apps/EApiValidateAPI/linux/../../common/EApiAHStr.c ****     )
 193:/development/eAPI/eapidk-code/apps/EApiValidateAPI/linux/../../common/EApiAHStr.c **** {
 547              		.loc 1 193 0
 548              		.cfi_startproc
 549 0488 55       		pushq	%rbp
 550              		.cfi_def_cfa_offset 16
 551              		.cfi_offset 6, -16
 552 0489 4889E5   		movq	%rsp, %rbp
 553              		.cfi_def_cfa_register 6
 554 048c 4883EC30 		subq	$48, %rsp
 555 0490 897DDC   		movl	%edi, -36(%rbp)
 556 0493 488975D0 		movq	%rsi, -48(%rbp)
 557              		.loc 1 193 0
 558 0497 64488B04 		movq	%fs:40, %rax
 558      25280000 
 558      00
 559 04a0 488945F8 		movq	%rax, -8(%rbp)
 560 04a4 31C0     		xorl	%eax, %eax
 194:/development/eAPI/eapidk-code/apps/EApiValidateAPI/linux/../../common/EApiAHStr.c ****   EApiStatus_t StatusCode=EAPI_STATUS_SUCCESS;
 561              		.loc 1 194 0
 562 04a6 C745F000 		movl	$0, -16(%rbp)
 562      000000
 195:/development/eAPI/eapidk-code/apps/EApiValidateAPI/linux/../../common/EApiAHStr.c ****   uint32_t StringLen=0;
 563              		.loc 1 195 0
 564 04ad C745EC00 		movl	$0, -20(%rbp)
 564      000000
 196:/development/eAPI/eapidk-code/apps/EApiValidateAPI/linux/../../common/EApiAHStr.c ****   uint32_t StringBufferLenBck=0;
 565              		.loc 1 196 0
 566 04b4 C745F400 		movl	$0, -12(%rbp)
 566      000000
 197:/development/eAPI/eapidk-code/apps/EApiValidateAPI/linux/../../common/EApiAHStr.c ****   EAPI_APP_ASSERT_PARAMATER_NULL(EApiAHGetString, EAPI_STATUS_INVALID_PARAMETER, pString);
 567              		.loc 1 197 0
 568 04bb 48837DD0 		cmpq	$0, -48(%rbp)
GAS LISTING /tmp/ccDSOxRM.s 			page 19


 568      00
 569 04c0 7543     		jne	.L31
 570              		.loc 1 197 0 is_stmt 0 discriminator 1
 571 04c2 4883EC08 		subq	$8, %rsp
 572 04c6 68000000 		pushq	$.LC22
 572      00
 573 04cb 41B90000 		movl	$.LC19, %r9d
 573      0000
 574 04d1 41B8FFFE 		movl	$-257, %r8d
 574      FFFF
 575 04d7 B9C50000 		movl	$197, %ecx
 575      00
 576 04dc BA000000 		movl	$.LC26, %edx
 576      00
 577 04e1 BE000000 		movl	$.LC21, %esi
 577      00
 578 04e6 BF450000 		movl	$69, %edi
 578      00
 579 04eb B8000000 		movl	$0, %eax
 579      00
 580 04f0 E8000000 		call	siFormattedMessage_SC
 580      00
 581 04f5 4883C410 		addq	$16, %rsp
 582 04f9 C745F0FF 		movl	$-257, -16(%rbp)
 582      FEFFFF
 583 0500 E9880100 		jmp	.L32
 583      00
 584              	.L31:
 198:/development/eAPI/eapidk-code/apps/EApiValidateAPI/linux/../../common/EApiAHStr.c ****   *pString=NULL;
 585              		.loc 1 198 0 is_stmt 1
 586 0505 488B45D0 		movq	-48(%rbp), %rax
 587 0509 48C70000 		movq	$0, (%rax)
 587      000000
 199:/development/eAPI/eapidk-code/apps/EApiValidateAPI/linux/../../common/EApiAHStr.c ****   StatusCode=EApiBoardGetString(StringID, *pString, &StringLen);
 588              		.loc 1 199 0
 589 0510 488B45D0 		movq	-48(%rbp), %rax
 590 0514 488B08   		movq	(%rax), %rcx
 591 0517 488D55EC 		leaq	-20(%rbp), %rdx
 592 051b 8B45DC   		movl	-36(%rbp), %eax
 593 051e 4889CE   		movq	%rcx, %rsi
 594 0521 89C7     		movl	%eax, %edi
 595 0523 E8000000 		call	EApiBoardGetStringA
 595      00
 596 0528 8945F0   		movl	%eax, -16(%rbp)
 200:/development/eAPI/eapidk-code/apps/EApiValidateAPI/linux/../../common/EApiAHStr.c ****   switch(StatusCode){
 597              		.loc 1 200 0
 598 052b 8B45F0   		movl	-16(%rbp), %eax
 599 052e 3DFFF9FF 		cmpl	$-1537, %eax
 599      FF
 600 0533 0F854001 		jne	.L40
 600      0000
 201:/development/eAPI/eapidk-code/apps/EApiValidateAPI/linux/../../common/EApiAHStr.c ****     case EAPI_STATUS_MORE_DATA:
 202:/development/eAPI/eapidk-code/apps/EApiValidateAPI/linux/../../common/EApiAHStr.c ****       StringBufferLenBck=StringLen;
 601              		.loc 1 202 0
 602 0539 8B45EC   		movl	-20(%rbp), %eax
 603 053c 8945F4   		movl	%eax, -12(%rbp)
 203:/development/eAPI/eapidk-code/apps/EApiValidateAPI/linux/../../common/EApiAHStr.c ****       *pString=malloc(StringLen*sizeof(TCHAR));
GAS LISTING /tmp/ccDSOxRM.s 			page 20


 604              		.loc 1 203 0
 605 053f 8B45EC   		movl	-20(%rbp), %eax
 606 0542 89C0     		movl	%eax, %eax
 607 0544 4889C7   		movq	%rax, %rdi
 608 0547 E8000000 		call	malloc
 608      00
 609 054c 4889C2   		movq	%rax, %rdx
 610 054f 488B45D0 		movq	-48(%rbp), %rax
 611 0553 488910   		movq	%rdx, (%rax)
 204:/development/eAPI/eapidk-code/apps/EApiValidateAPI/linux/../../common/EApiAHStr.c **** 
 205:/development/eAPI/eapidk-code/apps/EApiValidateAPI/linux/../../common/EApiAHStr.c ****       EAPI_APP_RETURN_ERROR_IF(
 612              		.loc 1 205 0
 613 0556 488B45D0 		movq	-48(%rbp), %rax
 614 055a 488B00   		movq	(%rax), %rax
 615 055d 4885C0   		testq	%rax, %rax
 616 0560 7543     		jne	.L35
 617              		.loc 1 205 0 is_stmt 0 discriminator 1
 618 0562 4883EC08 		subq	$8, %rsp
 619 0566 68000000 		pushq	$.LC30
 619      00
 620 056b 41B90000 		movl	$.LC19, %r9d
 620      0000
 621 0571 41B8FDFF 		movl	$-3, %r8d
 621      FFFF
 622 0577 B9D20000 		movl	$210, %ecx
 622      00
 623 057c BA000000 		movl	$.LC27, %edx
 623      00
 624 0581 BE000000 		movl	$.LC21, %esi
 624      00
 625 0586 BF450000 		movl	$69, %edi
 625      00
 626 058b B8000000 		movl	$0, %eax
 626      00
 627 0590 E8000000 		call	siFormattedMessage_SC
 627      00
 628 0595 4883C410 		addq	$16, %rsp
 629 0599 C745F0FD 		movl	$-3, -16(%rbp)
 629      FFFFFF
 630 05a0 E9E80000 		jmp	.L32
 630      00
 631              	.L35:
 206:/development/eAPI/eapidk-code/apps/EApiValidateAPI/linux/../../common/EApiAHStr.c ****           EApiAHGetStringAlloc, 
 207:/development/eAPI/eapidk-code/apps/EApiValidateAPI/linux/../../common/EApiAHStr.c ****           (*pString==NULL), 
 208:/development/eAPI/eapidk-code/apps/EApiValidateAPI/linux/../../common/EApiAHStr.c ****           EAPI_STATUS_ALLOC_ERROR, 
 209:/development/eAPI/eapidk-code/apps/EApiValidateAPI/linux/../../common/EApiAHStr.c ****           "Memory Allocation Error"
 210:/development/eAPI/eapidk-code/apps/EApiValidateAPI/linux/../../common/EApiAHStr.c ****           );
 211:/development/eAPI/eapidk-code/apps/EApiValidateAPI/linux/../../common/EApiAHStr.c **** 
 212:/development/eAPI/eapidk-code/apps/EApiValidateAPI/linux/../../common/EApiAHStr.c ****       StatusCode=EApiBoardGetString(StringID, *pString, &StringLen);
 632              		.loc 1 212 0 is_stmt 1
 633 05a5 488B45D0 		movq	-48(%rbp), %rax
 634 05a9 488B08   		movq	(%rax), %rcx
 635 05ac 488D55EC 		leaq	-20(%rbp), %rdx
 636 05b0 8B45DC   		movl	-36(%rbp), %eax
 637 05b3 4889CE   		movq	%rcx, %rsi
 638 05b6 89C7     		movl	%eax, %edi
 639 05b8 E8000000 		call	EApiBoardGetStringA
GAS LISTING /tmp/ccDSOxRM.s 			page 21


 639      00
 640 05bd 8945F0   		movl	%eax, -16(%rbp)
 213:/development/eAPI/eapidk-code/apps/EApiValidateAPI/linux/../../common/EApiAHStr.c **** #if (STRICT_VALIDATION>0)
 214:/development/eAPI/eapidk-code/apps/EApiValidateAPI/linux/../../common/EApiAHStr.c ****       EAPI_APP_RETURN_ERROR_IF(
 641              		.loc 1 214 0
 642 05c0 8B45EC   		movl	-20(%rbp), %eax
 643 05c3 3B45F4   		cmpl	-12(%rbp), %eax
 644 05c6 7643     		jbe	.L36
 645              		.loc 1 214 0 is_stmt 0 discriminator 1
 646 05c8 4883EC08 		subq	$8, %rsp
 647 05cc 68000000 		pushq	$.LC28
 647      00
 648 05d1 41B90000 		movl	$.LC19, %r9d
 648      0000
 649 05d7 41B8FFF0 		movl	$-3841, %r8d
 649      FFFF
 650 05dd B9DB0000 		movl	$219, %ecx
 650      00
 651 05e2 BA000000 		movl	$.LC27, %edx
 651      00
 652 05e7 BE000000 		movl	$.LC21, %esi
 652      00
 653 05ec BF450000 		movl	$69, %edi
 653      00
 654 05f1 B8000000 		movl	$0, %eax
 654      00
 655 05f6 E8000000 		call	siFormattedMessage_SC
 655      00
 656 05fb 4883C410 		addq	$16, %rsp
 657 05ff C745F0FF 		movl	$-3841, -16(%rbp)
 657      F0FFFF
 658 0606 E9820000 		jmp	.L32
 658      00
 659              	.L36:
 215:/development/eAPI/eapidk-code/apps/EApiValidateAPI/linux/../../common/EApiAHStr.c ****           EApiAHGetStringAlloc, 
 216:/development/eAPI/eapidk-code/apps/EApiValidateAPI/linux/../../common/EApiAHStr.c ****           (StringLen>StringBufferLenBck), 
 217:/development/eAPI/eapidk-code/apps/EApiValidateAPI/linux/../../common/EApiAHStr.c ****           EAPI_STATUS_ERROR, 
 218:/development/eAPI/eapidk-code/apps/EApiValidateAPI/linux/../../common/EApiAHStr.c ****           "Interface Returning Different String Lengths"
 219:/development/eAPI/eapidk-code/apps/EApiValidateAPI/linux/../../common/EApiAHStr.c ****           );
 220:/development/eAPI/eapidk-code/apps/EApiValidateAPI/linux/../../common/EApiAHStr.c ****       if(EApiStrLen(*pString, StringBufferLenBck)==StringBufferLenBck)
 660              		.loc 1 220 0 is_stmt 1
 661 060b 8B55F4   		movl	-12(%rbp), %edx
 662 060e 488B45D0 		movq	-48(%rbp), %rax
 663 0612 488B00   		movq	(%rax), %rax
 664 0615 4889D6   		movq	%rdx, %rsi
 665 0618 4889C7   		movq	%rax, %rdi
 666 061b E8000000 		call	EApiStrLen
 666      00
 667 0620 4889C2   		movq	%rax, %rdx
 668 0623 8B45F4   		movl	-12(%rbp), %eax
 669 0626 4839C2   		cmpq	%rax, %rdx
 670 0629 7561     		jne	.L41
 221:/development/eAPI/eapidk-code/apps/EApiValidateAPI/linux/../../common/EApiAHStr.c ****       {
 222:/development/eAPI/eapidk-code/apps/EApiValidateAPI/linux/../../common/EApiAHStr.c ****         EAPI_FORMATED_MES('E', 
 671              		.loc 1 222 0
 672 062b 4883EC08 		subq	$8, %rsp
 673 062f 68000000 		pushq	$.LC29
GAS LISTING /tmp/ccDSOxRM.s 			page 22


 673      00
 674 0634 41B90000 		movl	$.LC19, %r9d
 674      0000
 675 063a 41B8FFF0 		movl	$-3841, %r8d
 675      FFFF
 676 0640 B9E20000 		movl	$226, %ecx
 676      00
 677 0645 BA000000 		movl	$.LC27, %edx
 677      00
 678 064a BE000000 		movl	$.LC21, %esi
 678      00
 679 064f BF450000 		movl	$69, %edi
 679      00
 680 0654 B8000000 		movl	$0, %eax
 680      00
 681 0659 E8000000 		call	siFormattedMessage_SC
 681      00
 682 065e 4883C410 		addq	$16, %rsp
 223:/development/eAPI/eapidk-code/apps/EApiValidateAPI/linux/../../common/EApiAHStr.c ****             EApiAHGetStringAlloc, 
 224:/development/eAPI/eapidk-code/apps/EApiValidateAPI/linux/../../common/EApiAHStr.c ****             EAPI_STATUS_ERROR, 
 225:/development/eAPI/eapidk-code/apps/EApiValidateAPI/linux/../../common/EApiAHStr.c ****             "Returned String Missing Terminating \\0 Character." 
 226:/development/eAPI/eapidk-code/apps/EApiValidateAPI/linux/../../common/EApiAHStr.c ****             );
 227:/development/eAPI/eapidk-code/apps/EApiValidateAPI/linux/../../common/EApiAHStr.c ****         (*pString)[StringBufferLenBck-1]=TEXT('\0');
 683              		.loc 1 227 0
 684 0662 488B45D0 		movq	-48(%rbp), %rax
 685 0666 488B00   		movq	(%rax), %rax
 686 0669 8B55F4   		movl	-12(%rbp), %edx
 687 066c 83EA01   		subl	$1, %edx
 688 066f 89D2     		movl	%edx, %edx
 689 0671 4801D0   		addq	%rdx, %rax
 690 0674 C60000   		movb	$0, (%rax)
 228:/development/eAPI/eapidk-code/apps/EApiValidateAPI/linux/../../common/EApiAHStr.c ****       }
 229:/development/eAPI/eapidk-code/apps/EApiValidateAPI/linux/../../common/EApiAHStr.c **** #endif
 230:/development/eAPI/eapidk-code/apps/EApiValidateAPI/linux/../../common/EApiAHStr.c ****       break;
 691              		.loc 1 230 0
 692 0677 EB13     		jmp	.L41
 693              	.L40:
 231:/development/eAPI/eapidk-code/apps/EApiValidateAPI/linux/../../common/EApiAHStr.c ****     default:
 232:/development/eAPI/eapidk-code/apps/EApiValidateAPI/linux/../../common/EApiAHStr.c ****       EApiAHCreateErrorStringAlloc(StatusCode, pString);
 694              		.loc 1 232 0
 695 0679 488B55D0 		movq	-48(%rbp), %rdx
 696 067d 8B45F0   		movl	-16(%rbp), %eax
 697 0680 4889D6   		movq	%rdx, %rsi
 698 0683 89C7     		movl	%eax, %edi
 699 0685 E8000000 		call	EApiAHCreateErrorStringAlloc
 699      00
 233:/development/eAPI/eapidk-code/apps/EApiValidateAPI/linux/../../common/EApiAHStr.c ****       break;
 700              		.loc 1 233 0
 701 068a EB01     		jmp	.L32
 702              	.L41:
 230:/development/eAPI/eapidk-code/apps/EApiValidateAPI/linux/../../common/EApiAHStr.c ****     default:
 703              		.loc 1 230 0
 704 068c 90       		nop
 705              	.L32:
 234:/development/eAPI/eapidk-code/apps/EApiValidateAPI/linux/../../common/EApiAHStr.c ****   }
 235:/development/eAPI/eapidk-code/apps/EApiValidateAPI/linux/../../common/EApiAHStr.c **** EAPI_APP_ASSERT_EXIT
 236:/development/eAPI/eapidk-code/apps/EApiValidateAPI/linux/../../common/EApiAHStr.c **** /* SuccessExit: */
GAS LISTING /tmp/ccDSOxRM.s 			page 23


 237:/development/eAPI/eapidk-code/apps/EApiValidateAPI/linux/../../common/EApiAHStr.c ****   return StatusCode;
 706              		.loc 1 237 0
 707 068d 8B45F0   		movl	-16(%rbp), %eax
 238:/development/eAPI/eapidk-code/apps/EApiValidateAPI/linux/../../common/EApiAHStr.c **** }
 708              		.loc 1 238 0
 709 0690 488B4DF8 		movq	-8(%rbp), %rcx
 710 0694 6448330C 		xorq	%fs:40, %rcx
 710      25280000 
 710      00
 711 069d 7405     		je	.L39
 712 069f E8000000 		call	__stack_chk_fail
 712      00
 713              	.L39:
 714 06a4 C9       		leave
 715              		.cfi_def_cfa 7, 8
 716 06a5 C3       		ret
 717              		.cfi_endproc
 718              	.LFE5:
 720              		.section	.rodata
 721              	.LC31:
 722 049a 45417069 		.string	"EApiAHCreateDecimalString"
 722      41484372 
 722      65617465 
 722      44656369 
 722      6D616C53 
 723              	.LC32:
 724 04b4 257500   		.string	"%u"
 725              		.text
 726              		.globl	EApiAHCreateDecimalString
 728              	EApiAHCreateDecimalString:
 729              	.LFB6:
 239:/development/eAPI/eapidk-code/apps/EApiValidateAPI/linux/../../common/EApiAHStr.c **** int
 240:/development/eAPI/eapidk-code/apps/EApiValidateAPI/linux/../../common/EApiAHStr.c **** EApiAHCreateDecimalString(
 241:/development/eAPI/eapidk-code/apps/EApiValidateAPI/linux/../../common/EApiAHStr.c ****     __IN  uint32_t        Value     , /* Input Value to be interpreted */ 
 242:/development/eAPI/eapidk-code/apps/EApiValidateAPI/linux/../../common/EApiAHStr.c ****     __OUT TCHAR * const   pString   , /* Pointer To String pBuffer */
 243:/development/eAPI/eapidk-code/apps/EApiValidateAPI/linux/../../common/EApiAHStr.c ****     __IN  const uint32_t  StrBufLen   /* String pBuffer Length */
 244:/development/eAPI/eapidk-code/apps/EApiValidateAPI/linux/../../common/EApiAHStr.c ****     )
 245:/development/eAPI/eapidk-code/apps/EApiValidateAPI/linux/../../common/EApiAHStr.c **** {
 730              		.loc 1 245 0
 731              		.cfi_startproc
 732 06a6 55       		pushq	%rbp
 733              		.cfi_def_cfa_offset 16
 734              		.cfi_offset 6, -16
 735 06a7 4889E5   		movq	%rsp, %rbp
 736              		.cfi_def_cfa_register 6
 737 06aa 4883EC20 		subq	$32, %rsp
 738 06ae 897DEC   		movl	%edi, -20(%rbp)
 739 06b1 488975E0 		movq	%rsi, -32(%rbp)
 740 06b5 8955E8   		movl	%edx, -24(%rbp)
 246:/development/eAPI/eapidk-code/apps/EApiValidateAPI/linux/../../common/EApiAHStr.c ****    int StatusCode=0;
 741              		.loc 1 246 0
 742 06b8 C745FC00 		movl	$0, -4(%rbp)
 742      000000
 247:/development/eAPI/eapidk-code/apps/EApiValidateAPI/linux/../../common/EApiAHStr.c ****     EAPI_APP_ASSERT_PARAMATER_NULL(EApiAHCreateDecimalString, -1, pString);
 743              		.loc 1 247 0
 744 06bf 48837DE0 		cmpq	$0, -32(%rbp)
 744      00
GAS LISTING /tmp/ccDSOxRM.s 			page 24


 745 06c4 7540     		jne	.L43
 746              		.loc 1 247 0 is_stmt 0 discriminator 1
 747 06c6 4883EC08 		subq	$8, %rsp
 748 06ca 68000000 		pushq	$.LC22
 748      00
 749 06cf 41B90000 		movl	$.LC19, %r9d
 749      0000
 750 06d5 41B8FFFF 		movl	$-1, %r8d
 750      FFFF
 751 06db B9F70000 		movl	$247, %ecx
 751      00
 752 06e0 BA000000 		movl	$.LC31, %edx
 752      00
 753 06e5 BE000000 		movl	$.LC21, %esi
 753      00
 754 06ea BF450000 		movl	$69, %edi
 754      00
 755 06ef B8000000 		movl	$0, %eax
 755      00
 756 06f4 E8000000 		call	siFormattedMessage_SC
 756      00
 757 06f9 4883C410 		addq	$16, %rsp
 758 06fd C745FCFF 		movl	$-1, -4(%rbp)
 758      FFFFFF
 759 0704 EB67     		jmp	.L44
 760              	.L43:
 248:/development/eAPI/eapidk-code/apps/EApiValidateAPI/linux/../../common/EApiAHStr.c ****     EAPI_APP_ASSERT_PARAMATER_ZERO(EApiAHCreateDecimalString, -1, StrBufLen);
 761              		.loc 1 248 0 is_stmt 1
 762 0706 837DE800 		cmpl	$0, -24(%rbp)
 763 070a 7540     		jne	.L45
 764              		.loc 1 248 0 is_stmt 0 discriminator 1
 765 070c 4883EC08 		subq	$8, %rsp
 766 0710 68000000 		pushq	$.LC23
 766      00
 767 0715 41B90000 		movl	$.LC19, %r9d
 767      0000
 768 071b 41B8FFFF 		movl	$-1, %r8d
 768      FFFF
 769 0721 B9F80000 		movl	$248, %ecx
 769      00
 770 0726 BA000000 		movl	$.LC31, %edx
 770      00
 771 072b BE000000 		movl	$.LC21, %esi
 771      00
 772 0730 BF450000 		movl	$69, %edi
 772      00
 773 0735 B8000000 		movl	$0, %eax
 773      00
 774 073a E8000000 		call	siFormattedMessage_SC
 774      00
 775 073f 4883C410 		addq	$16, %rsp
 776 0743 C745FCFF 		movl	$-1, -4(%rbp)
 776      FFFFFF
 777 074a EB21     		jmp	.L44
 778              	.L45:
 249:/development/eAPI/eapidk-code/apps/EApiValidateAPI/linux/../../common/EApiAHStr.c ****     StatusCode=EApiSprintf(pString, StrBufLen, TEXT("%")TEXT(PRIu32), Value);
 779              		.loc 1 249 0 is_stmt 1
GAS LISTING /tmp/ccDSOxRM.s 			page 25


 780 074c 8B75E8   		movl	-24(%rbp), %esi
 781 074f 8B55EC   		movl	-20(%rbp), %edx
 782 0752 488B45E0 		movq	-32(%rbp), %rax
 783 0756 89D1     		movl	%edx, %ecx
 784 0758 BA000000 		movl	$.LC32, %edx
 784      00
 785 075d 4889C7   		movq	%rax, %rdi
 786 0760 B8000000 		movl	$0, %eax
 786      00
 787 0765 E8000000 		call	EApiSprintf
 787      00
 788 076a 8945FC   		movl	%eax, -4(%rbp)
 789              	.L44:
 250:/development/eAPI/eapidk-code/apps/EApiValidateAPI/linux/../../common/EApiAHStr.c **** EAPI_APP_ASSERT_EXIT
 251:/development/eAPI/eapidk-code/apps/EApiValidateAPI/linux/../../common/EApiAHStr.c **** /* SuccessExit: */
 252:/development/eAPI/eapidk-code/apps/EApiValidateAPI/linux/../../common/EApiAHStr.c ****     return StatusCode;
 790              		.loc 1 252 0
 791 076d 8B45FC   		movl	-4(%rbp), %eax
 253:/development/eAPI/eapidk-code/apps/EApiValidateAPI/linux/../../common/EApiAHStr.c **** }
 792              		.loc 1 253 0
 793 0770 C9       		leave
 794              		.cfi_def_cfa 7, 8
 795 0771 C3       		ret
 796              		.cfi_endproc
 797              	.LFE6:
 799              		.section	.rodata
 800              	.LC33:
 801 04b7 30782530 		.string	"0x%08X"
 801      385800
 802              		.text
 803              		.globl	EApiAHCreateHexString
 805              	EApiAHCreateHexString:
 806              	.LFB7:
 254:/development/eAPI/eapidk-code/apps/EApiValidateAPI/linux/../../common/EApiAHStr.c **** int
 255:/development/eAPI/eapidk-code/apps/EApiValidateAPI/linux/../../common/EApiAHStr.c **** EApiAHCreateHexString(
 256:/development/eAPI/eapidk-code/apps/EApiValidateAPI/linux/../../common/EApiAHStr.c ****     __IN  uint32_t        Value     , /* Input Value to be interpreted */ 
 257:/development/eAPI/eapidk-code/apps/EApiValidateAPI/linux/../../common/EApiAHStr.c ****     __OUT TCHAR * const   pString   , /* Pointer To String pBuffer */
 258:/development/eAPI/eapidk-code/apps/EApiValidateAPI/linux/../../common/EApiAHStr.c ****     __IN  const uint32_t  StrBufLen   /* String pBuffer Length */
 259:/development/eAPI/eapidk-code/apps/EApiValidateAPI/linux/../../common/EApiAHStr.c ****     )
 260:/development/eAPI/eapidk-code/apps/EApiValidateAPI/linux/../../common/EApiAHStr.c **** {
 807              		.loc 1 260 0
 808              		.cfi_startproc
 809 0772 55       		pushq	%rbp
 810              		.cfi_def_cfa_offset 16
 811              		.cfi_offset 6, -16
 812 0773 4889E5   		movq	%rsp, %rbp
 813              		.cfi_def_cfa_register 6
 814 0776 4883EC20 		subq	$32, %rsp
 815 077a 897DEC   		movl	%edi, -20(%rbp)
 816 077d 488975E0 		movq	%rsi, -32(%rbp)
 817 0781 8955E8   		movl	%edx, -24(%rbp)
 261:/development/eAPI/eapidk-code/apps/EApiValidateAPI/linux/../../common/EApiAHStr.c ****    int StatusCode=0;
 818              		.loc 1 261 0
 819 0784 C745FC00 		movl	$0, -4(%rbp)
 819      000000
 262:/development/eAPI/eapidk-code/apps/EApiValidateAPI/linux/../../common/EApiAHStr.c ****     EAPI_APP_ASSERT_PARAMATER_NULL(EApiAHCreateDecimalString, -1, pString);
 820              		.loc 1 262 0
GAS LISTING /tmp/ccDSOxRM.s 			page 26


 821 078b 48837DE0 		cmpq	$0, -32(%rbp)
 821      00
 822 0790 7540     		jne	.L48
 823              		.loc 1 262 0 is_stmt 0 discriminator 1
 824 0792 4883EC08 		subq	$8, %rsp
 825 0796 68000000 		pushq	$.LC22
 825      00
 826 079b 41B90000 		movl	$.LC19, %r9d
 826      0000
 827 07a1 41B8FFFF 		movl	$-1, %r8d
 827      FFFF
 828 07a7 B9060100 		movl	$262, %ecx
 828      00
 829 07ac BA000000 		movl	$.LC31, %edx
 829      00
 830 07b1 BE000000 		movl	$.LC21, %esi
 830      00
 831 07b6 BF450000 		movl	$69, %edi
 831      00
 832 07bb B8000000 		movl	$0, %eax
 832      00
 833 07c0 E8000000 		call	siFormattedMessage_SC
 833      00
 834 07c5 4883C410 		addq	$16, %rsp
 835 07c9 C745FCFF 		movl	$-1, -4(%rbp)
 835      FFFFFF
 836 07d0 EB67     		jmp	.L49
 837              	.L48:
 263:/development/eAPI/eapidk-code/apps/EApiValidateAPI/linux/../../common/EApiAHStr.c ****     EAPI_APP_ASSERT_PARAMATER_ZERO(EApiAHCreateDecimalString, -1, StrBufLen);
 838              		.loc 1 263 0 is_stmt 1
 839 07d2 837DE800 		cmpl	$0, -24(%rbp)
 840 07d6 7540     		jne	.L50
 841              		.loc 1 263 0 is_stmt 0 discriminator 1
 842 07d8 4883EC08 		subq	$8, %rsp
 843 07dc 68000000 		pushq	$.LC23
 843      00
 844 07e1 41B90000 		movl	$.LC19, %r9d
 844      0000
 845 07e7 41B8FFFF 		movl	$-1, %r8d
 845      FFFF
 846 07ed B9070100 		movl	$263, %ecx
 846      00
 847 07f2 BA000000 		movl	$.LC31, %edx
 847      00
 848 07f7 BE000000 		movl	$.LC21, %esi
 848      00
 849 07fc BF450000 		movl	$69, %edi
 849      00
 850 0801 B8000000 		movl	$0, %eax
 850      00
 851 0806 E8000000 		call	siFormattedMessage_SC
 851      00
 852 080b 4883C410 		addq	$16, %rsp
 853 080f C745FCFF 		movl	$-1, -4(%rbp)
 853      FFFFFF
 854 0816 EB21     		jmp	.L49
 855              	.L50:
GAS LISTING /tmp/ccDSOxRM.s 			page 27


 264:/development/eAPI/eapidk-code/apps/EApiValidateAPI/linux/../../common/EApiAHStr.c ****     StatusCode=EApiSprintf(pString, StrBufLen, TEXT("0x%08")TEXT(PRIX32), Value);
 856              		.loc 1 264 0 is_stmt 1
 857 0818 8B75E8   		movl	-24(%rbp), %esi
 858 081b 8B55EC   		movl	-20(%rbp), %edx
 859 081e 488B45E0 		movq	-32(%rbp), %rax
 860 0822 89D1     		movl	%edx, %ecx
 861 0824 BA000000 		movl	$.LC33, %edx
 861      00
 862 0829 4889C7   		movq	%rax, %rdi
 863 082c B8000000 		movl	$0, %eax
 863      00
 864 0831 E8000000 		call	EApiSprintf
 864      00
 865 0836 8945FC   		movl	%eax, -4(%rbp)
 866              	.L49:
 265:/development/eAPI/eapidk-code/apps/EApiValidateAPI/linux/../../common/EApiAHStr.c **** EAPI_APP_ASSERT_EXIT
 266:/development/eAPI/eapidk-code/apps/EApiValidateAPI/linux/../../common/EApiAHStr.c **** /* SuccessExit: */
 267:/development/eAPI/eapidk-code/apps/EApiValidateAPI/linux/../../common/EApiAHStr.c ****     return StatusCode;
 867              		.loc 1 267 0
 868 0839 8B45FC   		movl	-4(%rbp), %eax
 268:/development/eAPI/eapidk-code/apps/EApiValidateAPI/linux/../../common/EApiAHStr.c **** }
 869              		.loc 1 268 0
 870 083c C9       		leave
 871              		.cfi_def_cfa 7, 8
 872 083d C3       		ret
 873              		.cfi_endproc
 874              	.LFE7:
 876              		.section	.rodata
 877              	.LC34:
 878 04be 25752E25 		.string	"%u.%02u Volts"
 878      30327520 
 878      566F6C74 
 878      7300
 879              		.text
 880              		.globl	EApiAHCreateVoltageString
 882              	EApiAHCreateVoltageString:
 883              	.LFB8:
 269:/development/eAPI/eapidk-code/apps/EApiValidateAPI/linux/../../common/EApiAHStr.c **** int
 270:/development/eAPI/eapidk-code/apps/EApiValidateAPI/linux/../../common/EApiAHStr.c **** EApiAHCreateVoltageString(
 271:/development/eAPI/eapidk-code/apps/EApiValidateAPI/linux/../../common/EApiAHStr.c ****     __IN  uint32_t        Value     , /* Input Value to be interpreted */ 
 272:/development/eAPI/eapidk-code/apps/EApiValidateAPI/linux/../../common/EApiAHStr.c ****     __OUT TCHAR * const   pString   , /* Pointer To String pBuffer */
 273:/development/eAPI/eapidk-code/apps/EApiValidateAPI/linux/../../common/EApiAHStr.c ****     __IN  const uint32_t  StrBufLen   /* String pBuffer Length */
 274:/development/eAPI/eapidk-code/apps/EApiValidateAPI/linux/../../common/EApiAHStr.c ****     )
 275:/development/eAPI/eapidk-code/apps/EApiValidateAPI/linux/../../common/EApiAHStr.c **** {
 884              		.loc 1 275 0
 885              		.cfi_startproc
 886 083e 55       		pushq	%rbp
 887              		.cfi_def_cfa_offset 16
 888              		.cfi_offset 6, -16
 889 083f 4889E5   		movq	%rsp, %rbp
 890              		.cfi_def_cfa_register 6
 891 0842 4883EC20 		subq	$32, %rsp
 892 0846 897DEC   		movl	%edi, -20(%rbp)
 893 0849 488975E0 		movq	%rsi, -32(%rbp)
 894 084d 8955E8   		movl	%edx, -24(%rbp)
 276:/development/eAPI/eapidk-code/apps/EApiValidateAPI/linux/../../common/EApiAHStr.c ****    int StatusCode=0;
 895              		.loc 1 276 0
GAS LISTING /tmp/ccDSOxRM.s 			page 28


 896 0850 C745FC00 		movl	$0, -4(%rbp)
 896      000000
 277:/development/eAPI/eapidk-code/apps/EApiValidateAPI/linux/../../common/EApiAHStr.c ****     EAPI_APP_ASSERT_PARAMATER_NULL(EApiAHCreateDecimalString, -1, pString);
 897              		.loc 1 277 0
 898 0857 48837DE0 		cmpq	$0, -32(%rbp)
 898      00
 899 085c 7543     		jne	.L53
 900              		.loc 1 277 0 is_stmt 0 discriminator 1
 901 085e 4883EC08 		subq	$8, %rsp
 902 0862 68000000 		pushq	$.LC22
 902      00
 903 0867 41B90000 		movl	$.LC19, %r9d
 903      0000
 904 086d 41B8FFFF 		movl	$-1, %r8d
 904      FFFF
 905 0873 B9150100 		movl	$277, %ecx
 905      00
 906 0878 BA000000 		movl	$.LC31, %edx
 906      00
 907 087d BE000000 		movl	$.LC21, %esi
 907      00
 908 0882 BF450000 		movl	$69, %edi
 908      00
 909 0887 B8000000 		movl	$0, %eax
 909      00
 910 088c E8000000 		call	siFormattedMessage_SC
 910      00
 911 0891 4883C410 		addq	$16, %rsp
 912 0895 C745FCFF 		movl	$-1, -4(%rbp)
 912      FFFFFF
 913 089c E99E0000 		jmp	.L54
 913      00
 914              	.L53:
 278:/development/eAPI/eapidk-code/apps/EApiValidateAPI/linux/../../common/EApiAHStr.c ****     EAPI_APP_ASSERT_PARAMATER_ZERO(EApiAHCreateDecimalString, -1, StrBufLen);
 915              		.loc 1 278 0 is_stmt 1
 916 08a1 837DE800 		cmpl	$0, -24(%rbp)
 917 08a5 7540     		jne	.L55
 918              		.loc 1 278 0 is_stmt 0 discriminator 1
 919 08a7 4883EC08 		subq	$8, %rsp
 920 08ab 68000000 		pushq	$.LC23
 920      00
 921 08b0 41B90000 		movl	$.LC19, %r9d
 921      0000
 922 08b6 41B8FFFF 		movl	$-1, %r8d
 922      FFFF
 923 08bc B9160100 		movl	$278, %ecx
 923      00
 924 08c1 BA000000 		movl	$.LC31, %edx
 924      00
 925 08c6 BE000000 		movl	$.LC21, %esi
 925      00
 926 08cb BF450000 		movl	$69, %edi
 926      00
 927 08d0 B8000000 		movl	$0, %eax
 927      00
 928 08d5 E8000000 		call	siFormattedMessage_SC
 928      00
GAS LISTING /tmp/ccDSOxRM.s 			page 29


 929 08da 4883C410 		addq	$16, %rsp
 930 08de C745FCFF 		movl	$-1, -4(%rbp)
 930      FFFFFF
 931 08e5 EB58     		jmp	.L54
 932              	.L55:
 279:/development/eAPI/eapidk-code/apps/EApiValidateAPI/linux/../../common/EApiAHStr.c ****     Value/=10;
 933              		.loc 1 279 0 is_stmt 1
 934 08e7 8B45EC   		movl	-20(%rbp), %eax
 935 08ea BACDCCCC 		movl	$-858993459, %edx
 935      CC
 936 08ef F7E2     		mull	%edx
 937 08f1 89D0     		movl	%edx, %eax
 938 08f3 C1E803   		shrl	$3, %eax
 939 08f6 8945EC   		movl	%eax, -20(%rbp)
 280:/development/eAPI/eapidk-code/apps/EApiValidateAPI/linux/../../common/EApiAHStr.c ****     StatusCode=EApiSprintf(pString, StrBufLen, TEXT("%")TEXT(PRIu32)TEXT(".%02")TEXT(PRIu32)TEXT(" 
 940              		.loc 1 280 0
 941 08f9 8B75EC   		movl	-20(%rbp), %esi
 942 08fc BA1F85EB 		movl	$1374389535, %edx
 942      51
 943 0901 89F0     		movl	%esi, %eax
 944 0903 F7E2     		mull	%edx
 945 0905 89D1     		movl	%edx, %ecx
 946 0907 C1E905   		shrl	$5, %ecx
 947 090a 6BC164   		imull	$100, %ecx, %eax
 948 090d 29C6     		subl	%eax, %esi
 949 090f 89F1     		movl	%esi, %ecx
 950 0911 8B45EC   		movl	-20(%rbp), %eax
 951 0914 BA1F85EB 		movl	$1374389535, %edx
 951      51
 952 0919 F7E2     		mull	%edx
 953 091b C1EA05   		shrl	$5, %edx
 954 091e 8B75E8   		movl	-24(%rbp), %esi
 955 0921 488B45E0 		movq	-32(%rbp), %rax
 956 0925 4189C8   		movl	%ecx, %r8d
 957 0928 89D1     		movl	%edx, %ecx
 958 092a BA000000 		movl	$.LC34, %edx
 958      00
 959 092f 4889C7   		movq	%rax, %rdi
 960 0932 B8000000 		movl	$0, %eax
 960      00
 961 0937 E8000000 		call	EApiSprintf
 961      00
 962 093c 8945FC   		movl	%eax, -4(%rbp)
 963              	.L54:
 281:/development/eAPI/eapidk-code/apps/EApiValidateAPI/linux/../../common/EApiAHStr.c **** 
 282:/development/eAPI/eapidk-code/apps/EApiValidateAPI/linux/../../common/EApiAHStr.c **** EAPI_APP_ASSERT_EXIT
 283:/development/eAPI/eapidk-code/apps/EApiValidateAPI/linux/../../common/EApiAHStr.c **** /* SuccessExit: */
 284:/development/eAPI/eapidk-code/apps/EApiValidateAPI/linux/../../common/EApiAHStr.c ****     return StatusCode;
 964              		.loc 1 284 0
 965 093f 8B45FC   		movl	-4(%rbp), %eax
 285:/development/eAPI/eapidk-code/apps/EApiValidateAPI/linux/../../common/EApiAHStr.c **** }
 966              		.loc 1 285 0
 967 0942 C9       		leave
 968              		.cfi_def_cfa 7, 8
 969 0943 C3       		ret
 970              		.cfi_endproc
 971              	.LFE8:
GAS LISTING /tmp/ccDSOxRM.s 			page 30


 973              		.section	.rodata
 974              	.LC35:
 975 04cc 25752052 		.string	"%u RPM"
 975      504D00
 976              		.text
 977              		.globl	EApiAHCreateRotationsString
 979              	EApiAHCreateRotationsString:
 980              	.LFB9:
 286:/development/eAPI/eapidk-code/apps/EApiValidateAPI/linux/../../common/EApiAHStr.c **** int
 287:/development/eAPI/eapidk-code/apps/EApiValidateAPI/linux/../../common/EApiAHStr.c **** EApiAHCreateRotationsString(
 288:/development/eAPI/eapidk-code/apps/EApiValidateAPI/linux/../../common/EApiAHStr.c ****     __IN  uint32_t        Value     , /* Input Value to be interpreted */ 
 289:/development/eAPI/eapidk-code/apps/EApiValidateAPI/linux/../../common/EApiAHStr.c ****     __OUT TCHAR * const   pString   , /* Pointer To String pBuffer */
 290:/development/eAPI/eapidk-code/apps/EApiValidateAPI/linux/../../common/EApiAHStr.c ****     __IN  const uint32_t  StrBufLen   /* String pBuffer Length */
 291:/development/eAPI/eapidk-code/apps/EApiValidateAPI/linux/../../common/EApiAHStr.c ****     )
 292:/development/eAPI/eapidk-code/apps/EApiValidateAPI/linux/../../common/EApiAHStr.c **** {
 981              		.loc 1 292 0
 982              		.cfi_startproc
 983 0944 55       		pushq	%rbp
 984              		.cfi_def_cfa_offset 16
 985              		.cfi_offset 6, -16
 986 0945 4889E5   		movq	%rsp, %rbp
 987              		.cfi_def_cfa_register 6
 988 0948 4883EC20 		subq	$32, %rsp
 989 094c 897DEC   		movl	%edi, -20(%rbp)
 990 094f 488975E0 		movq	%rsi, -32(%rbp)
 991 0953 8955E8   		movl	%edx, -24(%rbp)
 293:/development/eAPI/eapidk-code/apps/EApiValidateAPI/linux/../../common/EApiAHStr.c ****     int StatusCode;
 294:/development/eAPI/eapidk-code/apps/EApiValidateAPI/linux/../../common/EApiAHStr.c ****     EAPI_APP_ASSERT_PARAMATER_NULL(EApiAHCreateDecimalString, -1, pString);
 992              		.loc 1 294 0
 993 0956 48837DE0 		cmpq	$0, -32(%rbp)
 993      00
 994 095b 7540     		jne	.L58
 995              		.loc 1 294 0 is_stmt 0 discriminator 1
 996 095d 4883EC08 		subq	$8, %rsp
 997 0961 68000000 		pushq	$.LC22
 997      00
 998 0966 41B90000 		movl	$.LC19, %r9d
 998      0000
 999 096c 41B8FFFF 		movl	$-1, %r8d
 999      FFFF
 1000 0972 B9260100 		movl	$294, %ecx
 1000      00
 1001 0977 BA000000 		movl	$.LC31, %edx
 1001      00
 1002 097c BE000000 		movl	$.LC21, %esi
 1002      00
 1003 0981 BF450000 		movl	$69, %edi
 1003      00
 1004 0986 B8000000 		movl	$0, %eax
 1004      00
 1005 098b E8000000 		call	siFormattedMessage_SC
 1005      00
 1006 0990 4883C410 		addq	$16, %rsp
 1007 0994 C745FCFF 		movl	$-1, -4(%rbp)
 1007      FFFFFF
 1008 099b EB67     		jmp	.L59
 1009              	.L58:
GAS LISTING /tmp/ccDSOxRM.s 			page 31


 295:/development/eAPI/eapidk-code/apps/EApiValidateAPI/linux/../../common/EApiAHStr.c ****     EAPI_APP_ASSERT_PARAMATER_ZERO(EApiAHCreateDecimalString, -1, StrBufLen);
 1010              		.loc 1 295 0 is_stmt 1
 1011 099d 837DE800 		cmpl	$0, -24(%rbp)
 1012 09a1 7540     		jne	.L60
 1013              		.loc 1 295 0 is_stmt 0 discriminator 1
 1014 09a3 4883EC08 		subq	$8, %rsp
 1015 09a7 68000000 		pushq	$.LC23
 1015      00
 1016 09ac 41B90000 		movl	$.LC19, %r9d
 1016      0000
 1017 09b2 41B8FFFF 		movl	$-1, %r8d
 1017      FFFF
 1018 09b8 B9270100 		movl	$295, %ecx
 1018      00
 1019 09bd BA000000 		movl	$.LC31, %edx
 1019      00
 1020 09c2 BE000000 		movl	$.LC21, %esi
 1020      00
 1021 09c7 BF450000 		movl	$69, %edi
 1021      00
 1022 09cc B8000000 		movl	$0, %eax
 1022      00
 1023 09d1 E8000000 		call	siFormattedMessage_SC
 1023      00
 1024 09d6 4883C410 		addq	$16, %rsp
 1025 09da C745FCFF 		movl	$-1, -4(%rbp)
 1025      FFFFFF
 1026 09e1 EB21     		jmp	.L59
 1027              	.L60:
 296:/development/eAPI/eapidk-code/apps/EApiValidateAPI/linux/../../common/EApiAHStr.c ****     StatusCode=EApiSprintf(pString, StrBufLen, TEXT("%")TEXT(PRIu32)TEXT(" RPM"), Value);
 1028              		.loc 1 296 0 is_stmt 1
 1029 09e3 8B75E8   		movl	-24(%rbp), %esi
 1030 09e6 8B55EC   		movl	-20(%rbp), %edx
 1031 09e9 488B45E0 		movq	-32(%rbp), %rax
 1032 09ed 89D1     		movl	%edx, %ecx
 1033 09ef BA000000 		movl	$.LC35, %edx
 1033      00
 1034 09f4 4889C7   		movq	%rax, %rdi
 1035 09f7 B8000000 		movl	$0, %eax
 1035      00
 1036 09fc E8000000 		call	EApiSprintf
 1036      00
 1037 0a01 8945FC   		movl	%eax, -4(%rbp)
 1038              	.L59:
 297:/development/eAPI/eapidk-code/apps/EApiValidateAPI/linux/../../common/EApiAHStr.c **** 
 298:/development/eAPI/eapidk-code/apps/EApiValidateAPI/linux/../../common/EApiAHStr.c **** EAPI_APP_ASSERT_EXIT
 299:/development/eAPI/eapidk-code/apps/EApiValidateAPI/linux/../../common/EApiAHStr.c **** /* SuccessExit: */
 300:/development/eAPI/eapidk-code/apps/EApiValidateAPI/linux/../../common/EApiAHStr.c ****     return StatusCode;
 1039              		.loc 1 300 0
 1040 0a04 8B45FC   		movl	-4(%rbp), %eax
 301:/development/eAPI/eapidk-code/apps/EApiValidateAPI/linux/../../common/EApiAHStr.c **** }
 1041              		.loc 1 301 0
 1042 0a07 C9       		leave
 1043              		.cfi_def_cfa 7, 8
 1044 0a08 C3       		ret
 1045              		.cfi_endproc
 1046              	.LFE9:
GAS LISTING /tmp/ccDSOxRM.s 			page 32


 1048              		.section	.rodata
 1049              	.LC36:
 1050 04d3 2520692E 		.string	"% i.%i Celcius"
 1050      25692043 
 1050      656C6369 
 1050      757300
 1051              		.text
 1052              		.globl	EApiAHCreateTempString
 1054              	EApiAHCreateTempString:
 1055              	.LFB10:
 302:/development/eAPI/eapidk-code/apps/EApiValidateAPI/linux/../../common/EApiAHStr.c **** int
 303:/development/eAPI/eapidk-code/apps/EApiValidateAPI/linux/../../common/EApiAHStr.c **** EApiAHCreateTempString(
 304:/development/eAPI/eapidk-code/apps/EApiValidateAPI/linux/../../common/EApiAHStr.c ****     __IN  uint32_t        Value     , /* Input Value to be interpreted */ 
 305:/development/eAPI/eapidk-code/apps/EApiValidateAPI/linux/../../common/EApiAHStr.c ****     __OUT TCHAR * const   pString   , /* Pointer To String pBuffer */
 306:/development/eAPI/eapidk-code/apps/EApiValidateAPI/linux/../../common/EApiAHStr.c ****     __IN  const uint32_t  StrBufLen   /* String pBuffer Length */
 307:/development/eAPI/eapidk-code/apps/EApiValidateAPI/linux/../../common/EApiAHStr.c ****     )
 308:/development/eAPI/eapidk-code/apps/EApiValidateAPI/linux/../../common/EApiAHStr.c **** {
 1056              		.loc 1 308 0
 1057              		.cfi_startproc
 1058 0a09 55       		pushq	%rbp
 1059              		.cfi_def_cfa_offset 16
 1060              		.cfi_offset 6, -16
 1061 0a0a 4889E5   		movq	%rsp, %rbp
 1062              		.cfi_def_cfa_register 6
 1063 0a0d 4883EC20 		subq	$32, %rsp
 1064 0a11 897DEC   		movl	%edi, -20(%rbp)
 1065 0a14 488975E0 		movq	%rsi, -32(%rbp)
 1066 0a18 8955E8   		movl	%edx, -24(%rbp)
 309:/development/eAPI/eapidk-code/apps/EApiValidateAPI/linux/../../common/EApiAHStr.c ****     int StatusCode;
 310:/development/eAPI/eapidk-code/apps/EApiValidateAPI/linux/../../common/EApiAHStr.c ****     EAPI_APP_ASSERT_PARAMATER_NULL(EApiAHCreateDecimalString, -1, pString);
 1067              		.loc 1 310 0
 1068 0a1b 48837DE0 		cmpq	$0, -32(%rbp)
 1068      00
 1069 0a20 7543     		jne	.L63
 1070              		.loc 1 310 0 is_stmt 0 discriminator 1
 1071 0a22 4883EC08 		subq	$8, %rsp
 1072 0a26 68000000 		pushq	$.LC22
 1072      00
 1073 0a2b 41B90000 		movl	$.LC19, %r9d
 1073      0000
 1074 0a31 41B8FFFF 		movl	$-1, %r8d
 1074      FFFF
 1075 0a37 B9360100 		movl	$310, %ecx
 1075      00
 1076 0a3c BA000000 		movl	$.LC31, %edx
 1076      00
 1077 0a41 BE000000 		movl	$.LC21, %esi
 1077      00
 1078 0a46 BF450000 		movl	$69, %edi
 1078      00
 1079 0a4b B8000000 		movl	$0, %eax
 1079      00
 1080 0a50 E8000000 		call	siFormattedMessage_SC
 1080      00
 1081 0a55 4883C410 		addq	$16, %rsp
 1082 0a59 C745FCFF 		movl	$-1, -4(%rbp)
 1082      FFFFFF
GAS LISTING /tmp/ccDSOxRM.s 			page 33


 1083 0a60 E9A20000 		jmp	.L64
 1083      00
 1084              	.L63:
 311:/development/eAPI/eapidk-code/apps/EApiValidateAPI/linux/../../common/EApiAHStr.c ****     EAPI_APP_ASSERT_PARAMATER_ZERO(EApiAHCreateDecimalString, -1, StrBufLen);
 1085              		.loc 1 311 0 is_stmt 1
 1086 0a65 837DE800 		cmpl	$0, -24(%rbp)
 1087 0a69 7540     		jne	.L65
 1088              		.loc 1 311 0 is_stmt 0 discriminator 1
 1089 0a6b 4883EC08 		subq	$8, %rsp
 1090 0a6f 68000000 		pushq	$.LC23
 1090      00
 1091 0a74 41B90000 		movl	$.LC19, %r9d
 1091      0000
 1092 0a7a 41B8FFFF 		movl	$-1, %r8d
 1092      FFFF
 1093 0a80 B9370100 		movl	$311, %ecx
 1093      00
 1094 0a85 BA000000 		movl	$.LC31, %edx
 1094      00
 1095 0a8a BE000000 		movl	$.LC21, %esi
 1095      00
 1096 0a8f BF450000 		movl	$69, %edi
 1096      00
 1097 0a94 B8000000 		movl	$0, %eax
 1097      00
 1098 0a99 E8000000 		call	siFormattedMessage_SC
 1098      00
 1099 0a9e 4883C410 		addq	$16, %rsp
 1100 0aa2 C745FCFF 		movl	$-1, -4(%rbp)
 1100      FFFFFF
 1101 0aa9 EB5C     		jmp	.L64
 1102              	.L65:
 312:/development/eAPI/eapidk-code/apps/EApiValidateAPI/linux/../../common/EApiAHStr.c ****     Value-=EAPI_KELVINS_OFFSET;
 1103              		.loc 1 312 0 is_stmt 1
 1104 0aab 816DECAB 		subl	$2731, -20(%rbp)
 1104      0A0000
 313:/development/eAPI/eapidk-code/apps/EApiValidateAPI/linux/../../common/EApiAHStr.c ****     StatusCode=EApiSprintf(pString, StrBufLen, TEXT("% ")TEXT(PRIi32)TEXT(".%")TEXT(PRIi32)TEXT(" C
 1105              		.loc 1 313 0
 1106 0ab2 8B75EC   		movl	-20(%rbp), %esi
 1107 0ab5 BACDCCCC 		movl	$-858993459, %edx
 1107      CC
 1108 0aba 89F0     		movl	%esi, %eax
 1109 0abc F7E2     		mull	%edx
 1110 0abe 89D1     		movl	%edx, %ecx
 1111 0ac0 C1E903   		shrl	$3, %ecx
 1112 0ac3 89C8     		movl	%ecx, %eax
 1113 0ac5 C1E002   		sall	$2, %eax
 1114 0ac8 01C8     		addl	%ecx, %eax
 1115 0aca 01C0     		addl	%eax, %eax
 1116 0acc 89F1     		movl	%esi, %ecx
 1117 0ace 29C1     		subl	%eax, %ecx
 1118 0ad0 8B75EC   		movl	-20(%rbp), %esi
 1119 0ad3 BA676666 		movl	$1717986919, %edx
 1119      66
 1120 0ad8 89F0     		movl	%esi, %eax
 1121 0ada F7EA     		imull	%edx
 1122 0adc C1FA02   		sarl	$2, %edx
GAS LISTING /tmp/ccDSOxRM.s 			page 34


 1123 0adf 89F0     		movl	%esi, %eax
 1124 0ae1 C1F81F   		sarl	$31, %eax
 1125 0ae4 29C2     		subl	%eax, %edx
 1126 0ae6 8B75E8   		movl	-24(%rbp), %esi
 1127 0ae9 488B45E0 		movq	-32(%rbp), %rax
 1128 0aed 4189C8   		movl	%ecx, %r8d
 1129 0af0 89D1     		movl	%edx, %ecx
 1130 0af2 BA000000 		movl	$.LC36, %edx
 1130      00
 1131 0af7 4889C7   		movq	%rax, %rdi
 1132 0afa B8000000 		movl	$0, %eax
 1132      00
 1133 0aff E8000000 		call	EApiSprintf
 1133      00
 1134 0b04 8945FC   		movl	%eax, -4(%rbp)
 1135              	.L64:
 314:/development/eAPI/eapidk-code/apps/EApiValidateAPI/linux/../../common/EApiAHStr.c **** 
 315:/development/eAPI/eapidk-code/apps/EApiValidateAPI/linux/../../common/EApiAHStr.c **** EAPI_APP_ASSERT_EXIT
 316:/development/eAPI/eapidk-code/apps/EApiValidateAPI/linux/../../common/EApiAHStr.c **** /* SuccessExit: */
 317:/development/eAPI/eapidk-code/apps/EApiValidateAPI/linux/../../common/EApiAHStr.c ****     return StatusCode;
 1136              		.loc 1 317 0
 1137 0b07 8B45FC   		movl	-4(%rbp), %eax
 318:/development/eAPI/eapidk-code/apps/EApiValidateAPI/linux/../../common/EApiAHStr.c **** }
 1138              		.loc 1 318 0
 1139 0b0a C9       		leave
 1140              		.cfi_def_cfa 7, 8
 1141 0b0b C3       		ret
 1142              		.cfi_endproc
 1143              	.LFE10:
 1145              		.section	.rodata
 1146              	.LC37:
 1147 04e2 45417069 		.string	"EApiAHCreateTimeString"
 1147      41484372 
 1147      65617465 
 1147      54696D65 
 1147      53747269 
 1148              	.LC38:
 1149 04f9 25752059 		.string	"%u Years "
 1149      65617273 
 1149      2000
 1150              	.LC39:
 1151 0503 25752044 		.string	"%u Days "
 1151      61797320 
 1151      00
 1152              	.LC40:
 1153 050c 25752048 		.string	"%u Hours "
 1153      6F757273 
 1153      2000
 1154              	.LC41:
 1155 0516 2575204D 		.string	"%u Mins"
 1155      696E7300 
 1156              		.text
 1157              		.globl	EApiAHCreateTimeString
 1159              	EApiAHCreateTimeString:
 1160              	.LFB11:
 319:/development/eAPI/eapidk-code/apps/EApiValidateAPI/linux/../../common/EApiAHStr.c **** int
 320:/development/eAPI/eapidk-code/apps/EApiValidateAPI/linux/../../common/EApiAHStr.c **** EApiAHCreateTimeString(
GAS LISTING /tmp/ccDSOxRM.s 			page 35


 321:/development/eAPI/eapidk-code/apps/EApiValidateAPI/linux/../../common/EApiAHStr.c ****     __IN  uint32_t        Value     , /* Input Value to be interpreted */ 
 322:/development/eAPI/eapidk-code/apps/EApiValidateAPI/linux/../../common/EApiAHStr.c ****     __OUT TCHAR * const   pString   , /* Pointer To String pBuffer */
 323:/development/eAPI/eapidk-code/apps/EApiValidateAPI/linux/../../common/EApiAHStr.c ****     __IN  const uint32_t  StrBufLen   /* String pBuffer Length */
 324:/development/eAPI/eapidk-code/apps/EApiValidateAPI/linux/../../common/EApiAHStr.c ****     )
 325:/development/eAPI/eapidk-code/apps/EApiValidateAPI/linux/../../common/EApiAHStr.c **** {
 1161              		.loc 1 325 0
 1162              		.cfi_startproc
 1163 0b0c 55       		pushq	%rbp
 1164              		.cfi_def_cfa_offset 16
 1165              		.cfi_offset 6, -16
 1166 0b0d 4889E5   		movq	%rsp, %rbp
 1167              		.cfi_def_cfa_register 6
 1168 0b10 4883EC20 		subq	$32, %rsp
 1169 0b14 897DEC   		movl	%edi, -20(%rbp)
 1170 0b17 488975E0 		movq	%rsi, -32(%rbp)
 1171 0b1b 8955E8   		movl	%edx, -24(%rbp)
 326:/development/eAPI/eapidk-code/apps/EApiValidateAPI/linux/../../common/EApiAHStr.c ****     int StatusCode;
 327:/development/eAPI/eapidk-code/apps/EApiValidateAPI/linux/../../common/EApiAHStr.c ****     int StrLength=0;
 1172              		.loc 1 327 0
 1173 0b1e C745FC00 		movl	$0, -4(%rbp)
 1173      000000
 328:/development/eAPI/eapidk-code/apps/EApiValidateAPI/linux/../../common/EApiAHStr.c ****     EAPI_APP_ASSERT_PARAMATER_NULL(EApiAHCreateTimeString, -1, pString);
 1174              		.loc 1 328 0
 1175 0b25 48837DE0 		cmpq	$0, -32(%rbp)
 1175      00
 1176 0b2a 7543     		jne	.L68
 1177              		.loc 1 328 0 is_stmt 0 discriminator 1
 1178 0b2c 4883EC08 		subq	$8, %rsp
 1179 0b30 68000000 		pushq	$.LC22
 1179      00
 1180 0b35 41B90000 		movl	$.LC19, %r9d
 1180      0000
 1181 0b3b 41B8FFFF 		movl	$-1, %r8d
 1181      FFFF
 1182 0b41 B9480100 		movl	$328, %ecx
 1182      00
 1183 0b46 BA000000 		movl	$.LC37, %edx
 1183      00
 1184 0b4b BE000000 		movl	$.LC21, %esi
 1184      00
 1185 0b50 BF450000 		movl	$69, %edi
 1185      00
 1186 0b55 B8000000 		movl	$0, %eax
 1186      00
 1187 0b5a E8000000 		call	siFormattedMessage_SC
 1187      00
 1188 0b5f 4883C410 		addq	$16, %rsp
 1189 0b63 C745F8FF 		movl	$-1, -8(%rbp)
 1189      FFFFFF
 1190 0b6a E9060200 		jmp	.L69
 1190      00
 1191              	.L68:
 329:/development/eAPI/eapidk-code/apps/EApiValidateAPI/linux/../../common/EApiAHStr.c ****     EAPI_APP_ASSERT_PARAMATER_ZERO(EApiAHCreateTimeString, -1, StrBufLen);
 1192              		.loc 1 329 0 is_stmt 1
 1193 0b6f 837DE800 		cmpl	$0, -24(%rbp)
 1194 0b73 7543     		jne	.L70
 1195              		.loc 1 329 0 is_stmt 0 discriminator 1
GAS LISTING /tmp/ccDSOxRM.s 			page 36


 1196 0b75 4883EC08 		subq	$8, %rsp
 1197 0b79 68000000 		pushq	$.LC23
 1197      00
 1198 0b7e 41B90000 		movl	$.LC19, %r9d
 1198      0000
 1199 0b84 41B8FFFF 		movl	$-1, %r8d
 1199      FFFF
 1200 0b8a B9490100 		movl	$329, %ecx
 1200      00
 1201 0b8f BA000000 		movl	$.LC37, %edx
 1201      00
 1202 0b94 BE000000 		movl	$.LC21, %esi
 1202      00
 1203 0b99 BF450000 		movl	$69, %edi
 1203      00
 1204 0b9e B8000000 		movl	$0, %eax
 1204      00
 1205 0ba3 E8000000 		call	siFormattedMessage_SC
 1205      00
 1206 0ba8 4883C410 		addq	$16, %rsp
 1207 0bac C745F8FF 		movl	$-1, -8(%rbp)
 1207      FFFFFF
 1208 0bb3 E9BD0100 		jmp	.L69
 1208      00
 1209              	.L70:
 330:/development/eAPI/eapidk-code/apps/EApiValidateAPI/linux/../../common/EApiAHStr.c ****     if(Value/365/24/60)
 1210              		.loc 1 330 0 is_stmt 1
 1211 0bb8 817DEC1F 		cmpl	$525599, -20(%rbp)
 1211      050800
 1212 0bbf 763D     		jbe	.L71
 331:/development/eAPI/eapidk-code/apps/EApiValidateAPI/linux/../../common/EApiAHStr.c ****       StrLength+=EApiSprintf(&pString[StrLength], StrBufLen-StrLength, TEXT("%")TEXT(PRIu32)TEXT(" 
 1213              		.loc 1 331 0
 1214 0bc1 8B45EC   		movl	-20(%rbp), %eax
 1215 0bc4 BACD685C 		movl	$-10721075, %edx
 1215      FF
 1216 0bc9 F7E2     		mull	%edx
 1217 0bcb C1EA13   		shrl	$19, %edx
 1218 0bce 8B45FC   		movl	-4(%rbp), %eax
 1219 0bd1 8B4DE8   		movl	-24(%rbp), %ecx
 1220 0bd4 29C1     		subl	%eax, %ecx
 1221 0bd6 89C8     		movl	%ecx, %eax
 1222 0bd8 89C6     		movl	%eax, %esi
 1223 0bda 8B45FC   		movl	-4(%rbp), %eax
 1224 0bdd 4863C8   		movslq	%eax, %rcx
 1225 0be0 488B45E0 		movq	-32(%rbp), %rax
 1226 0be4 4801C8   		addq	%rcx, %rax
 1227 0be7 89D1     		movl	%edx, %ecx
 1228 0be9 BA000000 		movl	$.LC38, %edx
 1228      00
 1229 0bee 4889C7   		movq	%rax, %rdi
 1230 0bf1 B8000000 		movl	$0, %eax
 1230      00
 1231 0bf6 E8000000 		call	EApiSprintf
 1231      00
 1232 0bfb 0145FC   		addl	%eax, -4(%rbp)
 1233              	.L71:
 332:/development/eAPI/eapidk-code/apps/EApiValidateAPI/linux/../../common/EApiAHStr.c ****     if(StrLength||((Value/24/60)%365))
GAS LISTING /tmp/ccDSOxRM.s 			page 37


 1234              		.loc 1 332 0
 1235 0bfe 837DFC00 		cmpl	$0, -4(%rbp)
 1236 0c02 7531     		jne	.L72
 1237              		.loc 1 332 0 is_stmt 0 discriminator 1
 1238 0c04 8B45EC   		movl	-20(%rbp), %eax
 1239 0c07 C1E805   		shrl	$5, %eax
 1240 0c0a BA065BB0 		movl	$95443718, %edx
 1240      05
 1241 0c0f F7E2     		mull	%edx
 1242 0c11 89D1     		movl	%edx, %ecx
 1243 0c13 BA61F319 		movl	$1729753953, %edx
 1243      67
 1244 0c18 89C8     		movl	%ecx, %eax
 1245 0c1a F7E2     		mull	%edx
 1246 0c1c 89C8     		movl	%ecx, %eax
 1247 0c1e 29D0     		subl	%edx, %eax
 1248 0c20 D1E8     		shrl	%eax
 1249 0c22 01D0     		addl	%edx, %eax
 1250 0c24 C1E808   		shrl	$8, %eax
 1251 0c27 69C06D01 		imull	$365, %eax, %eax
 1251      0000
 1252 0c2d 29C1     		subl	%eax, %ecx
 1253 0c2f 89C8     		movl	%ecx, %eax
 1254 0c31 85C0     		testl	%eax, %eax
 1255 0c33 745B     		je	.L73
 1256              	.L72:
 333:/development/eAPI/eapidk-code/apps/EApiValidateAPI/linux/../../common/EApiAHStr.c ****       StrLength+=EApiSprintf(&pString[StrLength], StrBufLen-StrLength, TEXT("%")TEXT(PRIu32)TEXT(" 
 1257              		.loc 1 333 0 is_stmt 1
 1258 0c35 8B45EC   		movl	-20(%rbp), %eax
 1259 0c38 C1E805   		shrl	$5, %eax
 1260 0c3b BA065BB0 		movl	$95443718, %edx
 1260      05
 1261 0c40 F7E2     		mull	%edx
 1262 0c42 89D1     		movl	%edx, %ecx
 1263 0c44 BA61F319 		movl	$1729753953, %edx
 1263      67
 1264 0c49 89C8     		movl	%ecx, %eax
 1265 0c4b F7E2     		mull	%edx
 1266 0c4d 89C8     		movl	%ecx, %eax
 1267 0c4f 29D0     		subl	%edx, %eax
 1268 0c51 D1E8     		shrl	%eax
 1269 0c53 01D0     		addl	%edx, %eax
 1270 0c55 C1E808   		shrl	$8, %eax
 1271 0c58 69C06D01 		imull	$365, %eax, %eax
 1271      0000
 1272 0c5e 29C1     		subl	%eax, %ecx
 1273 0c60 89C8     		movl	%ecx, %eax
 1274 0c62 8B55FC   		movl	-4(%rbp), %edx
 1275 0c65 8B4DE8   		movl	-24(%rbp), %ecx
 1276 0c68 29D1     		subl	%edx, %ecx
 1277 0c6a 89CA     		movl	%ecx, %edx
 1278 0c6c 89D6     		movl	%edx, %esi
 1279 0c6e 8B55FC   		movl	-4(%rbp), %edx
 1280 0c71 4863CA   		movslq	%edx, %rcx
 1281 0c74 488B55E0 		movq	-32(%rbp), %rdx
 1282 0c78 488D3C11 		leaq	(%rcx,%rdx), %rdi
 1283 0c7c 89C1     		movl	%eax, %ecx
GAS LISTING /tmp/ccDSOxRM.s 			page 38


 1284 0c7e BA000000 		movl	$.LC39, %edx
 1284      00
 1285 0c83 B8000000 		movl	$0, %eax
 1285      00
 1286 0c88 E8000000 		call	EApiSprintf
 1286      00
 1287 0c8d 0145FC   		addl	%eax, -4(%rbp)
 1288              	.L73:
 334:/development/eAPI/eapidk-code/apps/EApiValidateAPI/linux/../../common/EApiAHStr.c ****     if(StrLength||((Value/60)%24))
 1289              		.loc 1 334 0
 1290 0c90 837DFC00 		cmpl	$0, -4(%rbp)
 1291 0c94 752C     		jne	.L74
 1292              		.loc 1 334 0 is_stmt 0 discriminator 1
 1293 0c96 8B45EC   		movl	-20(%rbp), %eax
 1294 0c99 BA898888 		movl	$-2004318071, %edx
 1294      88
 1295 0c9e F7E2     		mull	%edx
 1296 0ca0 89D1     		movl	%edx, %ecx
 1297 0ca2 C1E905   		shrl	$5, %ecx
 1298 0ca5 BAABAAAA 		movl	$-1431655765, %edx
 1298      AA
 1299 0caa 89C8     		movl	%ecx, %eax
 1300 0cac F7E2     		mull	%edx
 1301 0cae C1EA04   		shrl	$4, %edx
 1302 0cb1 89D0     		movl	%edx, %eax
 1303 0cb3 01C0     		addl	%eax, %eax
 1304 0cb5 01D0     		addl	%edx, %eax
 1305 0cb7 C1E003   		sall	$3, %eax
 1306 0cba 29C1     		subl	%eax, %ecx
 1307 0cbc 89CA     		movl	%ecx, %edx
 1308 0cbe 85D2     		testl	%edx, %edx
 1309 0cc0 7458     		je	.L75
 1310              	.L74:
 335:/development/eAPI/eapidk-code/apps/EApiValidateAPI/linux/../../common/EApiAHStr.c ****       StrLength+=EApiSprintf(&pString[StrLength], StrBufLen-StrLength, TEXT("%")TEXT(PRIu32)TEXT(" 
 1311              		.loc 1 335 0 is_stmt 1
 1312 0cc2 8B45EC   		movl	-20(%rbp), %eax
 1313 0cc5 BA898888 		movl	$-2004318071, %edx
 1313      88
 1314 0cca F7E2     		mull	%edx
 1315 0ccc 89D1     		movl	%edx, %ecx
 1316 0cce C1E905   		shrl	$5, %ecx
 1317 0cd1 BAABAAAA 		movl	$-1431655765, %edx
 1317      AA
 1318 0cd6 89C8     		movl	%ecx, %eax
 1319 0cd8 F7E2     		mull	%edx
 1320 0cda C1EA04   		shrl	$4, %edx
 1321 0cdd 89D0     		movl	%edx, %eax
 1322 0cdf 01C0     		addl	%eax, %eax
 1323 0ce1 01D0     		addl	%edx, %eax
 1324 0ce3 C1E003   		sall	$3, %eax
 1325 0ce6 29C1     		subl	%eax, %ecx
 1326 0ce8 89CA     		movl	%ecx, %edx
 1327 0cea 8B45FC   		movl	-4(%rbp), %eax
 1328 0ced 8B4DE8   		movl	-24(%rbp), %ecx
 1329 0cf0 29C1     		subl	%eax, %ecx
 1330 0cf2 89C8     		movl	%ecx, %eax
 1331 0cf4 89C6     		movl	%eax, %esi
GAS LISTING /tmp/ccDSOxRM.s 			page 39


 1332 0cf6 8B45FC   		movl	-4(%rbp), %eax
 1333 0cf9 4863C8   		movslq	%eax, %rcx
 1334 0cfc 488B45E0 		movq	-32(%rbp), %rax
 1335 0d00 4801C8   		addq	%rcx, %rax
 1336 0d03 89D1     		movl	%edx, %ecx
 1337 0d05 BA000000 		movl	$.LC40, %edx
 1337      00
 1338 0d0a 4889C7   		movq	%rax, %rdi
 1339 0d0d B8000000 		movl	$0, %eax
 1339      00
 1340 0d12 E8000000 		call	EApiSprintf
 1340      00
 1341 0d17 0145FC   		addl	%eax, -4(%rbp)
 1342              	.L75:
 336:/development/eAPI/eapidk-code/apps/EApiValidateAPI/linux/../../common/EApiAHStr.c ****       StrLength+=EApiSprintf(&pString[StrLength], StrBufLen-StrLength, TEXT("%")TEXT(PRIu32)TEXT(" 
 1343              		.loc 1 336 0
 1344 0d1a 8B4DEC   		movl	-20(%rbp), %ecx
 1345 0d1d BA898888 		movl	$-2004318071, %edx
 1345      88
 1346 0d22 89C8     		movl	%ecx, %eax
 1347 0d24 F7E2     		mull	%edx
 1348 0d26 89D0     		movl	%edx, %eax
 1349 0d28 C1E805   		shrl	$5, %eax
 1350 0d2b 89C2     		movl	%eax, %edx
 1351 0d2d 8D049500 		leal	0(,%rdx,4), %eax
 1351      000000
 1352 0d34 89C2     		movl	%eax, %edx
 1353 0d36 89D0     		movl	%edx, %eax
 1354 0d38 C1E004   		sall	$4, %eax
 1355 0d3b 29D0     		subl	%edx, %eax
 1356 0d3d 29C1     		subl	%eax, %ecx
 1357 0d3f 89C8     		movl	%ecx, %eax
 1358 0d41 8B55FC   		movl	-4(%rbp), %edx
 1359 0d44 8B4DE8   		movl	-24(%rbp), %ecx
 1360 0d47 29D1     		subl	%edx, %ecx
 1361 0d49 89CA     		movl	%ecx, %edx
 1362 0d4b 89D6     		movl	%edx, %esi
 1363 0d4d 8B55FC   		movl	-4(%rbp), %edx
 1364 0d50 4863CA   		movslq	%edx, %rcx
 1365 0d53 488B55E0 		movq	-32(%rbp), %rdx
 1366 0d57 488D3C11 		leaq	(%rcx,%rdx), %rdi
 1367 0d5b 89C1     		movl	%eax, %ecx
 1368 0d5d BA000000 		movl	$.LC41, %edx
 1368      00
 1369 0d62 B8000000 		movl	$0, %eax
 1369      00
 1370 0d67 E8000000 		call	EApiSprintf
 1370      00
 1371 0d6c 0145FC   		addl	%eax, -4(%rbp)
 337:/development/eAPI/eapidk-code/apps/EApiValidateAPI/linux/../../common/EApiAHStr.c ****     StatusCode=StrLength;
 1372              		.loc 1 337 0
 1373 0d6f 8B45FC   		movl	-4(%rbp), %eax
 1374 0d72 8945F8   		movl	%eax, -8(%rbp)
 1375              	.L69:
 338:/development/eAPI/eapidk-code/apps/EApiValidateAPI/linux/../../common/EApiAHStr.c **** 
 339:/development/eAPI/eapidk-code/apps/EApiValidateAPI/linux/../../common/EApiAHStr.c **** EAPI_APP_ASSERT_EXIT
 340:/development/eAPI/eapidk-code/apps/EApiValidateAPI/linux/../../common/EApiAHStr.c **** /* SuccessExit: */
GAS LISTING /tmp/ccDSOxRM.s 			page 40


 341:/development/eAPI/eapidk-code/apps/EApiValidateAPI/linux/../../common/EApiAHStr.c ****     return StatusCode;
 1376              		.loc 1 341 0
 1377 0d75 8B45F8   		movl	-8(%rbp), %eax
 342:/development/eAPI/eapidk-code/apps/EApiValidateAPI/linux/../../common/EApiAHStr.c **** }
 1378              		.loc 1 342 0
 1379 0d78 C9       		leave
 1380              		.cfi_def_cfa 7, 8
 1381 0d79 C3       		ret
 1382              		.cfi_endproc
 1383              	.LFE11:
 1385              		.section	.rodata
 1386              	.LC42:
 1387 051e 45417069 		.string	"EApiAHCreateSVersionString"
 1387      41484372 
 1387      65617465 
 1387      53566572 
 1387      73696F6E 
 1388              	.LC43:
 1389 0539 25752E25 		.string	"%u.%u"
 1389      7500
 1390              		.text
 1391              		.globl	EApiAHCreateSVersionString
 1393              	EApiAHCreateSVersionString:
 1394              	.LFB12:
 343:/development/eAPI/eapidk-code/apps/EApiValidateAPI/linux/../../common/EApiAHStr.c **** 
 344:/development/eAPI/eapidk-code/apps/EApiValidateAPI/linux/../../common/EApiAHStr.c **** 
 345:/development/eAPI/eapidk-code/apps/EApiValidateAPI/linux/../../common/EApiAHStr.c **** int
 346:/development/eAPI/eapidk-code/apps/EApiValidateAPI/linux/../../common/EApiAHStr.c **** EApiAHCreateSVersionString(
 347:/development/eAPI/eapidk-code/apps/EApiValidateAPI/linux/../../common/EApiAHStr.c ****     __IN  uint32_t        Value     , /* Input Value to be interpreted */ 
 348:/development/eAPI/eapidk-code/apps/EApiValidateAPI/linux/../../common/EApiAHStr.c ****     __OUT TCHAR * const   pString   , /* Pointer To String pBuffer */
 349:/development/eAPI/eapidk-code/apps/EApiValidateAPI/linux/../../common/EApiAHStr.c ****     __IN  const uint32_t  StrBufLen   /* String pBuffer Length */
 350:/development/eAPI/eapidk-code/apps/EApiValidateAPI/linux/../../common/EApiAHStr.c ****     )
 351:/development/eAPI/eapidk-code/apps/EApiValidateAPI/linux/../../common/EApiAHStr.c **** {
 1395              		.loc 1 351 0
 1396              		.cfi_startproc
 1397 0d7a 55       		pushq	%rbp
 1398              		.cfi_def_cfa_offset 16
 1399              		.cfi_offset 6, -16
 1400 0d7b 4889E5   		movq	%rsp, %rbp
 1401              		.cfi_def_cfa_register 6
 1402 0d7e 4883EC20 		subq	$32, %rsp
 1403 0d82 897DEC   		movl	%edi, -20(%rbp)
 1404 0d85 488975E0 		movq	%rsi, -32(%rbp)
 1405 0d89 8955E8   		movl	%edx, -24(%rbp)
 352:/development/eAPI/eapidk-code/apps/EApiValidateAPI/linux/../../common/EApiAHStr.c ****     int StatusCode;
 353:/development/eAPI/eapidk-code/apps/EApiValidateAPI/linux/../../common/EApiAHStr.c ****     /* 255.255 */
 354:/development/eAPI/eapidk-code/apps/EApiValidateAPI/linux/../../common/EApiAHStr.c ****     EAPI_APP_ASSERT_PARAMATER_NULL(EApiAHCreateSVersionString, -1, pString);
 1406              		.loc 1 354 0
 1407 0d8c 48837DE0 		cmpq	$0, -32(%rbp)
 1407      00
 1408 0d91 7540     		jne	.L78
 1409              		.loc 1 354 0 is_stmt 0 discriminator 1
 1410 0d93 4883EC08 		subq	$8, %rsp
 1411 0d97 68000000 		pushq	$.LC22
 1411      00
 1412 0d9c 41B90000 		movl	$.LC19, %r9d
 1412      0000
GAS LISTING /tmp/ccDSOxRM.s 			page 41


 1413 0da2 41B8FFFF 		movl	$-1, %r8d
 1413      FFFF
 1414 0da8 B9620100 		movl	$354, %ecx
 1414      00
 1415 0dad BA000000 		movl	$.LC42, %edx
 1415      00
 1416 0db2 BE000000 		movl	$.LC21, %esi
 1416      00
 1417 0db7 BF450000 		movl	$69, %edi
 1417      00
 1418 0dbc B8000000 		movl	$0, %eax
 1418      00
 1419 0dc1 E8000000 		call	siFormattedMessage_SC
 1419      00
 1420 0dc6 4883C410 		addq	$16, %rsp
 1421 0dca C745FCFF 		movl	$-1, -4(%rbp)
 1421      FFFFFF
 1422 0dd1 EB76     		jmp	.L79
 1423              	.L78:
 355:/development/eAPI/eapidk-code/apps/EApiValidateAPI/linux/../../common/EApiAHStr.c ****     EAPI_APP_ASSERT_PARAMATER_ZERO(EApiAHCreateSVersionString, -1, StrBufLen);
 1424              		.loc 1 355 0 is_stmt 1
 1425 0dd3 837DE800 		cmpl	$0, -24(%rbp)
 1426 0dd7 7540     		jne	.L80
 1427              		.loc 1 355 0 is_stmt 0 discriminator 1
 1428 0dd9 4883EC08 		subq	$8, %rsp
 1429 0ddd 68000000 		pushq	$.LC23
 1429      00
 1430 0de2 41B90000 		movl	$.LC19, %r9d
 1430      0000
 1431 0de8 41B8FFFF 		movl	$-1, %r8d
 1431      FFFF
 1432 0dee B9630100 		movl	$355, %ecx
 1432      00
 1433 0df3 BA000000 		movl	$.LC42, %edx
 1433      00
 1434 0df8 BE000000 		movl	$.LC21, %esi
 1434      00
 1435 0dfd BF450000 		movl	$69, %edi
 1435      00
 1436 0e02 B8000000 		movl	$0, %eax
 1436      00
 1437 0e07 E8000000 		call	siFormattedMessage_SC
 1437      00
 1438 0e0c 4883C410 		addq	$16, %rsp
 1439 0e10 C745FCFF 		movl	$-1, -4(%rbp)
 1439      FFFFFF
 1440 0e17 EB30     		jmp	.L79
 1441              	.L80:
 356:/development/eAPI/eapidk-code/apps/EApiValidateAPI/linux/../../common/EApiAHStr.c ****     StatusCode=EApiSprintf(pString, StrBufLen, TEXT("%u.%u"), EAPI_VER_GET_VER(Value), EAPI_VER_GET
 1442              		.loc 1 356 0 is_stmt 1
 1443 0e19 8B45EC   		movl	-20(%rbp), %eax
 1444 0e1c C1E810   		shrl	$16, %eax
 1445 0e1f 0FB6D0   		movzbl	%al, %edx
 1446 0e22 8B45EC   		movl	-20(%rbp), %eax
 1447 0e25 C1E818   		shrl	$24, %eax
 1448 0e28 89C1     		movl	%eax, %ecx
 1449 0e2a 8B75E8   		movl	-24(%rbp), %esi
GAS LISTING /tmp/ccDSOxRM.s 			page 42


 1450 0e2d 488B45E0 		movq	-32(%rbp), %rax
 1451 0e31 4189D0   		movl	%edx, %r8d
 1452 0e34 BA000000 		movl	$.LC43, %edx
 1452      00
 1453 0e39 4889C7   		movq	%rax, %rdi
 1454 0e3c B8000000 		movl	$0, %eax
 1454      00
 1455 0e41 E8000000 		call	EApiSprintf
 1455      00
 1456 0e46 8945FC   		movl	%eax, -4(%rbp)
 1457              	.L79:
 357:/development/eAPI/eapidk-code/apps/EApiValidateAPI/linux/../../common/EApiAHStr.c **** 
 358:/development/eAPI/eapidk-code/apps/EApiValidateAPI/linux/../../common/EApiAHStr.c **** EAPI_APP_ASSERT_EXIT
 359:/development/eAPI/eapidk-code/apps/EApiValidateAPI/linux/../../common/EApiAHStr.c **** /* SuccessExit: */
 360:/development/eAPI/eapidk-code/apps/EApiValidateAPI/linux/../../common/EApiAHStr.c ****     return StatusCode;
 1458              		.loc 1 360 0
 1459 0e49 8B45FC   		movl	-4(%rbp), %eax
 361:/development/eAPI/eapidk-code/apps/EApiValidateAPI/linux/../../common/EApiAHStr.c **** }
 1460              		.loc 1 361 0
 1461 0e4c C9       		leave
 1462              		.cfi_def_cfa 7, 8
 1463 0e4d C3       		ret
 1464              		.cfi_endproc
 1465              	.LFE12:
 1467              		.section	.rodata
 1468              	.LC44:
 1469 053f 45417069 		.string	"EApiAHCreateVersionString"
 1469      41484372 
 1469      65617465 
 1469      56657273 
 1469      696F6E53 
 1470              	.LC45:
 1471 0559 25752E25 		.string	"%u.%u.%u"
 1471      752E2575 
 1471      00
 1472              		.text
 1473              		.globl	EApiAHCreateVersionString
 1475              	EApiAHCreateVersionString:
 1476              	.LFB13:
 362:/development/eAPI/eapidk-code/apps/EApiValidateAPI/linux/../../common/EApiAHStr.c **** int 
 363:/development/eAPI/eapidk-code/apps/EApiValidateAPI/linux/../../common/EApiAHStr.c **** EApiAHCreateVersionString(
 364:/development/eAPI/eapidk-code/apps/EApiValidateAPI/linux/../../common/EApiAHStr.c ****     __IN  uint32_t        Value     , /* Input Value to be interpreted */ 
 365:/development/eAPI/eapidk-code/apps/EApiValidateAPI/linux/../../common/EApiAHStr.c ****     __OUT TCHAR * const   pString   , /* Pointer To String pBuffer */
 366:/development/eAPI/eapidk-code/apps/EApiValidateAPI/linux/../../common/EApiAHStr.c ****     __IN  const uint32_t  StrBufLen   /* String pBuffer Length */
 367:/development/eAPI/eapidk-code/apps/EApiValidateAPI/linux/../../common/EApiAHStr.c ****     )
 368:/development/eAPI/eapidk-code/apps/EApiValidateAPI/linux/../../common/EApiAHStr.c **** {
 1477              		.loc 1 368 0
 1478              		.cfi_startproc
 1479 0e4e 55       		pushq	%rbp
 1480              		.cfi_def_cfa_offset 16
 1481              		.cfi_offset 6, -16
 1482 0e4f 4889E5   		movq	%rsp, %rbp
 1483              		.cfi_def_cfa_register 6
 1484 0e52 4883EC20 		subq	$32, %rsp
 1485 0e56 897DEC   		movl	%edi, -20(%rbp)
 1486 0e59 488975E0 		movq	%rsi, -32(%rbp)
 1487 0e5d 8955E8   		movl	%edx, -24(%rbp)
GAS LISTING /tmp/ccDSOxRM.s 			page 43


 369:/development/eAPI/eapidk-code/apps/EApiValidateAPI/linux/../../common/EApiAHStr.c ****   int StatusCode;
 370:/development/eAPI/eapidk-code/apps/EApiValidateAPI/linux/../../common/EApiAHStr.c ****   /* 255.255.65535 */
 371:/development/eAPI/eapidk-code/apps/EApiValidateAPI/linux/../../common/EApiAHStr.c ****   EAPI_APP_ASSERT_PARAMATER_NULL(EApiAHCreateVersionString, -1, pString);
 1488              		.loc 1 371 0
 1489 0e60 48837DE0 		cmpq	$0, -32(%rbp)
 1489      00
 1490 0e65 7543     		jne	.L83
 1491              		.loc 1 371 0 is_stmt 0 discriminator 1
 1492 0e67 4883EC08 		subq	$8, %rsp
 1493 0e6b 68000000 		pushq	$.LC22
 1493      00
 1494 0e70 41B90000 		movl	$.LC19, %r9d
 1494      0000
 1495 0e76 41B8FFFF 		movl	$-1, %r8d
 1495      FFFF
 1496 0e7c B9730100 		movl	$371, %ecx
 1496      00
 1497 0e81 BA000000 		movl	$.LC44, %edx
 1497      00
 1498 0e86 BE000000 		movl	$.LC21, %esi
 1498      00
 1499 0e8b BF450000 		movl	$69, %edi
 1499      00
 1500 0e90 B8000000 		movl	$0, %eax
 1500      00
 1501 0e95 E8000000 		call	siFormattedMessage_SC
 1501      00
 1502 0e9a 4883C410 		addq	$16, %rsp
 1503 0e9e C745FCFF 		movl	$-1, -4(%rbp)
 1503      FFFFFF
 1504 0ea5 E9810000 		jmp	.L84
 1504      00
 1505              	.L83:
 372:/development/eAPI/eapidk-code/apps/EApiValidateAPI/linux/../../common/EApiAHStr.c ****   EAPI_APP_ASSERT_PARAMATER_ZERO(EApiAHCreateVersionString, -1, StrBufLen);
 1506              		.loc 1 372 0 is_stmt 1
 1507 0eaa 837DE800 		cmpl	$0, -24(%rbp)
 1508 0eae 7540     		jne	.L85
 1509              		.loc 1 372 0 is_stmt 0 discriminator 1
 1510 0eb0 4883EC08 		subq	$8, %rsp
 1511 0eb4 68000000 		pushq	$.LC23
 1511      00
 1512 0eb9 41B90000 		movl	$.LC19, %r9d
 1512      0000
 1513 0ebf 41B8FFFF 		movl	$-1, %r8d
 1513      FFFF
 1514 0ec5 B9740100 		movl	$372, %ecx
 1514      00
 1515 0eca BA000000 		movl	$.LC44, %edx
 1515      00
 1516 0ecf BE000000 		movl	$.LC21, %esi
 1516      00
 1517 0ed4 BF450000 		movl	$69, %edi
 1517      00
 1518 0ed9 B8000000 		movl	$0, %eax
 1518      00
 1519 0ede E8000000 		call	siFormattedMessage_SC
 1519      00
GAS LISTING /tmp/ccDSOxRM.s 			page 44


 1520 0ee3 4883C410 		addq	$16, %rsp
 1521 0ee7 C745FCFF 		movl	$-1, -4(%rbp)
 1521      FFFFFF
 1522 0eee EB3B     		jmp	.L84
 1523              	.L85:
 373:/development/eAPI/eapidk-code/apps/EApiValidateAPI/linux/../../common/EApiAHStr.c ****   StatusCode=EApiSprintf(pString, StrBufLen, TEXT("%u.%u.%u"), EAPI_VER_GET_VER(Value), EAPI_VER_GE
 1524              		.loc 1 373 0 is_stmt 1
 1525 0ef0 8B45EC   		movl	-20(%rbp), %eax
 1526 0ef3 0FB7C8   		movzwl	%ax, %ecx
 1527 0ef6 8B45EC   		movl	-20(%rbp), %eax
 1528 0ef9 C1E810   		shrl	$16, %eax
 1529 0efc 0FB6D0   		movzbl	%al, %edx
 1530 0eff 8B45EC   		movl	-20(%rbp), %eax
 1531 0f02 C1E818   		shrl	$24, %eax
 1532 0f05 89C7     		movl	%eax, %edi
 1533 0f07 8B75E8   		movl	-24(%rbp), %esi
 1534 0f0a 488B45E0 		movq	-32(%rbp), %rax
 1535 0f0e 4189C9   		movl	%ecx, %r9d
 1536 0f11 4189D0   		movl	%edx, %r8d
 1537 0f14 89F9     		movl	%edi, %ecx
 1538 0f16 BA000000 		movl	$.LC45, %edx
 1538      00
 1539 0f1b 4889C7   		movq	%rax, %rdi
 1540 0f1e B8000000 		movl	$0, %eax
 1540      00
 1541 0f23 E8000000 		call	EApiSprintf
 1541      00
 1542 0f28 8945FC   		movl	%eax, -4(%rbp)
 1543              	.L84:
 374:/development/eAPI/eapidk-code/apps/EApiValidateAPI/linux/../../common/EApiAHStr.c **** 
 375:/development/eAPI/eapidk-code/apps/EApiValidateAPI/linux/../../common/EApiAHStr.c **** EAPI_APP_ASSERT_EXIT
 376:/development/eAPI/eapidk-code/apps/EApiValidateAPI/linux/../../common/EApiAHStr.c **** /* SuccessExit: */
 377:/development/eAPI/eapidk-code/apps/EApiValidateAPI/linux/../../common/EApiAHStr.c ****     return StatusCode;
 1544              		.loc 1 377 0
 1545 0f2b 8B45FC   		movl	-4(%rbp), %eax
 378:/development/eAPI/eapidk-code/apps/EApiValidateAPI/linux/../../common/EApiAHStr.c **** }
 1546              		.loc 1 378 0
 1547 0f2e C9       		leave
 1548              		.cfi_def_cfa 7, 8
 1549 0f2f C3       		ret
 1550              		.cfi_endproc
 1551              	.LFE13:
 1553              		.globl	CompressedAsciiLookup
 1554              		.data
 1555              		.align 32
 1558              	CompressedAsciiLookup:
 1559 0000 20       		.byte	32
 1560 0001 41       		.byte	65
 1561 0002 42       		.byte	66
 1562 0003 43       		.byte	67
 1563 0004 44       		.byte	68
 1564 0005 45       		.byte	69
 1565 0006 46       		.byte	70
 1566 0007 47       		.byte	71
 1567 0008 48       		.byte	72
 1568 0009 49       		.byte	73
 1569 000a 4A       		.byte	74
GAS LISTING /tmp/ccDSOxRM.s 			page 45


 1570 000b 4B       		.byte	75
 1571 000c 4C       		.byte	76
 1572 000d 4D       		.byte	77
 1573 000e 4E       		.byte	78
 1574 000f 4F       		.byte	79
 1575 0010 50       		.byte	80
 1576 0011 51       		.byte	81
 1577 0012 52       		.byte	82
 1578 0013 53       		.byte	83
 1579 0014 54       		.byte	84
 1580 0015 55       		.byte	85
 1581 0016 56       		.byte	86
 1582 0017 57       		.byte	87
 1583 0018 58       		.byte	88
 1584 0019 59       		.byte	89
 1585 001a 5A       		.byte	90
 1586 001b 2A       		.byte	42
 1587 001c 2A       		.byte	42
 1588 001d 2A       		.byte	42
 1589 001e 2A       		.byte	42
 1590 001f 2A       		.byte	42
 1591              		.section	.rodata
 1592              	.LC46:
 1593 0562 45417069 		.string	"EApiAHCreatePNPIDString"
 1593      41484372 
 1593      65617465 
 1593      504E5049 
 1593      44537472 
 1594              	.LC47:
 1595 057a 70427566 		.string	"pBuffer Too Short"
 1595      66657220 
 1595      546F6F20 
 1595      53686F72 
 1595      7400
 1596              		.text
 1597              		.globl	EApiAHCreatePNPIDString
 1599              	EApiAHCreatePNPIDString:
 1600              	.LFB14:
 379:/development/eAPI/eapidk-code/apps/EApiValidateAPI/linux/../../common/EApiAHStr.c **** 
 380:/development/eAPI/eapidk-code/apps/EApiValidateAPI/linux/../../common/EApiAHStr.c **** 
 381:/development/eAPI/eapidk-code/apps/EApiValidateAPI/linux/../../common/EApiAHStr.c **** TCHAR CompressedAsciiLookup[]={
 382:/development/eAPI/eapidk-code/apps/EApiValidateAPI/linux/../../common/EApiAHStr.c ****   TEXT(' '), TEXT('A'), TEXT('B'), TEXT('C'),
 383:/development/eAPI/eapidk-code/apps/EApiValidateAPI/linux/../../common/EApiAHStr.c ****   TEXT('D'), TEXT('E'), TEXT('F'), TEXT('G'),
 384:/development/eAPI/eapidk-code/apps/EApiValidateAPI/linux/../../common/EApiAHStr.c ****   TEXT('H'), TEXT('I'), TEXT('J'), TEXT('K'),
 385:/development/eAPI/eapidk-code/apps/EApiValidateAPI/linux/../../common/EApiAHStr.c ****   TEXT('L'), TEXT('M'), TEXT('N'), TEXT('O'),
 386:/development/eAPI/eapidk-code/apps/EApiValidateAPI/linux/../../common/EApiAHStr.c ****   TEXT('P'), TEXT('Q'), TEXT('R'), TEXT('S'),
 387:/development/eAPI/eapidk-code/apps/EApiValidateAPI/linux/../../common/EApiAHStr.c ****   TEXT('T'), TEXT('U'), TEXT('V'), TEXT('W'),
 388:/development/eAPI/eapidk-code/apps/EApiValidateAPI/linux/../../common/EApiAHStr.c ****   TEXT('X'), TEXT('Y'), TEXT('Z'),
 389:/development/eAPI/eapidk-code/apps/EApiValidateAPI/linux/../../common/EApiAHStr.c ****   /* Invalid Values */
 390:/development/eAPI/eapidk-code/apps/EApiValidateAPI/linux/../../common/EApiAHStr.c **** #ifdef DEGUG
 391:/development/eAPI/eapidk-code/apps/EApiValidateAPI/linux/../../common/EApiAHStr.c ****   TEXT('0'), TEXT('1'), TEXT('2'), TEXT('3'), TEXT('4')
 392:/development/eAPI/eapidk-code/apps/EApiValidateAPI/linux/../../common/EApiAHStr.c **** #else
 393:/development/eAPI/eapidk-code/apps/EApiValidateAPI/linux/../../common/EApiAHStr.c ****   TEXT('*'), TEXT('*'), TEXT('*'), TEXT('*'), TEXT('*')
 394:/development/eAPI/eapidk-code/apps/EApiValidateAPI/linux/../../common/EApiAHStr.c **** #endif
 395:/development/eAPI/eapidk-code/apps/EApiValidateAPI/linux/../../common/EApiAHStr.c **** };
 396:/development/eAPI/eapidk-code/apps/EApiValidateAPI/linux/../../common/EApiAHStr.c **** 
 397:/development/eAPI/eapidk-code/apps/EApiValidateAPI/linux/../../common/EApiAHStr.c **** int 
GAS LISTING /tmp/ccDSOxRM.s 			page 46


 398:/development/eAPI/eapidk-code/apps/EApiValidateAPI/linux/../../common/EApiAHStr.c **** EApiAHCreatePNPIDString(
 399:/development/eAPI/eapidk-code/apps/EApiValidateAPI/linux/../../common/EApiAHStr.c ****     __IN  uint32_t        Value     , /* Input Value to be interpreted */ 
 400:/development/eAPI/eapidk-code/apps/EApiValidateAPI/linux/../../common/EApiAHStr.c ****     __OUT TCHAR * const   pString   , /* Pointer To String pBuffer */
 401:/development/eAPI/eapidk-code/apps/EApiValidateAPI/linux/../../common/EApiAHStr.c ****     __IN  const uint32_t  StrBufLen   /* String pBuffer Length */
 402:/development/eAPI/eapidk-code/apps/EApiValidateAPI/linux/../../common/EApiAHStr.c ****     )
 403:/development/eAPI/eapidk-code/apps/EApiValidateAPI/linux/../../common/EApiAHStr.c **** {
 1601              		.loc 1 403 0
 1602              		.cfi_startproc
 1603 0f30 55       		pushq	%rbp
 1604              		.cfi_def_cfa_offset 16
 1605              		.cfi_offset 6, -16
 1606 0f31 4889E5   		movq	%rsp, %rbp
 1607              		.cfi_def_cfa_register 6
 1608 0f34 4883EC20 		subq	$32, %rsp
 1609 0f38 897DEC   		movl	%edi, -20(%rbp)
 1610 0f3b 488975E0 		movq	%rsi, -32(%rbp)
 1611 0f3f 8955E8   		movl	%edx, -24(%rbp)
 404:/development/eAPI/eapidk-code/apps/EApiValidateAPI/linux/../../common/EApiAHStr.c ****   int StatusCode;
 405:/development/eAPI/eapidk-code/apps/EApiValidateAPI/linux/../../common/EApiAHStr.c ****   int cnt;
 406:/development/eAPI/eapidk-code/apps/EApiValidateAPI/linux/../../common/EApiAHStr.c ****   unsigned short PNPID=(unsigned short)EAPI_BYTE_SWAP_W(Value);
 1612              		.loc 1 406 0
 1613 0f42 8B45EC   		movl	-20(%rbp), %eax
 1614 0f45 C1E008   		sall	$8, %eax
 1615 0f48 89C2     		movl	%eax, %edx
 1616 0f4a 8B45EC   		movl	-20(%rbp), %eax
 1617 0f4d C1E808   		shrl	$8, %eax
 1618 0f50 0FB6C0   		movzbl	%al, %eax
 1619 0f53 09D0     		orl	%edx, %eax
 1620 0f55 668945F6 		movw	%ax, -10(%rbp)
 407:/development/eAPI/eapidk-code/apps/EApiValidateAPI/linux/../../common/EApiAHStr.c ****   EAPI_APP_ASSERT_PARAMATER_NULL(EApiAHCreatePNPIDString, -1, pString);
 1621              		.loc 1 407 0
 1622 0f59 48837DE0 		cmpq	$0, -32(%rbp)
 1622      00
 1623 0f5e 7543     		jne	.L88
 1624              		.loc 1 407 0 is_stmt 0 discriminator 1
 1625 0f60 4883EC08 		subq	$8, %rsp
 1626 0f64 68000000 		pushq	$.LC22
 1626      00
 1627 0f69 41B90000 		movl	$.LC19, %r9d
 1627      0000
 1628 0f6f 41B8FFFF 		movl	$-1, %r8d
 1628      FFFF
 1629 0f75 B9970100 		movl	$407, %ecx
 1629      00
 1630 0f7a BA000000 		movl	$.LC46, %edx
 1630      00
 1631 0f7f BE000000 		movl	$.LC21, %esi
 1631      00
 1632 0f84 BF450000 		movl	$69, %edi
 1632      00
 1633 0f89 B8000000 		movl	$0, %eax
 1633      00
 1634 0f8e E8000000 		call	siFormattedMessage_SC
 1634      00
 1635 0f93 4883C410 		addq	$16, %rsp
 1636 0f97 C745F8FF 		movl	$-1, -8(%rbp)
 1636      FFFFFF
GAS LISTING /tmp/ccDSOxRM.s 			page 47


 1637 0f9e E9B70000 		jmp	.L94
 1637      00
 1638              	.L88:
 408:/development/eAPI/eapidk-code/apps/EApiValidateAPI/linux/../../common/EApiAHStr.c ****   if(StrBufLen<4){
 1639              		.loc 1 408 0 is_stmt 1
 1640 0fa3 837DE803 		cmpl	$3, -24(%rbp)
 1641 0fa7 7740     		ja	.L90
 409:/development/eAPI/eapidk-code/apps/EApiValidateAPI/linux/../../common/EApiAHStr.c ****     EAPI_APP_RETURN_ERROR(EApiAHCreatePNPIDString, -1, "pBuffer Too Short");
 1642              		.loc 1 409 0
 1643 0fa9 4883EC08 		subq	$8, %rsp
 1644 0fad 68000000 		pushq	$.LC47
 1644      00
 1645 0fb2 41B90000 		movl	$.LC19, %r9d
 1645      0000
 1646 0fb8 41B8FFFF 		movl	$-1, %r8d
 1646      FFFF
 1647 0fbe B9990100 		movl	$409, %ecx
 1647      00
 1648 0fc3 BA000000 		movl	$.LC46, %edx
 1648      00
 1649 0fc8 BE000000 		movl	$.LC21, %esi
 1649      00
 1650 0fcd BF450000 		movl	$69, %edi
 1650      00
 1651 0fd2 B8000000 		movl	$0, %eax
 1651      00
 1652 0fd7 E8000000 		call	siFormattedMessage_SC
 1652      00
 1653 0fdc 4883C410 		addq	$16, %rsp
 1654 0fe0 C745F8FF 		movl	$-1, -8(%rbp)
 1654      FFFFFF
 1655 0fe7 EB71     		jmp	.L94
 1656              	.L90:
 410:/development/eAPI/eapidk-code/apps/EApiValidateAPI/linux/../../common/EApiAHStr.c ****   }
 411:/development/eAPI/eapidk-code/apps/EApiValidateAPI/linux/../../common/EApiAHStr.c ****   if(PNPID&(1<<15)){
 1657              		.loc 1 411 0
 1658 0fe9 0FB745F6 		movzwl	-10(%rbp), %eax
 1659 0fed 6685C0   		testw	%ax, %ax
 1660 0ff0 7909     		jns	.L91
 412:/development/eAPI/eapidk-code/apps/EApiValidateAPI/linux/../../common/EApiAHStr.c ****     StatusCode = -1;
 1661              		.loc 1 412 0
 1662 0ff2 C745F8FF 		movl	$-1, -8(%rbp)
 1662      FFFFFF
 413:/development/eAPI/eapidk-code/apps/EApiValidateAPI/linux/../../common/EApiAHStr.c ****     goto ErrorExit;
 1663              		.loc 1 413 0
 1664 0ff9 EB5F     		jmp	.L94
 1665              	.L91:
 414:/development/eAPI/eapidk-code/apps/EApiValidateAPI/linux/../../common/EApiAHStr.c ****   }
 415:/development/eAPI/eapidk-code/apps/EApiValidateAPI/linux/../../common/EApiAHStr.c ****   for(cnt=0; cnt < 3; cnt++){
 1666              		.loc 1 415 0
 1667 0ffb C745FC00 		movl	$0, -4(%rbp)
 1667      000000
 1668 1002 EB39     		jmp	.L92
 1669              	.L93:
 416:/development/eAPI/eapidk-code/apps/EApiValidateAPI/linux/../../common/EApiAHStr.c ****     pString[2 - cnt]=CompressedAsciiLookup[(PNPID>>(cnt*5))&0x1F];
 1670              		.loc 1 416 0 discriminator 3
 1671 1004 B8020000 		movl	$2, %eax
GAS LISTING /tmp/ccDSOxRM.s 			page 48


 1671      00
 1672 1009 2B45FC   		subl	-4(%rbp), %eax
 1673 100c 4863D0   		movslq	%eax, %rdx
 1674 100f 488B45E0 		movq	-32(%rbp), %rax
 1675 1013 488D3402 		leaq	(%rdx,%rax), %rsi
 1676 1017 0FB77DF6 		movzwl	-10(%rbp), %edi
 1677 101b 8B55FC   		movl	-4(%rbp), %edx
 1678 101e 89D0     		movl	%edx, %eax
 1679 1020 C1E002   		sall	$2, %eax
 1680 1023 01D0     		addl	%edx, %eax
 1681 1025 89C1     		movl	%eax, %ecx
 1682 1027 D3FF     		sarl	%cl, %edi
 1683 1029 89F8     		movl	%edi, %eax
 1684 102b 83E01F   		andl	$31, %eax
 1685 102e 4898     		cltq
 1686 1030 0FB68000 		movzbl	CompressedAsciiLookup(%rax), %eax
 1686      000000
 1687 1037 8806     		movb	%al, (%rsi)
 415:/development/eAPI/eapidk-code/apps/EApiValidateAPI/linux/../../common/EApiAHStr.c ****     pString[2 - cnt]=CompressedAsciiLookup[(PNPID>>(cnt*5))&0x1F];
 1688              		.loc 1 415 0 discriminator 3
 1689 1039 8345FC01 		addl	$1, -4(%rbp)
 1690              	.L92:
 415:/development/eAPI/eapidk-code/apps/EApiValidateAPI/linux/../../common/EApiAHStr.c ****     pString[2 - cnt]=CompressedAsciiLookup[(PNPID>>(cnt*5))&0x1F];
 1691              		.loc 1 415 0 is_stmt 0 discriminator 1
 1692 103d 837DFC02 		cmpl	$2, -4(%rbp)
 1693 1041 7EC1     		jle	.L93
 417:/development/eAPI/eapidk-code/apps/EApiValidateAPI/linux/../../common/EApiAHStr.c ****   }
 418:/development/eAPI/eapidk-code/apps/EApiValidateAPI/linux/../../common/EApiAHStr.c ****   pString[cnt]=0;
 1694              		.loc 1 418 0 is_stmt 1
 1695 1043 8B45FC   		movl	-4(%rbp), %eax
 1696 1046 4863D0   		movslq	%eax, %rdx
 1697 1049 488B45E0 		movq	-32(%rbp), %rax
 1698 104d 4801D0   		addq	%rdx, %rax
 1699 1050 C60000   		movb	$0, (%rax)
 419:/development/eAPI/eapidk-code/apps/EApiValidateAPI/linux/../../common/EApiAHStr.c ****   StatusCode=3;
 1700              		.loc 1 419 0
 1701 1053 C745F803 		movl	$3, -8(%rbp)
 1701      000000
 1702              	.L89:
 1703              	.L94:
 420:/development/eAPI/eapidk-code/apps/EApiValidateAPI/linux/../../common/EApiAHStr.c **** 
 421:/development/eAPI/eapidk-code/apps/EApiValidateAPI/linux/../../common/EApiAHStr.c **** ErrorExit:
 422:/development/eAPI/eapidk-code/apps/EApiValidateAPI/linux/../../common/EApiAHStr.c **** EAPI_APP_ASSERT_EXIT
 423:/development/eAPI/eapidk-code/apps/EApiValidateAPI/linux/../../common/EApiAHStr.c **** /* SuccessExit: */
 424:/development/eAPI/eapidk-code/apps/EApiValidateAPI/linux/../../common/EApiAHStr.c ****     return StatusCode;
 1704              		.loc 1 424 0
 1705 105a 8B45F8   		movl	-8(%rbp), %eax
 425:/development/eAPI/eapidk-code/apps/EApiValidateAPI/linux/../../common/EApiAHStr.c **** }
 1706              		.loc 1 425 0
 1707 105d C9       		leave
 1708              		.cfi_def_cfa 7, 8
 1709 105e C3       		ret
 1710              		.cfi_endproc
 1711              	.LFE14:
 1713              		.globl	EApiStrLenA
 1715              	EApiStrLenA:
 1716              	.LFB15:
GAS LISTING /tmp/ccDSOxRM.s 			page 49


 426:/development/eAPI/eapidk-code/apps/EApiValidateAPI/linux/../../common/EApiAHStr.c **** 
 427:/development/eAPI/eapidk-code/apps/EApiValidateAPI/linux/../../common/EApiAHStr.c **** #ifdef UNICODE
 428:/development/eAPI/eapidk-code/apps/EApiValidateAPI/linux/../../common/EApiAHStr.c **** EApiStatus_t
 429:/development/eAPI/eapidk-code/apps/EApiValidateAPI/linux/../../common/EApiAHStr.c **** EApiAHBoardGetStringW(
 430:/development/eAPI/eapidk-code/apps/EApiValidateAPI/linux/../../common/EApiAHStr.c ****     __IN      EApiId_t  Id      , /* Name Id */
 431:/development/eAPI/eapidk-code/apps/EApiValidateAPI/linux/../../common/EApiAHStr.c ****     __OUT     wchar_t  *pBuffer , /* Destination pBuffer */
 432:/development/eAPI/eapidk-code/apps/EApiValidateAPI/linux/../../common/EApiAHStr.c ****     __INOUT   uint32_t *pBufLen   /* pBuffer Length */
 433:/development/eAPI/eapidk-code/apps/EApiValidateAPI/linux/../../common/EApiAHStr.c ****     )
 434:/development/eAPI/eapidk-code/apps/EApiValidateAPI/linux/../../common/EApiAHStr.c **** {
 435:/development/eAPI/eapidk-code/apps/EApiValidateAPI/linux/../../common/EApiAHStr.c ****   char *pBufferPtr=NULL;
 436:/development/eAPI/eapidk-code/apps/EApiValidateAPI/linux/../../common/EApiAHStr.c ****   EApiStatus_t StatusCode;
 437:/development/eAPI/eapidk-code/apps/EApiValidateAPI/linux/../../common/EApiAHStr.c ****   if(pBuffer!=NULL && pBufLen!=NULL && *pBufLen)
 438:/development/eAPI/eapidk-code/apps/EApiValidateAPI/linux/../../common/EApiAHStr.c ****   {
 439:/development/eAPI/eapidk-code/apps/EApiValidateAPI/linux/../../common/EApiAHStr.c ****     pBufferPtr=(char *)malloc(*pBufLen*sizeof(char));
 440:/development/eAPI/eapidk-code/apps/EApiValidateAPI/linux/../../common/EApiAHStr.c ****     EAPI_APP_RETURN_ERROR_IF(
 441:/development/eAPI/eapidk-code/apps/EApiValidateAPI/linux/../../common/EApiAHStr.c ****       EApiAHBoardGetStringW, 
 442:/development/eAPI/eapidk-code/apps/EApiValidateAPI/linux/../../common/EApiAHStr.c ****       pBufferPtr==NULL,
 443:/development/eAPI/eapidk-code/apps/EApiValidateAPI/linux/../../common/EApiAHStr.c ****       EAPI_STATUS_ALLOC_ERROR, 
 444:/development/eAPI/eapidk-code/apps/EApiValidateAPI/linux/../../common/EApiAHStr.c ****       "Allocating ASCII Buffer"
 445:/development/eAPI/eapidk-code/apps/EApiValidateAPI/linux/../../common/EApiAHStr.c ****       );
 446:/development/eAPI/eapidk-code/apps/EApiValidateAPI/linux/../../common/EApiAHStr.c ****   }
 447:/development/eAPI/eapidk-code/apps/EApiValidateAPI/linux/../../common/EApiAHStr.c **** 
 448:/development/eAPI/eapidk-code/apps/EApiValidateAPI/linux/../../common/EApiAHStr.c ****   StatusCode=EApiBoardGetStringA(Id, pBufferPtr, pBufLen);
 449:/development/eAPI/eapidk-code/apps/EApiValidateAPI/linux/../../common/EApiAHStr.c **** 
 450:/development/eAPI/eapidk-code/apps/EApiValidateAPI/linux/../../common/EApiAHStr.c ****   if(pBufferPtr!=NULL)
 451:/development/eAPI/eapidk-code/apps/EApiValidateAPI/linux/../../common/EApiAHStr.c ****   {
 452:/development/eAPI/eapidk-code/apps/EApiValidateAPI/linux/../../common/EApiAHStr.c ****     mbstowcs(pBuffer, pBufferPtr, *pBufLen);
 453:/development/eAPI/eapidk-code/apps/EApiValidateAPI/linux/../../common/EApiAHStr.c ****     free(pBufferPtr);
 454:/development/eAPI/eapidk-code/apps/EApiValidateAPI/linux/../../common/EApiAHStr.c ****   }
 455:/development/eAPI/eapidk-code/apps/EApiValidateAPI/linux/../../common/EApiAHStr.c **** 
 456:/development/eAPI/eapidk-code/apps/EApiValidateAPI/linux/../../common/EApiAHStr.c **** 
 457:/development/eAPI/eapidk-code/apps/EApiValidateAPI/linux/../../common/EApiAHStr.c **** EAPI_APP_ASSERT_EXIT
 458:/development/eAPI/eapidk-code/apps/EApiValidateAPI/linux/../../common/EApiAHStr.c **** /* SuccessExit: */
 459:/development/eAPI/eapidk-code/apps/EApiValidateAPI/linux/../../common/EApiAHStr.c ****     return StatusCode;
 460:/development/eAPI/eapidk-code/apps/EApiValidateAPI/linux/../../common/EApiAHStr.c **** }
 461:/development/eAPI/eapidk-code/apps/EApiValidateAPI/linux/../../common/EApiAHStr.c **** #endif
 462:/development/eAPI/eapidk-code/apps/EApiValidateAPI/linux/../../common/EApiAHStr.c **** /****************************************************************************
 463:/development/eAPI/eapidk-code/apps/EApiValidateAPI/linux/../../common/EApiAHStr.c ****  * Standard C String Wrappers
 464:/development/eAPI/eapidk-code/apps/EApiValidateAPI/linux/../../common/EApiAHStr.c ****  *  Basically to improve Security, Ensures that No pBuffer overruns happen
 465:/development/eAPI/eapidk-code/apps/EApiValidateAPI/linux/../../common/EApiAHStr.c ****  *  
 466:/development/eAPI/eapidk-code/apps/EApiValidateAPI/linux/../../common/EApiAHStr.c ****  *  EApiStrLen  is equivalent to strnlen  , wcsnlen (Not present in older libraries)
 467:/development/eAPI/eapidk-code/apps/EApiValidateAPI/linux/../../common/EApiAHStr.c ****  *  EApiStrCpy  is equivalent to strcpy_s , Terminates String if pBuffer too short
 468:/development/eAPI/eapidk-code/apps/EApiValidateAPI/linux/../../common/EApiAHStr.c ****  *  EApiSprintf is equivalent to sprintf_s, Terminates String if pBuffer too short
 469:/development/eAPI/eapidk-code/apps/EApiValidateAPI/linux/../../common/EApiAHStr.c ****  *
 470:/development/eAPI/eapidk-code/apps/EApiValidateAPI/linux/../../common/EApiAHStr.c ****  ****************************************************************************/
 471:/development/eAPI/eapidk-code/apps/EApiValidateAPI/linux/../../common/EApiAHStr.c **** size_t 
 472:/development/eAPI/eapidk-code/apps/EApiValidateAPI/linux/../../common/EApiAHStr.c **** EApiStrLenA  ( 
 473:/development/eAPI/eapidk-code/apps/EApiValidateAPI/linux/../../common/EApiAHStr.c ****     __IN const char  *pBuffer    ,
 474:/development/eAPI/eapidk-code/apps/EApiValidateAPI/linux/../../common/EApiAHStr.c ****     __IN size_t       BufferLen
 475:/development/eAPI/eapidk-code/apps/EApiValidateAPI/linux/../../common/EApiAHStr.c ****     )
 476:/development/eAPI/eapidk-code/apps/EApiValidateAPI/linux/../../common/EApiAHStr.c **** {
 1717              		.loc 1 476 0
 1718              		.cfi_startproc
 1719 105f 55       		pushq	%rbp
 1720              		.cfi_def_cfa_offset 16
 1721              		.cfi_offset 6, -16
 1722 1060 4889E5   		movq	%rsp, %rbp
GAS LISTING /tmp/ccDSOxRM.s 			page 50


 1723              		.cfi_def_cfa_register 6
 1724 1063 48897DE8 		movq	%rdi, -24(%rbp)
 1725 1067 488975E0 		movq	%rsi, -32(%rbp)
 477:/development/eAPI/eapidk-code/apps/EApiValidateAPI/linux/../../common/EApiAHStr.c ****   const char *pszCurChar;
 478:/development/eAPI/eapidk-code/apps/EApiValidateAPI/linux/../../common/EApiAHStr.c ****   if(pBuffer   ==NULL) return 0;
 1726              		.loc 1 478 0
 1727 106b 48837DE8 		cmpq	$0, -24(%rbp)
 1727      00
 1728 1070 7507     		jne	.L97
 1729              		.loc 1 478 0 is_stmt 0 discriminator 1
 1730 1072 B8000000 		movl	$0, %eax
 1730      00
 1731 1077 EB4A     		jmp	.L98
 1732              	.L97:
 479:/development/eAPI/eapidk-code/apps/EApiValidateAPI/linux/../../common/EApiAHStr.c ****   if(BufferLen==0   ) return 0;
 1733              		.loc 1 479 0 is_stmt 1
 1734 1079 48837DE0 		cmpq	$0, -32(%rbp)
 1734      00
 1735 107e 7507     		jne	.L99
 1736              		.loc 1 479 0 is_stmt 0 discriminator 1
 1737 1080 B8000000 		movl	$0, %eax
 1737      00
 1738 1085 EB3C     		jmp	.L98
 1739              	.L99:
 480:/development/eAPI/eapidk-code/apps/EApiValidateAPI/linux/../../common/EApiAHStr.c **** 
 481:/development/eAPI/eapidk-code/apps/EApiValidateAPI/linux/../../common/EApiAHStr.c ****   for(pszCurChar=pBuffer; BufferLen--; pszCurChar++)
 1740              		.loc 1 481 0 is_stmt 1
 1741 1087 488B45E8 		movq	-24(%rbp), %rax
 1742 108b 488945F8 		movq	%rax, -8(%rbp)
 1743 108f EB10     		jmp	.L100
 1744              	.L103:
 482:/development/eAPI/eapidk-code/apps/EApiValidateAPI/linux/../../common/EApiAHStr.c ****     if(*pszCurChar=='\0')
 1745              		.loc 1 482 0
 1746 1091 488B45F8 		movq	-8(%rbp), %rax
 1747 1095 0FB600   		movzbl	(%rax), %eax
 1748 1098 84C0     		testb	%al, %al
 1749 109a 7418     		je	.L104
 481:/development/eAPI/eapidk-code/apps/EApiValidateAPI/linux/../../common/EApiAHStr.c ****     if(*pszCurChar=='\0')
 1750              		.loc 1 481 0 discriminator 2
 1751 109c 488345F8 		addq	$1, -8(%rbp)
 1751      01
 1752              	.L100:
 481:/development/eAPI/eapidk-code/apps/EApiValidateAPI/linux/../../common/EApiAHStr.c ****     if(*pszCurChar=='\0')
 1753              		.loc 1 481 0 is_stmt 0 discriminator 1
 1754 10a1 488B45E0 		movq	-32(%rbp), %rax
 1755 10a5 488D50FF 		leaq	-1(%rax), %rdx
 1756 10a9 488955E0 		movq	%rdx, -32(%rbp)
 1757 10ad 4885C0   		testq	%rax, %rax
 1758 10b0 75DF     		jne	.L103
 1759 10b2 EB01     		jmp	.L102
 1760              	.L104:
 483:/development/eAPI/eapidk-code/apps/EApiValidateAPI/linux/../../common/EApiAHStr.c ****       break;
 1761              		.loc 1 483 0 is_stmt 1
 1762 10b4 90       		nop
 1763              	.L102:
 484:/development/eAPI/eapidk-code/apps/EApiValidateAPI/linux/../../common/EApiAHStr.c ****   return pszCurChar - pBuffer;
 1764              		.loc 1 484 0
GAS LISTING /tmp/ccDSOxRM.s 			page 51


 1765 10b5 488B55F8 		movq	-8(%rbp), %rdx
 1766 10b9 488B45E8 		movq	-24(%rbp), %rax
 1767 10bd 4829C2   		subq	%rax, %rdx
 1768 10c0 4889D0   		movq	%rdx, %rax
 1769              	.L98:
 485:/development/eAPI/eapidk-code/apps/EApiValidateAPI/linux/../../common/EApiAHStr.c **** }
 1770              		.loc 1 485 0
 1771 10c3 5D       		popq	%rbp
 1772              		.cfi_def_cfa 7, 8
 1773 10c4 C3       		ret
 1774              		.cfi_endproc
 1775              	.LFE15:
 1777              		.globl	EApiStrCpyA
 1779              	EApiStrCpyA:
 1780              	.LFB16:
 486:/development/eAPI/eapidk-code/apps/EApiValidateAPI/linux/../../common/EApiAHStr.c **** char * 
 487:/development/eAPI/eapidk-code/apps/EApiValidateAPI/linux/../../common/EApiAHStr.c **** EApiStrCpyA(
 488:/development/eAPI/eapidk-code/apps/EApiValidateAPI/linux/../../common/EApiAHStr.c ****     __OUT char *const      StringDest   ,
 489:/development/eAPI/eapidk-code/apps/EApiValidateAPI/linux/../../common/EApiAHStr.c ****     __IN size_t             StrBufLen    , 
 490:/development/eAPI/eapidk-code/apps/EApiValidateAPI/linux/../../common/EApiAHStr.c ****     __IN const char *const StringSource
 491:/development/eAPI/eapidk-code/apps/EApiValidateAPI/linux/../../common/EApiAHStr.c ****     )
 492:/development/eAPI/eapidk-code/apps/EApiValidateAPI/linux/../../common/EApiAHStr.c **** {
 1781              		.loc 1 492 0
 1782              		.cfi_startproc
 1783 10c5 55       		pushq	%rbp
 1784              		.cfi_def_cfa_offset 16
 1785              		.cfi_offset 6, -16
 1786 10c6 4889E5   		movq	%rsp, %rbp
 1787              		.cfi_def_cfa_register 6
 1788 10c9 4883EC20 		subq	$32, %rsp
 1789 10cd 48897DF8 		movq	%rdi, -8(%rbp)
 1790 10d1 488975F0 		movq	%rsi, -16(%rbp)
 1791 10d5 488955E8 		movq	%rdx, -24(%rbp)
 493:/development/eAPI/eapidk-code/apps/EApiValidateAPI/linux/../../common/EApiAHStr.c ****   if(StringDest  ==NULL) return StringDest;
 1792              		.loc 1 493 0
 1793 10d9 48837DF8 		cmpq	$0, -8(%rbp)
 1793      00
 1794 10de 7506     		jne	.L106
 1795              		.loc 1 493 0 is_stmt 0 discriminator 1
 1796 10e0 488B45F8 		movq	-8(%rbp), %rax
 1797 10e4 EB47     		jmp	.L107
 1798              	.L106:
 494:/development/eAPI/eapidk-code/apps/EApiValidateAPI/linux/../../common/EApiAHStr.c ****   if(StringSource==NULL) return StringDest;
 1799              		.loc 1 494 0 is_stmt 1
 1800 10e6 48837DE8 		cmpq	$0, -24(%rbp)
 1800      00
 1801 10eb 7506     		jne	.L108
 1802              		.loc 1 494 0 is_stmt 0 discriminator 1
 1803 10ed 488B45F8 		movq	-8(%rbp), %rax
 1804 10f1 EB3A     		jmp	.L107
 1805              	.L108:
 495:/development/eAPI/eapidk-code/apps/EApiValidateAPI/linux/../../common/EApiAHStr.c ****   if(StrBufLen==0   ) return StringDest;
 1806              		.loc 1 495 0 is_stmt 1
 1807 10f3 48837DF0 		cmpq	$0, -16(%rbp)
 1807      00
 1808 10f8 7506     		jne	.L109
 1809              		.loc 1 495 0 is_stmt 0 discriminator 1
GAS LISTING /tmp/ccDSOxRM.s 			page 52


 1810 10fa 488B45F8 		movq	-8(%rbp), %rax
 1811 10fe EB2D     		jmp	.L107
 1812              	.L109:
 496:/development/eAPI/eapidk-code/apps/EApiValidateAPI/linux/../../common/EApiAHStr.c **** 
 497:/development/eAPI/eapidk-code/apps/EApiValidateAPI/linux/../../common/EApiAHStr.c ****   EAPI_strncpyA(StringDest, StringSource, StrBufLen);
 1813              		.loc 1 497 0 is_stmt 1
 1814 1100 488B55F0 		movq	-16(%rbp), %rdx
 1815 1104 488B4DE8 		movq	-24(%rbp), %rcx
 1816 1108 488B45F8 		movq	-8(%rbp), %rax
 1817 110c 4889CE   		movq	%rcx, %rsi
 1818 110f 4889C7   		movq	%rax, %rdi
 1819 1112 E8000000 		call	strncpy
 1819      00
 498:/development/eAPI/eapidk-code/apps/EApiValidateAPI/linux/../../common/EApiAHStr.c ****   StringDest[StrBufLen-1]=TEXT('\0');
 1820              		.loc 1 498 0
 1821 1117 488B45F0 		movq	-16(%rbp), %rax
 1822 111b 488D50FF 		leaq	-1(%rax), %rdx
 1823 111f 488B45F8 		movq	-8(%rbp), %rax
 1824 1123 4801D0   		addq	%rdx, %rax
 1825 1126 C60000   		movb	$0, (%rax)
 499:/development/eAPI/eapidk-code/apps/EApiValidateAPI/linux/../../common/EApiAHStr.c ****   return StringDest;
 1826              		.loc 1 499 0
 1827 1129 488B45F8 		movq	-8(%rbp), %rax
 1828              	.L107:
 500:/development/eAPI/eapidk-code/apps/EApiValidateAPI/linux/../../common/EApiAHStr.c **** }
 1829              		.loc 1 500 0
 1830 112d C9       		leave
 1831              		.cfi_def_cfa 7, 8
 1832 112e C3       		ret
 1833              		.cfi_endproc
 1834              	.LFE16:
 1836              		.globl	EApiSprintfA
 1838              	EApiSprintfA:
 1839              	.LFB17:
 501:/development/eAPI/eapidk-code/apps/EApiValidateAPI/linux/../../common/EApiAHStr.c **** int 
 502:/development/eAPI/eapidk-code/apps/EApiValidateAPI/linux/../../common/EApiAHStr.c **** __cdecl 
 503:/development/eAPI/eapidk-code/apps/EApiValidateAPI/linux/../../common/EApiAHStr.c **** EApiSprintfA ( 
 504:/development/eAPI/eapidk-code/apps/EApiValidateAPI/linux/../../common/EApiAHStr.c ****     __IN char *const       pBuffer   ,
 505:/development/eAPI/eapidk-code/apps/EApiValidateAPI/linux/../../common/EApiAHStr.c ****     __IN const size_t       BufferLen ,
 506:/development/eAPI/eapidk-code/apps/EApiValidateAPI/linux/../../common/EApiAHStr.c ****     __IN const char *const fmt       ,
 507:/development/eAPI/eapidk-code/apps/EApiValidateAPI/linux/../../common/EApiAHStr.c ****     ...
 508:/development/eAPI/eapidk-code/apps/EApiValidateAPI/linux/../../common/EApiAHStr.c ****     )
 509:/development/eAPI/eapidk-code/apps/EApiValidateAPI/linux/../../common/EApiAHStr.c **** {
 1840              		.loc 1 509 0
 1841              		.cfi_startproc
 1842 112f 55       		pushq	%rbp
 1843              		.cfi_def_cfa_offset 16
 1844              		.cfi_offset 6, -16
 1845 1130 4889E5   		movq	%rsp, %rbp
 1846              		.cfi_def_cfa_register 6
 1847 1133 4881EC00 		subq	$256, %rsp
 1847      010000
 1848 113a 4889BD18 		movq	%rdi, -232(%rbp)
 1848      FFFFFF
 1849 1141 4889B510 		movq	%rsi, -240(%rbp)
 1849      FFFFFF
 1850 1148 48899508 		movq	%rdx, -248(%rbp)
GAS LISTING /tmp/ccDSOxRM.s 			page 53


 1850      FFFFFF
 1851 114f 48898D68 		movq	%rcx, -152(%rbp)
 1851      FFFFFF
 1852 1156 4C898570 		movq	%r8, -144(%rbp)
 1852      FFFFFF
 1853 115d 4C898D78 		movq	%r9, -136(%rbp)
 1853      FFFFFF
 1854 1164 84C0     		testb	%al, %al
 1855 1166 7420     		je	.L111
 1856 1168 0F294580 		movaps	%xmm0, -128(%rbp)
 1857 116c 0F294D90 		movaps	%xmm1, -112(%rbp)
 1858 1170 0F2955A0 		movaps	%xmm2, -96(%rbp)
 1859 1174 0F295DB0 		movaps	%xmm3, -80(%rbp)
 1860 1178 0F2965C0 		movaps	%xmm4, -64(%rbp)
 1861 117c 0F296DD0 		movaps	%xmm5, -48(%rbp)
 1862 1180 0F2975E0 		movaps	%xmm6, -32(%rbp)
 1863 1184 0F297DF0 		movaps	%xmm7, -16(%rbp)
 1864              	.L111:
 1865              		.loc 1 509 0
 1866 1188 64488B04 		movq	%fs:40, %rax
 1866      25280000 
 1866      00
 1867 1191 48898548 		movq	%rax, -184(%rbp)
 1867      FFFFFF
 1868 1198 31C0     		xorl	%eax, %eax
 510:/development/eAPI/eapidk-code/apps/EApiValidateAPI/linux/../../common/EApiAHStr.c ****   int ReturnValue;
 511:/development/eAPI/eapidk-code/apps/EApiValidateAPI/linux/../../common/EApiAHStr.c ****   va_list arg;
 512:/development/eAPI/eapidk-code/apps/EApiValidateAPI/linux/../../common/EApiAHStr.c ****   if(pBuffer  ==NULL) return -1;
 1869              		.loc 1 512 0
 1870 119a 4883BD18 		cmpq	$0, -232(%rbp)
 1870      FFFFFF00 
 1871 11a2 750A     		jne	.L112
 1872              		.loc 1 512 0 is_stmt 0 discriminator 1
 1873 11a4 B8FFFFFF 		movl	$-1, %eax
 1873      FF
 1874 11a9 E99A0000 		jmp	.L116
 1874      00
 1875              	.L112:
 513:/development/eAPI/eapidk-code/apps/EApiValidateAPI/linux/../../common/EApiAHStr.c ****   if(fmt      ==NULL) return -1;
 1876              		.loc 1 513 0 is_stmt 1
 1877 11ae 4883BD08 		cmpq	$0, -248(%rbp)
 1877      FFFFFF00 
 1878 11b6 750A     		jne	.L114
 1879              		.loc 1 513 0 is_stmt 0 discriminator 1
 1880 11b8 B8FFFFFF 		movl	$-1, %eax
 1880      FF
 1881 11bd E9860000 		jmp	.L116
 1881      00
 1882              	.L114:
 514:/development/eAPI/eapidk-code/apps/EApiValidateAPI/linux/../../common/EApiAHStr.c ****   if(BufferLen==0   ) return -1;
 1883              		.loc 1 514 0 is_stmt 1
 1884 11c2 4883BD10 		cmpq	$0, -240(%rbp)
 1884      FFFFFF00 
 1885 11ca 7507     		jne	.L115
 1886              		.loc 1 514 0 is_stmt 0 discriminator 1
 1887 11cc B8FFFFFF 		movl	$-1, %eax
 1887      FF
GAS LISTING /tmp/ccDSOxRM.s 			page 54


 1888 11d1 EB75     		jmp	.L116
 1889              	.L115:
 515:/development/eAPI/eapidk-code/apps/EApiValidateAPI/linux/../../common/EApiAHStr.c **** 
 516:/development/eAPI/eapidk-code/apps/EApiValidateAPI/linux/../../common/EApiAHStr.c ****   va_start(arg, fmt);
 1890              		.loc 1 516 0 is_stmt 1
 1891 11d3 C78530FF 		movl	$24, -208(%rbp)
 1891      FFFF1800 
 1891      0000
 1892 11dd C78534FF 		movl	$48, -204(%rbp)
 1892      FFFF3000 
 1892      0000
 1893 11e7 488D4510 		leaq	16(%rbp), %rax
 1894 11eb 48898538 		movq	%rax, -200(%rbp)
 1894      FFFFFF
 1895 11f2 488D8550 		leaq	-176(%rbp), %rax
 1895      FFFFFF
 1896 11f9 48898540 		movq	%rax, -192(%rbp)
 1896      FFFFFF
 517:/development/eAPI/eapidk-code/apps/EApiValidateAPI/linux/../../common/EApiAHStr.c ****   ReturnValue=EAPI_vsnprintfA(pBuffer, BufferLen, fmt, arg);
 1897              		.loc 1 517 0
 1898 1200 488D8D30 		leaq	-208(%rbp), %rcx
 1898      FFFFFF
 1899 1207 488B9508 		movq	-248(%rbp), %rdx
 1899      FFFFFF
 1900 120e 488BB510 		movq	-240(%rbp), %rsi
 1900      FFFFFF
 1901 1215 488B8518 		movq	-232(%rbp), %rax
 1901      FFFFFF
 1902 121c 4889C7   		movq	%rax, %rdi
 1903 121f E8000000 		call	vsnprintf
 1903      00
 1904 1224 89852CFF 		movl	%eax, -212(%rbp)
 1904      FFFF
 518:/development/eAPI/eapidk-code/apps/EApiValidateAPI/linux/../../common/EApiAHStr.c ****   pBuffer[BufferLen-1]='\0';
 1905              		.loc 1 518 0
 1906 122a 488B8510 		movq	-240(%rbp), %rax
 1906      FFFFFF
 1907 1231 488D50FF 		leaq	-1(%rax), %rdx
 1908 1235 488B8518 		movq	-232(%rbp), %rax
 1908      FFFFFF
 1909 123c 4801D0   		addq	%rdx, %rax
 1910 123f C60000   		movb	$0, (%rax)
 519:/development/eAPI/eapidk-code/apps/EApiValidateAPI/linux/../../common/EApiAHStr.c ****   va_end(arg);
 520:/development/eAPI/eapidk-code/apps/EApiValidateAPI/linux/../../common/EApiAHStr.c ****   return ReturnValue;
 1911              		.loc 1 520 0
 1912 1242 8B852CFF 		movl	-212(%rbp), %eax
 1912      FFFF
 1913              	.L116:
 521:/development/eAPI/eapidk-code/apps/EApiValidateAPI/linux/../../common/EApiAHStr.c **** }
 1914              		.loc 1 521 0 discriminator 1
 1915 1248 488BBD48 		movq	-184(%rbp), %rdi
 1915      FFFFFF
 1916 124f 6448333C 		xorq	%fs:40, %rdi
 1916      25280000 
 1916      00
 1917 1258 7405     		je	.L117
 1918              		.loc 1 521 0 is_stmt 0
GAS LISTING /tmp/ccDSOxRM.s 			page 55


 1919 125a E8000000 		call	__stack_chk_fail
 1919      00
 1920              	.L117:
 1921 125f C9       		leave
 1922              		.cfi_def_cfa 7, 8
 1923 1260 C3       		ret
 1924              		.cfi_endproc
 1925              	.LFE17:
 1927              		.globl	EApiStrLen
 1929              	EApiStrLen:
 1930              	.LFB18:
 522:/development/eAPI/eapidk-code/apps/EApiValidateAPI/linux/../../common/EApiAHStr.c **** size_t 
 523:/development/eAPI/eapidk-code/apps/EApiValidateAPI/linux/../../common/EApiAHStr.c **** EApiStrLen  ( 
 524:/development/eAPI/eapidk-code/apps/EApiValidateAPI/linux/../../common/EApiAHStr.c ****     __IN const TCHAR *pBuffer    ,
 525:/development/eAPI/eapidk-code/apps/EApiValidateAPI/linux/../../common/EApiAHStr.c ****     __IN size_t       BufferLen
 526:/development/eAPI/eapidk-code/apps/EApiValidateAPI/linux/../../common/EApiAHStr.c ****     )
 527:/development/eAPI/eapidk-code/apps/EApiValidateAPI/linux/../../common/EApiAHStr.c **** {
 1931              		.loc 1 527 0 is_stmt 1
 1932              		.cfi_startproc
 1933 1261 55       		pushq	%rbp
 1934              		.cfi_def_cfa_offset 16
 1935              		.cfi_offset 6, -16
 1936 1262 4889E5   		movq	%rsp, %rbp
 1937              		.cfi_def_cfa_register 6
 1938 1265 48897DE8 		movq	%rdi, -24(%rbp)
 1939 1269 488975E0 		movq	%rsi, -32(%rbp)
 528:/development/eAPI/eapidk-code/apps/EApiValidateAPI/linux/../../common/EApiAHStr.c ****   const TCHAR *pszCurChar;
 529:/development/eAPI/eapidk-code/apps/EApiValidateAPI/linux/../../common/EApiAHStr.c ****   if(pBuffer   ==NULL) return 0;
 1940              		.loc 1 529 0
 1941 126d 48837DE8 		cmpq	$0, -24(%rbp)
 1941      00
 1942 1272 7507     		jne	.L119
 1943              		.loc 1 529 0 is_stmt 0 discriminator 1
 1944 1274 B8000000 		movl	$0, %eax
 1944      00
 1945 1279 EB4A     		jmp	.L120
 1946              	.L119:
 530:/development/eAPI/eapidk-code/apps/EApiValidateAPI/linux/../../common/EApiAHStr.c ****   if(BufferLen==0   ) return 0;
 1947              		.loc 1 530 0 is_stmt 1
 1948 127b 48837DE0 		cmpq	$0, -32(%rbp)
 1948      00
 1949 1280 7507     		jne	.L121
 1950              		.loc 1 530 0 is_stmt 0 discriminator 1
 1951 1282 B8000000 		movl	$0, %eax
 1951      00
 1952 1287 EB3C     		jmp	.L120
 1953              	.L121:
 531:/development/eAPI/eapidk-code/apps/EApiValidateAPI/linux/../../common/EApiAHStr.c **** 
 532:/development/eAPI/eapidk-code/apps/EApiValidateAPI/linux/../../common/EApiAHStr.c ****   for(pszCurChar=pBuffer; BufferLen--; pszCurChar++)
 1954              		.loc 1 532 0 is_stmt 1
 1955 1289 488B45E8 		movq	-24(%rbp), %rax
 1956 128d 488945F8 		movq	%rax, -8(%rbp)
 1957 1291 EB10     		jmp	.L122
 1958              	.L125:
 533:/development/eAPI/eapidk-code/apps/EApiValidateAPI/linux/../../common/EApiAHStr.c ****     if(*pszCurChar=='\0')
 1959              		.loc 1 533 0
 1960 1293 488B45F8 		movq	-8(%rbp), %rax
GAS LISTING /tmp/ccDSOxRM.s 			page 56


 1961 1297 0FB600   		movzbl	(%rax), %eax
 1962 129a 84C0     		testb	%al, %al
 1963 129c 7418     		je	.L126
 532:/development/eAPI/eapidk-code/apps/EApiValidateAPI/linux/../../common/EApiAHStr.c ****     if(*pszCurChar=='\0')
 1964              		.loc 1 532 0 discriminator 2
 1965 129e 488345F8 		addq	$1, -8(%rbp)
 1965      01
 1966              	.L122:
 532:/development/eAPI/eapidk-code/apps/EApiValidateAPI/linux/../../common/EApiAHStr.c ****     if(*pszCurChar=='\0')
 1967              		.loc 1 532 0 is_stmt 0 discriminator 1
 1968 12a3 488B45E0 		movq	-32(%rbp), %rax
 1969 12a7 488D50FF 		leaq	-1(%rax), %rdx
 1970 12ab 488955E0 		movq	%rdx, -32(%rbp)
 1971 12af 4885C0   		testq	%rax, %rax
 1972 12b2 75DF     		jne	.L125
 1973 12b4 EB01     		jmp	.L124
 1974              	.L126:
 534:/development/eAPI/eapidk-code/apps/EApiValidateAPI/linux/../../common/EApiAHStr.c ****       break;
 1975              		.loc 1 534 0 is_stmt 1
 1976 12b6 90       		nop
 1977              	.L124:
 535:/development/eAPI/eapidk-code/apps/EApiValidateAPI/linux/../../common/EApiAHStr.c ****   return pszCurChar - pBuffer;
 1978              		.loc 1 535 0
 1979 12b7 488B55F8 		movq	-8(%rbp), %rdx
 1980 12bb 488B45E8 		movq	-24(%rbp), %rax
 1981 12bf 4829C2   		subq	%rax, %rdx
 1982 12c2 4889D0   		movq	%rdx, %rax
 1983              	.L120:
 536:/development/eAPI/eapidk-code/apps/EApiValidateAPI/linux/../../common/EApiAHStr.c **** }
 1984              		.loc 1 536 0
 1985 12c5 5D       		popq	%rbp
 1986              		.cfi_def_cfa 7, 8
 1987 12c6 C3       		ret
 1988              		.cfi_endproc
 1989              	.LFE18:
 1991              		.globl	EApiStrCpy
 1993              	EApiStrCpy:
 1994              	.LFB19:
 537:/development/eAPI/eapidk-code/apps/EApiValidateAPI/linux/../../common/EApiAHStr.c **** 
 538:/development/eAPI/eapidk-code/apps/EApiValidateAPI/linux/../../common/EApiAHStr.c **** TCHAR * 
 539:/development/eAPI/eapidk-code/apps/EApiValidateAPI/linux/../../common/EApiAHStr.c **** EApiStrCpy(
 540:/development/eAPI/eapidk-code/apps/EApiValidateAPI/linux/../../common/EApiAHStr.c ****     __OUT TCHAR *const      StringDest   ,
 541:/development/eAPI/eapidk-code/apps/EApiValidateAPI/linux/../../common/EApiAHStr.c ****     __IN size_t             StrBufLen    , 
 542:/development/eAPI/eapidk-code/apps/EApiValidateAPI/linux/../../common/EApiAHStr.c ****     __IN const TCHAR *const StringSource
 543:/development/eAPI/eapidk-code/apps/EApiValidateAPI/linux/../../common/EApiAHStr.c ****     )
 544:/development/eAPI/eapidk-code/apps/EApiValidateAPI/linux/../../common/EApiAHStr.c **** {
 1995              		.loc 1 544 0
 1996              		.cfi_startproc
 1997 12c7 55       		pushq	%rbp
 1998              		.cfi_def_cfa_offset 16
 1999              		.cfi_offset 6, -16
 2000 12c8 4889E5   		movq	%rsp, %rbp
 2001              		.cfi_def_cfa_register 6
 2002 12cb 4883EC20 		subq	$32, %rsp
 2003 12cf 48897DF8 		movq	%rdi, -8(%rbp)
 2004 12d3 488975F0 		movq	%rsi, -16(%rbp)
 2005 12d7 488955E8 		movq	%rdx, -24(%rbp)
GAS LISTING /tmp/ccDSOxRM.s 			page 57


 545:/development/eAPI/eapidk-code/apps/EApiValidateAPI/linux/../../common/EApiAHStr.c ****   if(StringDest  ==NULL) return StringDest;
 2006              		.loc 1 545 0
 2007 12db 48837DF8 		cmpq	$0, -8(%rbp)
 2007      00
 2008 12e0 7506     		jne	.L128
 2009              		.loc 1 545 0 is_stmt 0 discriminator 1
 2010 12e2 488B45F8 		movq	-8(%rbp), %rax
 2011 12e6 EB47     		jmp	.L129
 2012              	.L128:
 546:/development/eAPI/eapidk-code/apps/EApiValidateAPI/linux/../../common/EApiAHStr.c ****   if(StringSource==NULL) return StringDest;
 2013              		.loc 1 546 0 is_stmt 1
 2014 12e8 48837DE8 		cmpq	$0, -24(%rbp)
 2014      00
 2015 12ed 7506     		jne	.L130
 2016              		.loc 1 546 0 is_stmt 0 discriminator 1
 2017 12ef 488B45F8 		movq	-8(%rbp), %rax
 2018 12f3 EB3A     		jmp	.L129
 2019              	.L130:
 547:/development/eAPI/eapidk-code/apps/EApiValidateAPI/linux/../../common/EApiAHStr.c ****   if(StrBufLen==0   ) return StringDest;
 2020              		.loc 1 547 0 is_stmt 1
 2021 12f5 48837DF0 		cmpq	$0, -16(%rbp)
 2021      00
 2022 12fa 7506     		jne	.L131
 2023              		.loc 1 547 0 is_stmt 0 discriminator 1
 2024 12fc 488B45F8 		movq	-8(%rbp), %rax
 2025 1300 EB2D     		jmp	.L129
 2026              	.L131:
 548:/development/eAPI/eapidk-code/apps/EApiValidateAPI/linux/../../common/EApiAHStr.c **** 
 549:/development/eAPI/eapidk-code/apps/EApiValidateAPI/linux/../../common/EApiAHStr.c ****   EAPI_strncpy(StringDest, StringSource, StrBufLen);
 2027              		.loc 1 549 0 is_stmt 1
 2028 1302 488B55F0 		movq	-16(%rbp), %rdx
 2029 1306 488B4DE8 		movq	-24(%rbp), %rcx
 2030 130a 488B45F8 		movq	-8(%rbp), %rax
 2031 130e 4889CE   		movq	%rcx, %rsi
 2032 1311 4889C7   		movq	%rax, %rdi
 2033 1314 E8000000 		call	strncpy
 2033      00
 550:/development/eAPI/eapidk-code/apps/EApiValidateAPI/linux/../../common/EApiAHStr.c ****   StringDest[StrBufLen-1]=TEXT('\0');
 2034              		.loc 1 550 0
 2035 1319 488B45F0 		movq	-16(%rbp), %rax
 2036 131d 488D50FF 		leaq	-1(%rax), %rdx
 2037 1321 488B45F8 		movq	-8(%rbp), %rax
 2038 1325 4801D0   		addq	%rdx, %rax
 2039 1328 C60000   		movb	$0, (%rax)
 551:/development/eAPI/eapidk-code/apps/EApiValidateAPI/linux/../../common/EApiAHStr.c ****   return StringDest;
 2040              		.loc 1 551 0
 2041 132b 488B45F8 		movq	-8(%rbp), %rax
 2042              	.L129:
 552:/development/eAPI/eapidk-code/apps/EApiValidateAPI/linux/../../common/EApiAHStr.c **** }
 2043              		.loc 1 552 0
 2044 132f C9       		leave
 2045              		.cfi_def_cfa 7, 8
 2046 1330 C3       		ret
 2047              		.cfi_endproc
 2048              	.LFE19:
 2050              		.globl	EApiSprintf
 2052              	EApiSprintf:
GAS LISTING /tmp/ccDSOxRM.s 			page 58


 2053              	.LFB20:
 553:/development/eAPI/eapidk-code/apps/EApiValidateAPI/linux/../../common/EApiAHStr.c **** int 
 554:/development/eAPI/eapidk-code/apps/EApiValidateAPI/linux/../../common/EApiAHStr.c **** __cdecl 
 555:/development/eAPI/eapidk-code/apps/EApiValidateAPI/linux/../../common/EApiAHStr.c **** EApiSprintf ( 
 556:/development/eAPI/eapidk-code/apps/EApiValidateAPI/linux/../../common/EApiAHStr.c ****     __IN TCHAR *const       pBuffer   ,
 557:/development/eAPI/eapidk-code/apps/EApiValidateAPI/linux/../../common/EApiAHStr.c ****     __IN const size_t       BufferLen ,
 558:/development/eAPI/eapidk-code/apps/EApiValidateAPI/linux/../../common/EApiAHStr.c ****     __IN const TCHAR *const fmt       ,
 559:/development/eAPI/eapidk-code/apps/EApiValidateAPI/linux/../../common/EApiAHStr.c ****     ...
 560:/development/eAPI/eapidk-code/apps/EApiValidateAPI/linux/../../common/EApiAHStr.c ****     )
 561:/development/eAPI/eapidk-code/apps/EApiValidateAPI/linux/../../common/EApiAHStr.c **** {
 2054              		.loc 1 561 0
 2055              		.cfi_startproc
 2056 1331 55       		pushq	%rbp
 2057              		.cfi_def_cfa_offset 16
 2058              		.cfi_offset 6, -16
 2059 1332 4889E5   		movq	%rsp, %rbp
 2060              		.cfi_def_cfa_register 6
 2061 1335 4881EC00 		subq	$256, %rsp
 2061      010000
 2062 133c 4889BD18 		movq	%rdi, -232(%rbp)
 2062      FFFFFF
 2063 1343 4889B510 		movq	%rsi, -240(%rbp)
 2063      FFFFFF
 2064 134a 48899508 		movq	%rdx, -248(%rbp)
 2064      FFFFFF
 2065 1351 48898D68 		movq	%rcx, -152(%rbp)
 2065      FFFFFF
 2066 1358 4C898570 		movq	%r8, -144(%rbp)
 2066      FFFFFF
 2067 135f 4C898D78 		movq	%r9, -136(%rbp)
 2067      FFFFFF
 2068 1366 84C0     		testb	%al, %al
 2069 1368 7420     		je	.L133
 2070 136a 0F294580 		movaps	%xmm0, -128(%rbp)
 2071 136e 0F294D90 		movaps	%xmm1, -112(%rbp)
 2072 1372 0F2955A0 		movaps	%xmm2, -96(%rbp)
 2073 1376 0F295DB0 		movaps	%xmm3, -80(%rbp)
 2074 137a 0F2965C0 		movaps	%xmm4, -64(%rbp)
 2075 137e 0F296DD0 		movaps	%xmm5, -48(%rbp)
 2076 1382 0F2975E0 		movaps	%xmm6, -32(%rbp)
 2077 1386 0F297DF0 		movaps	%xmm7, -16(%rbp)
 2078              	.L133:
 2079              		.loc 1 561 0
 2080 138a 64488B04 		movq	%fs:40, %rax
 2080      25280000 
 2080      00
 2081 1393 48898548 		movq	%rax, -184(%rbp)
 2081      FFFFFF
 2082 139a 31C0     		xorl	%eax, %eax
 562:/development/eAPI/eapidk-code/apps/EApiValidateAPI/linux/../../common/EApiAHStr.c ****   int ReturnValue;
 563:/development/eAPI/eapidk-code/apps/EApiValidateAPI/linux/../../common/EApiAHStr.c ****   va_list arg;
 564:/development/eAPI/eapidk-code/apps/EApiValidateAPI/linux/../../common/EApiAHStr.c ****   if(pBuffer  ==NULL) return -1;
 2083              		.loc 1 564 0
 2084 139c 4883BD18 		cmpq	$0, -232(%rbp)
 2084      FFFFFF00 
 2085 13a4 750A     		jne	.L134
 2086              		.loc 1 564 0 is_stmt 0 discriminator 1
GAS LISTING /tmp/ccDSOxRM.s 			page 59


 2087 13a6 B8FFFFFF 		movl	$-1, %eax
 2087      FF
 2088 13ab E99A0000 		jmp	.L138
 2088      00
 2089              	.L134:
 565:/development/eAPI/eapidk-code/apps/EApiValidateAPI/linux/../../common/EApiAHStr.c ****   if(fmt      ==NULL) return -1;
 2090              		.loc 1 565 0 is_stmt 1
 2091 13b0 4883BD08 		cmpq	$0, -248(%rbp)
 2091      FFFFFF00 
 2092 13b8 750A     		jne	.L136
 2093              		.loc 1 565 0 is_stmt 0 discriminator 1
 2094 13ba B8FFFFFF 		movl	$-1, %eax
 2094      FF
 2095 13bf E9860000 		jmp	.L138
 2095      00
 2096              	.L136:
 566:/development/eAPI/eapidk-code/apps/EApiValidateAPI/linux/../../common/EApiAHStr.c ****   if(BufferLen==0   ) return -1;
 2097              		.loc 1 566 0 is_stmt 1
 2098 13c4 4883BD10 		cmpq	$0, -240(%rbp)
 2098      FFFFFF00 
 2099 13cc 7507     		jne	.L137
 2100              		.loc 1 566 0 is_stmt 0 discriminator 1
 2101 13ce B8FFFFFF 		movl	$-1, %eax
 2101      FF
 2102 13d3 EB75     		jmp	.L138
 2103              	.L137:
 567:/development/eAPI/eapidk-code/apps/EApiValidateAPI/linux/../../common/EApiAHStr.c **** 
 568:/development/eAPI/eapidk-code/apps/EApiValidateAPI/linux/../../common/EApiAHStr.c ****   va_start(arg, fmt);
 2104              		.loc 1 568 0 is_stmt 1
 2105 13d5 C78530FF 		movl	$24, -208(%rbp)
 2105      FFFF1800 
 2105      0000
 2106 13df C78534FF 		movl	$48, -204(%rbp)
 2106      FFFF3000 
 2106      0000
 2107 13e9 488D4510 		leaq	16(%rbp), %rax
 2108 13ed 48898538 		movq	%rax, -200(%rbp)
 2108      FFFFFF
 2109 13f4 488D8550 		leaq	-176(%rbp), %rax
 2109      FFFFFF
 2110 13fb 48898540 		movq	%rax, -192(%rbp)
 2110      FFFFFF
 569:/development/eAPI/eapidk-code/apps/EApiValidateAPI/linux/../../common/EApiAHStr.c ****   ReturnValue=EAPI_vsnprintf(pBuffer, BufferLen, fmt, arg);
 2111              		.loc 1 569 0
 2112 1402 488D8D30 		leaq	-208(%rbp), %rcx
 2112      FFFFFF
 2113 1409 488B9508 		movq	-248(%rbp), %rdx
 2113      FFFFFF
 2114 1410 488BB510 		movq	-240(%rbp), %rsi
 2114      FFFFFF
 2115 1417 488B8518 		movq	-232(%rbp), %rax
 2115      FFFFFF
 2116 141e 4889C7   		movq	%rax, %rdi
 2117 1421 E8000000 		call	vsnprintf
 2117      00
 2118 1426 89852CFF 		movl	%eax, -212(%rbp)
 2118      FFFF
GAS LISTING /tmp/ccDSOxRM.s 			page 60


 570:/development/eAPI/eapidk-code/apps/EApiValidateAPI/linux/../../common/EApiAHStr.c ****   pBuffer[BufferLen-1]=TEXT('\0');
 2119              		.loc 1 570 0
 2120 142c 488B8510 		movq	-240(%rbp), %rax
 2120      FFFFFF
 2121 1433 488D50FF 		leaq	-1(%rax), %rdx
 2122 1437 488B8518 		movq	-232(%rbp), %rax
 2122      FFFFFF
 2123 143e 4801D0   		addq	%rdx, %rax
 2124 1441 C60000   		movb	$0, (%rax)
 571:/development/eAPI/eapidk-code/apps/EApiValidateAPI/linux/../../common/EApiAHStr.c ****   va_end(arg);
 572:/development/eAPI/eapidk-code/apps/EApiValidateAPI/linux/../../common/EApiAHStr.c ****   return ReturnValue;
 2125              		.loc 1 572 0
 2126 1444 8B852CFF 		movl	-212(%rbp), %eax
 2126      FFFF
 2127              	.L138:
 573:/development/eAPI/eapidk-code/apps/EApiValidateAPI/linux/../../common/EApiAHStr.c **** }
 2128              		.loc 1 573 0 discriminator 1
 2129 144a 488BBD48 		movq	-184(%rbp), %rdi
 2129      FFFFFF
 2130 1451 6448333C 		xorq	%fs:40, %rdi
 2130      25280000 
 2130      00
 2131 145a 7405     		je	.L139
 2132              		.loc 1 573 0 is_stmt 0
 2133 145c E8000000 		call	__stack_chk_fail
 2133      00
 2134              	.L139:
 2135 1461 C9       		leave
 2136              		.cfi_def_cfa 7, 8
 2137 1462 C3       		ret
 2138              		.cfi_endproc
 2139              	.LFE20:
 2141              	.Letext0:
 2142              		.file 2 "/usr/lib/gcc/x86_64-linux-gnu/5/include/stddef.h"
 2143              		.file 3 "/usr/include/x86_64-linux-gnu/sys/types.h"
 2144              		.file 4 "/usr/lib/gcc/x86_64-linux-gnu/5/include/stdarg.h"
 2145              		.file 5 "<built-in>"
 2146              		.file 6 "/usr/include/stdio.h"
 2147              		.file 7 "/usr/include/stdint.h"
 2148              		.file 8 "../../../include/EApi.h"
GAS LISTING /tmp/ccDSOxRM.s 			page 61

