GAS LISTING /tmp/ccRtKyPs.s 			page 1


   1              		.file	"EApiAHI2C.c"
   2              		.text
   3              	.Ltext0:
   4              		.section	.rodata
   5              	.LC0:
   6 0000 25730A00 		.string	"%s\n"
   7              	.LC1:
   8 0004 45417069 		.string	"EApiAHI2CCCreateAddrOffset"
   8      41484932 
   8      43434372 
   8      65617465 
   8      41646472 
   9 001f 00       		.align 8
  10              	.LC2:
  11 0020 2F646576 		.string	"/development/eAPI/eapidk-code/apps/EApiValidateAPI/linux/../../common/EApiAHI2C.c"
  11      656C6F70 
  11      6D656E74 
  11      2F654150 
  11      492F6561 
  12              	.LC3:
  13 0072 28704444 		.string	"(pDDesc==NULL)"
  13      6573633D 
  13      3D4E554C 
  13      4C2900
  14              	.LC4:
  15 0081 2870456E 		.string	"(pEncAddr==NULL)"
  15      63416464 
  15      723D3D4E 
  15      554C4C29 
  15      00
  16              	.LC5:
  17 0092 2870456E 		.string	"(pEncOffset==NULL)"
  17      634F6666 
  17      7365743D 
  17      3D4E554C 
  17      4C2900
  18              		.text
  19              		.globl	EApiAHI2CCCreateAddrOffset
  21              	EApiAHI2CCCreateAddrOffset:
  22              	.LFB2:
  23              		.file 1 "/development/eAPI/eapidk-code/apps/EApiValidateAPI/linux/../../common/EApiAHI2C.c"
   1:/development/eAPI/eapidk-code/apps/EApiValidateAPI/linux/../../common/EApiAHI2C.c **** /*
   2:/development/eAPI/eapidk-code/apps/EApiValidateAPI/linux/../../common/EApiAHI2C.c ****  *<KHeader>
   3:/development/eAPI/eapidk-code/apps/EApiValidateAPI/linux/../../common/EApiAHI2C.c ****  *+=========================================================================
   4:/development/eAPI/eapidk-code/apps/EApiValidateAPI/linux/../../common/EApiAHI2C.c ****  *I  Project Name: EApiDK Embedded Application Development Kit
   5:/development/eAPI/eapidk-code/apps/EApiValidateAPI/linux/../../common/EApiAHI2C.c ****  *+=========================================================================
   6:/development/eAPI/eapidk-code/apps/EApiValidateAPI/linux/../../common/EApiAHI2C.c ****  *I  $HeadURL: http://svn.code.sf.net/p/eapidk/code/trunk/apps/common/EApiAHI2C.c $
   7:/development/eAPI/eapidk-code/apps/EApiValidateAPI/linux/../../common/EApiAHI2C.c ****  *+=========================================================================
   8:/development/eAPI/eapidk-code/apps/EApiValidateAPI/linux/../../common/EApiAHI2C.c ****  *I   Copyright: Copyright (c) 2002-2009, Kontron Embedded Modules GmbH
   9:/development/eAPI/eapidk-code/apps/EApiValidateAPI/linux/../../common/EApiAHI2C.c ****  *I      Author: John Kearney,                  John.Kearney@kontron.com
  10:/development/eAPI/eapidk-code/apps/EApiValidateAPI/linux/../../common/EApiAHI2C.c ****  *I
  11:/development/eAPI/eapidk-code/apps/EApiValidateAPI/linux/../../common/EApiAHI2C.c ****  *I     License: All rights reserved. This program and the accompanying 
  12:/development/eAPI/eapidk-code/apps/EApiValidateAPI/linux/../../common/EApiAHI2C.c ****  *I              materials are licensed and made available under the 
  13:/development/eAPI/eapidk-code/apps/EApiValidateAPI/linux/../../common/EApiAHI2C.c ****  *I              terms and conditions of the BSD License which 
  14:/development/eAPI/eapidk-code/apps/EApiValidateAPI/linux/../../common/EApiAHI2C.c ****  *I              accompanies this distribution. The full text of the 
  15:/development/eAPI/eapidk-code/apps/EApiValidateAPI/linux/../../common/EApiAHI2C.c ****  *I              license may be found at 
  16:/development/eAPI/eapidk-code/apps/EApiValidateAPI/linux/../../common/EApiAHI2C.c ****  *I              http://opensource.org/licenses/bsd-license.php
GAS LISTING /tmp/ccRtKyPs.s 			page 2


  17:/development/eAPI/eapidk-code/apps/EApiValidateAPI/linux/../../common/EApiAHI2C.c ****  *I              
  18:/development/eAPI/eapidk-code/apps/EApiValidateAPI/linux/../../common/EApiAHI2C.c ****  *I              THE PROGRAM IS DISTRIBUTED UNDER THE BSD LICENSE ON AN "
  19:/development/eAPI/eapidk-code/apps/EApiValidateAPI/linux/../../common/EApiAHI2C.c ****  *I              AS IS" BASIS, WITHOUT WARRANTIES OR REPRESENTATIONS OF 
  20:/development/eAPI/eapidk-code/apps/EApiValidateAPI/linux/../../common/EApiAHI2C.c ****  *I              ANY KIND, EITHER EXPRESS OR IMPLIED.
  21:/development/eAPI/eapidk-code/apps/EApiValidateAPI/linux/../../common/EApiAHI2C.c ****  *I
  22:/development/eAPI/eapidk-code/apps/EApiValidateAPI/linux/../../common/EApiAHI2C.c ****  *I Description: Auto Created for EApiAHI2C.c
  23:/development/eAPI/eapidk-code/apps/EApiValidateAPI/linux/../../common/EApiAHI2C.c ****  *I
  24:/development/eAPI/eapidk-code/apps/EApiValidateAPI/linux/../../common/EApiAHI2C.c ****  *+-------------------------------------------------------------------------
  25:/development/eAPI/eapidk-code/apps/EApiValidateAPI/linux/../../common/EApiAHI2C.c ****  *I
  26:/development/eAPI/eapidk-code/apps/EApiValidateAPI/linux/../../common/EApiAHI2C.c ****  *I  File Name            : EApiAHI2C.c
  27:/development/eAPI/eapidk-code/apps/EApiValidateAPI/linux/../../common/EApiAHI2C.c ****  *I  File Location        : apps\common
  28:/development/eAPI/eapidk-code/apps/EApiValidateAPI/linux/../../common/EApiAHI2C.c ****  *I  Last committed       : $Revision: 74 $
  29:/development/eAPI/eapidk-code/apps/EApiValidateAPI/linux/../../common/EApiAHI2C.c ****  *I  Last changed by      : $Author: dethrophes $
  30:/development/eAPI/eapidk-code/apps/EApiValidateAPI/linux/../../common/EApiAHI2C.c ****  *I  Last changed date    : $Date: 2010-06-23 21:26:50 +0200 (Wed, 23 Jun 2010) $
  31:/development/eAPI/eapidk-code/apps/EApiValidateAPI/linux/../../common/EApiAHI2C.c ****  *I  ID                   : $Id: EApiAHI2C.c 74 2010-06-23 19:26:50Z dethrophes $
  32:/development/eAPI/eapidk-code/apps/EApiValidateAPI/linux/../../common/EApiAHI2C.c ****  *I
  33:/development/eAPI/eapidk-code/apps/EApiValidateAPI/linux/../../common/EApiAHI2C.c ****  *+=========================================================================
  34:/development/eAPI/eapidk-code/apps/EApiValidateAPI/linux/../../common/EApiAHI2C.c ****  *</KHeader>
  35:/development/eAPI/eapidk-code/apps/EApiValidateAPI/linux/../../common/EApiAHI2C.c ****  */
  36:/development/eAPI/eapidk-code/apps/EApiValidateAPI/linux/../../common/EApiAHI2C.c ****   #include <EApiApp.h>
  37:/development/eAPI/eapidk-code/apps/EApiValidateAPI/linux/../../common/EApiAHI2C.c **** 
  38:/development/eAPI/eapidk-code/apps/EApiValidateAPI/linux/../../common/EApiAHI2C.c **** EApiStatus_t 
  39:/development/eAPI/eapidk-code/apps/EApiValidateAPI/linux/../../common/EApiAHI2C.c **** EApiAHI2CCCreateAddrOffset(
  40:/development/eAPI/eapidk-code/apps/EApiValidateAPI/linux/../../common/EApiAHI2C.c ****     __IN  const I2CDeviceDesc_t *const pDDesc     , 
  41:/development/eAPI/eapidk-code/apps/EApiValidateAPI/linux/../../common/EApiAHI2C.c ****     __IN  size_t                       Offset     , 
  42:/development/eAPI/eapidk-code/apps/EApiValidateAPI/linux/../../common/EApiAHI2C.c ****     __OUT size_t                      *pEncAddr   , 
  43:/development/eAPI/eapidk-code/apps/EApiValidateAPI/linux/../../common/EApiAHI2C.c ****     __OUT size_t                      *pEncOffset
  44:/development/eAPI/eapidk-code/apps/EApiValidateAPI/linux/../../common/EApiAHI2C.c ****     )
  45:/development/eAPI/eapidk-code/apps/EApiValidateAPI/linux/../../common/EApiAHI2C.c **** {
  24              		.loc 1 45 0
  25              		.cfi_startproc
  26 0000 55       		pushq	%rbp
  27              		.cfi_def_cfa_offset 16
  28              		.cfi_offset 6, -16
  29 0001 4889E5   		movq	%rsp, %rbp
  30              		.cfi_def_cfa_register 6
  31 0004 4883EC30 		subq	$48, %rsp
  32 0008 48897DE8 		movq	%rdi, -24(%rbp)
  33 000c 488975E0 		movq	%rsi, -32(%rbp)
  34 0010 488955D8 		movq	%rdx, -40(%rbp)
  35 0014 48894DD0 		movq	%rcx, -48(%rbp)
  46:/development/eAPI/eapidk-code/apps/EApiValidateAPI/linux/../../common/EApiAHI2C.c ****     EApiStatus_t StatusCode=EAPI_STATUS_SUCCESS;
  36              		.loc 1 46 0
  37 0018 C745FC00 		movl	$0, -4(%rbp)
  37      000000
  47:/development/eAPI/eapidk-code/apps/EApiValidateAPI/linux/../../common/EApiAHI2C.c ****     EAPI_APP_ASSERT_PARAMATER_NULL(
  38              		.loc 1 47 0
  39 001f 48837DE8 		cmpq	$0, -24(%rbp)
  39      00
  40 0024 7543     		jne	.L2
  41              		.loc 1 47 0 is_stmt 0 discriminator 1
  42 0026 4883EC08 		subq	$8, %rsp
  43 002a 68000000 		pushq	$.LC3
  43      00
  44 002f 41B90000 		movl	$.LC0, %r9d
  44      0000
  45 0035 41B8FFFE 		movl	$-257, %r8d
GAS LISTING /tmp/ccRtKyPs.s 			page 3


  45      FFFF
  46 003b B9330000 		movl	$51, %ecx
  46      00
  47 0040 BA000000 		movl	$.LC1, %edx
  47      00
  48 0045 BE000000 		movl	$.LC2, %esi
  48      00
  49 004a BF450000 		movl	$69, %edi
  49      00
  50 004f B8000000 		movl	$0, %eax
  50      00
  51 0054 E8000000 		call	siFormattedMessage_SC
  51      00
  52 0059 4883C410 		addq	$16, %rsp
  53 005d C745FCFF 		movl	$-257, -4(%rbp)
  53      FEFFFF
  54 0064 E9250200 		jmp	.L3
  54      00
  55              	.L2:
  48:/development/eAPI/eapidk-code/apps/EApiValidateAPI/linux/../../common/EApiAHI2C.c ****         EApiAHI2CCCreateAddrOffset, 
  49:/development/eAPI/eapidk-code/apps/EApiValidateAPI/linux/../../common/EApiAHI2C.c ****         EAPI_STATUS_INVALID_PARAMETER, 
  50:/development/eAPI/eapidk-code/apps/EApiValidateAPI/linux/../../common/EApiAHI2C.c ****         pDDesc
  51:/development/eAPI/eapidk-code/apps/EApiValidateAPI/linux/../../common/EApiAHI2C.c ****         );
  52:/development/eAPI/eapidk-code/apps/EApiValidateAPI/linux/../../common/EApiAHI2C.c ****     EAPI_APP_ASSERT_PARAMATER_NULL(
  56              		.loc 1 52 0 is_stmt 1
  57 0069 48837DD8 		cmpq	$0, -40(%rbp)
  57      00
  58 006e 7543     		jne	.L4
  59              		.loc 1 52 0 is_stmt 0 discriminator 1
  60 0070 4883EC08 		subq	$8, %rsp
  61 0074 68000000 		pushq	$.LC4
  61      00
  62 0079 41B90000 		movl	$.LC0, %r9d
  62      0000
  63 007f 41B8FFFE 		movl	$-257, %r8d
  63      FFFF
  64 0085 B9380000 		movl	$56, %ecx
  64      00
  65 008a BA000000 		movl	$.LC1, %edx
  65      00
  66 008f BE000000 		movl	$.LC2, %esi
  66      00
  67 0094 BF450000 		movl	$69, %edi
  67      00
  68 0099 B8000000 		movl	$0, %eax
  68      00
  69 009e E8000000 		call	siFormattedMessage_SC
  69      00
  70 00a3 4883C410 		addq	$16, %rsp
  71 00a7 C745FCFF 		movl	$-257, -4(%rbp)
  71      FEFFFF
  72 00ae E9DB0100 		jmp	.L3
  72      00
  73              	.L4:
  53:/development/eAPI/eapidk-code/apps/EApiValidateAPI/linux/../../common/EApiAHI2C.c ****         EApiAHI2CCCreateAddrOffset, 
  54:/development/eAPI/eapidk-code/apps/EApiValidateAPI/linux/../../common/EApiAHI2C.c ****         EAPI_STATUS_INVALID_PARAMETER, 
  55:/development/eAPI/eapidk-code/apps/EApiValidateAPI/linux/../../common/EApiAHI2C.c ****         pEncAddr
GAS LISTING /tmp/ccRtKyPs.s 			page 4


  56:/development/eAPI/eapidk-code/apps/EApiValidateAPI/linux/../../common/EApiAHI2C.c ****         );
  57:/development/eAPI/eapidk-code/apps/EApiValidateAPI/linux/../../common/EApiAHI2C.c ****     EAPI_APP_ASSERT_PARAMATER_NULL(
  74              		.loc 1 57 0 is_stmt 1
  75 00b3 48837DD0 		cmpq	$0, -48(%rbp)
  75      00
  76 00b8 7543     		jne	.L5
  77              		.loc 1 57 0 is_stmt 0 discriminator 1
  78 00ba 4883EC08 		subq	$8, %rsp
  79 00be 68000000 		pushq	$.LC5
  79      00
  80 00c3 41B90000 		movl	$.LC0, %r9d
  80      0000
  81 00c9 41B8FFFE 		movl	$-257, %r8d
  81      FFFF
  82 00cf B93D0000 		movl	$61, %ecx
  82      00
  83 00d4 BA000000 		movl	$.LC1, %edx
  83      00
  84 00d9 BE000000 		movl	$.LC2, %esi
  84      00
  85 00de BF450000 		movl	$69, %edi
  85      00
  86 00e3 B8000000 		movl	$0, %eax
  86      00
  87 00e8 E8000000 		call	siFormattedMessage_SC
  87      00
  88 00ed 4883C410 		addq	$16, %rsp
  89 00f1 C745FCFF 		movl	$-257, -4(%rbp)
  89      FEFFFF
  90 00f8 E9910100 		jmp	.L3
  90      00
  91              	.L5:
  58:/development/eAPI/eapidk-code/apps/EApiValidateAPI/linux/../../common/EApiAHI2C.c ****         EApiAHI2CCCreateAddrOffset, 
  59:/development/eAPI/eapidk-code/apps/EApiValidateAPI/linux/../../common/EApiAHI2C.c ****         EAPI_STATUS_INVALID_PARAMETER, 
  60:/development/eAPI/eapidk-code/apps/EApiValidateAPI/linux/../../common/EApiAHI2C.c ****         pEncOffset
  61:/development/eAPI/eapidk-code/apps/EApiValidateAPI/linux/../../common/EApiAHI2C.c ****         );
  62:/development/eAPI/eapidk-code/apps/EApiValidateAPI/linux/../../common/EApiAHI2C.c ****     if(pDDesc->ExtIndx==EApiAPI2CExtIndex)
  92              		.loc 1 62 0 is_stmt 1
  93 00fd 488B45E8 		movq	-24(%rbp), %rax
  94 0101 0FB74004 		movzwl	4(%rax), %eax
  95 0105 6683F802 		cmpw	$2, %ax
  96 0109 0F85C700 		jne	.L6
  96      0000
  63:/development/eAPI/eapidk-code/apps/EApiValidateAPI/linux/../../common/EApiAHI2C.c ****     {
  64:/development/eAPI/eapidk-code/apps/EApiValidateAPI/linux/../../common/EApiAHI2C.c ****       *pEncOffset=EAPI_I2C_ENC_EXT_CMD(Offset);
  97              		.loc 1 64 0
  98 010f 488B45E0 		movq	-32(%rbp), %rax
  99 0113 0FB7C0   		movzwl	%ax, %eax
 100 0116 0D000000 		orl	$-2147483648, %eax
 100      80
 101 011b 89C2     		movl	%eax, %edx
 102 011d 488B45D0 		movq	-48(%rbp), %rax
 103 0121 488910   		movq	%rdx, (%rax)
  65:/development/eAPI/eapidk-code/apps/EApiValidateAPI/linux/../../common/EApiAHI2C.c ****       Offset>>=16;
 104              		.loc 1 65 0
 105 0124 48C16DE0 		shrq	$16, -32(%rbp)
 105      10
GAS LISTING /tmp/ccRtKyPs.s 			page 5


  66:/development/eAPI/eapidk-code/apps/EApiValidateAPI/linux/../../common/EApiAHI2C.c ****       Offset&=3;
 106              		.loc 1 66 0
 107 0129 488365E0 		andq	$3, -32(%rbp)
 107      03
  67:/development/eAPI/eapidk-code/apps/EApiValidateAPI/linux/../../common/EApiAHI2C.c ****       if(EAPI_I2C_IS_10BIT_ADDR(pDDesc->DeviceAddr))
 108              		.loc 1 67 0
 109 012e 488B45E8 		movq	-24(%rbp), %rax
 110 0132 0FB700   		movzwl	(%rax), %eax
 111 0135 0FB7C0   		movzwl	%ax, %eax
 112 0138 2500F800 		andl	$63488, %eax
 112      00
 113 013d 3D00F000 		cmpl	$61440, %eax
 113      00
 114 0142 756F     		jne	.L7
  68:/development/eAPI/eapidk-code/apps/EApiValidateAPI/linux/../../common/EApiAHI2C.c ****         *pEncAddr=EAPI_I2C_ENC_10BIT_ADDR(
 115              		.loc 1 68 0
 116 0144 488B45E8 		movq	-24(%rbp), %rax
 117 0148 0FB700   		movzwl	(%rax), %eax
 118 014b 0FB7C0   		movzwl	%ax, %eax
 119 014e 0FB6D0   		movzbl	%al, %edx
 120 0151 488B45E8 		movq	-24(%rbp), %rax
 121 0155 0FB700   		movzwl	(%rax), %eax
 122 0158 66D1E8   		shrw	%ax
 123 015b 0FB7C0   		movzwl	%ax, %eax
 124 015e 25000300 		andl	$768, %eax
 124      00
 125 0163 09D0     		orl	%edx, %eax
 126 0165 89C2     		movl	%eax, %edx
 127 0167 488B45E0 		movq	-32(%rbp), %rax
 128 016b 01D0     		addl	%edx, %eax
 129 016d 0FB6D0   		movzbl	%al, %edx
 130 0170 488B45E8 		movq	-24(%rbp), %rax
 131 0174 0FB700   		movzwl	(%rax), %eax
 132 0177 0FB7C0   		movzwl	%ax, %eax
 133 017a 0FB6C8   		movzbl	%al, %ecx
 134 017d 488B45E8 		movq	-24(%rbp), %rax
 135 0181 0FB700   		movzwl	(%rax), %eax
 136 0184 66D1E8   		shrw	%ax
 137 0187 0FB7C0   		movzwl	%ax, %eax
 138 018a 25000300 		andl	$768, %eax
 138      00
 139 018f 09C8     		orl	%ecx, %eax
 140 0191 89C1     		movl	%eax, %ecx
 141 0193 488B45E0 		movq	-32(%rbp), %rax
 142 0197 01C8     		addl	%ecx, %eax
 143 0199 25000300 		andl	$768, %eax
 143      00
 144 019e 01C0     		addl	%eax, %eax
 145 01a0 09D0     		orl	%edx, %eax
 146 01a2 80CCF0   		orb	$240, %ah
 147 01a5 89C2     		movl	%eax, %edx
 148 01a7 488B45D8 		movq	-40(%rbp), %rax
 149 01ab 488910   		movq	%rdx, (%rax)
 150 01ae E9DB0000 		jmp	.L3
 150      00
 151              	.L7:
  69:/development/eAPI/eapidk-code/apps/EApiValidateAPI/linux/../../common/EApiAHI2C.c ****             EAPI_I2C_DEC_10BIT_ADDR(pDDesc->DeviceAddr)+Offset);
GAS LISTING /tmp/ccRtKyPs.s 			page 6


  70:/development/eAPI/eapidk-code/apps/EApiValidateAPI/linux/../../common/EApiAHI2C.c ****       else
  71:/development/eAPI/eapidk-code/apps/EApiValidateAPI/linux/../../common/EApiAHI2C.c ****         *pEncAddr=EAPI_I2C_ENC_7BIT_ADDR(
 152              		.loc 1 71 0
 153 01b3 488B45E8 		movq	-24(%rbp), %rax
 154 01b7 0FB700   		movzwl	(%rax), %eax
 155 01ba 66D1E8   		shrw	%ax
 156 01bd 89C2     		movl	%eax, %edx
 157 01bf 488B45E0 		movq	-32(%rbp), %rax
 158 01c3 01D0     		addl	%edx, %eax
 159 01c5 01C0     		addl	%eax, %eax
 160 01c7 0FB6D0   		movzbl	%al, %edx
 161 01ca 488B45D8 		movq	-40(%rbp), %rax
 162 01ce 488910   		movq	%rdx, (%rax)
 163 01d1 E9B80000 		jmp	.L3
 163      00
 164              	.L6:
  72:/development/eAPI/eapidk-code/apps/EApiValidateAPI/linux/../../common/EApiAHI2C.c ****             EAPI_I2C_DEC_7BIT_ADDR(pDDesc->DeviceAddr)+Offset);
  73:/development/eAPI/eapidk-code/apps/EApiValidateAPI/linux/../../common/EApiAHI2C.c ****     }
  74:/development/eAPI/eapidk-code/apps/EApiValidateAPI/linux/../../common/EApiAHI2C.c ****     else
  75:/development/eAPI/eapidk-code/apps/EApiValidateAPI/linux/../../common/EApiAHI2C.c ****     {
  76:/development/eAPI/eapidk-code/apps/EApiValidateAPI/linux/../../common/EApiAHI2C.c ****       *pEncOffset=EAPI_I2C_ENC_STD_CMD(Offset);
 165              		.loc 1 76 0
 166 01d6 488B45E0 		movq	-32(%rbp), %rax
 167 01da 0FB6D0   		movzbl	%al, %edx
 168 01dd 488B45D0 		movq	-48(%rbp), %rax
 169 01e1 488910   		movq	%rdx, (%rax)
  77:/development/eAPI/eapidk-code/apps/EApiValidateAPI/linux/../../common/EApiAHI2C.c ****       Offset>>=8;
 170              		.loc 1 77 0
 171 01e4 48C16DE0 		shrq	$8, -32(%rbp)
 171      08
  78:/development/eAPI/eapidk-code/apps/EApiValidateAPI/linux/../../common/EApiAHI2C.c ****       Offset&=3;
 172              		.loc 1 78 0
 173 01e9 488365E0 		andq	$3, -32(%rbp)
 173      03
  79:/development/eAPI/eapidk-code/apps/EApiValidateAPI/linux/../../common/EApiAHI2C.c ****       if(EAPI_I2C_IS_10BIT_ADDR(pDDesc->DeviceAddr))
 174              		.loc 1 79 0
 175 01ee 488B45E8 		movq	-24(%rbp), %rax
 176 01f2 0FB700   		movzwl	(%rax), %eax
 177 01f5 0FB7C0   		movzwl	%ax, %eax
 178 01f8 2500F800 		andl	$63488, %eax
 178      00
 179 01fd 3D00F000 		cmpl	$61440, %eax
 179      00
 180 0202 756C     		jne	.L9
  80:/development/eAPI/eapidk-code/apps/EApiValidateAPI/linux/../../common/EApiAHI2C.c ****         *pEncAddr=EAPI_I2C_ENC_10BIT_ADDR(
 181              		.loc 1 80 0
 182 0204 488B45E8 		movq	-24(%rbp), %rax
 183 0208 0FB700   		movzwl	(%rax), %eax
 184 020b 0FB7C0   		movzwl	%ax, %eax
 185 020e 0FB6D0   		movzbl	%al, %edx
 186 0211 488B45E8 		movq	-24(%rbp), %rax
 187 0215 0FB700   		movzwl	(%rax), %eax
 188 0218 66D1E8   		shrw	%ax
 189 021b 0FB7C0   		movzwl	%ax, %eax
 190 021e 25000300 		andl	$768, %eax
 190      00
 191 0223 09D0     		orl	%edx, %eax
GAS LISTING /tmp/ccRtKyPs.s 			page 7


 192 0225 89C2     		movl	%eax, %edx
 193 0227 488B45E0 		movq	-32(%rbp), %rax
 194 022b 01D0     		addl	%edx, %eax
 195 022d 0FB6D0   		movzbl	%al, %edx
 196 0230 488B45E8 		movq	-24(%rbp), %rax
 197 0234 0FB700   		movzwl	(%rax), %eax
 198 0237 0FB7C0   		movzwl	%ax, %eax
 199 023a 0FB6C8   		movzbl	%al, %ecx
 200 023d 488B45E8 		movq	-24(%rbp), %rax
 201 0241 0FB700   		movzwl	(%rax), %eax
 202 0244 66D1E8   		shrw	%ax
 203 0247 0FB7C0   		movzwl	%ax, %eax
 204 024a 25000300 		andl	$768, %eax
 204      00
 205 024f 09C8     		orl	%ecx, %eax
 206 0251 89C1     		movl	%eax, %ecx
 207 0253 488B45E0 		movq	-32(%rbp), %rax
 208 0257 01C8     		addl	%ecx, %eax
 209 0259 25000300 		andl	$768, %eax
 209      00
 210 025e 01C0     		addl	%eax, %eax
 211 0260 09D0     		orl	%edx, %eax
 212 0262 80CCF0   		orb	$240, %ah
 213 0265 89C2     		movl	%eax, %edx
 214 0267 488B45D8 		movq	-40(%rbp), %rax
 215 026b 488910   		movq	%rdx, (%rax)
 216 026e EB1E     		jmp	.L3
 217              	.L9:
  81:/development/eAPI/eapidk-code/apps/EApiValidateAPI/linux/../../common/EApiAHI2C.c ****             EAPI_I2C_DEC_10BIT_ADDR(pDDesc->DeviceAddr)+Offset);
  82:/development/eAPI/eapidk-code/apps/EApiValidateAPI/linux/../../common/EApiAHI2C.c ****       else
  83:/development/eAPI/eapidk-code/apps/EApiValidateAPI/linux/../../common/EApiAHI2C.c ****         *pEncAddr=EAPI_I2C_ENC_7BIT_ADDR(
 218              		.loc 1 83 0
 219 0270 488B45E8 		movq	-24(%rbp), %rax
 220 0274 0FB700   		movzwl	(%rax), %eax
 221 0277 66D1E8   		shrw	%ax
 222 027a 89C2     		movl	%eax, %edx
 223 027c 488B45E0 		movq	-32(%rbp), %rax
 224 0280 01D0     		addl	%edx, %eax
 225 0282 01C0     		addl	%eax, %eax
 226 0284 0FB6D0   		movzbl	%al, %edx
 227 0287 488B45D8 		movq	-40(%rbp), %rax
 228 028b 488910   		movq	%rdx, (%rax)
 229              	.L3:
  84:/development/eAPI/eapidk-code/apps/EApiValidateAPI/linux/../../common/EApiAHI2C.c ****             EAPI_I2C_DEC_7BIT_ADDR(pDDesc->DeviceAddr)+Offset);
  85:/development/eAPI/eapidk-code/apps/EApiValidateAPI/linux/../../common/EApiAHI2C.c **** 
  86:/development/eAPI/eapidk-code/apps/EApiValidateAPI/linux/../../common/EApiAHI2C.c ****     }
  87:/development/eAPI/eapidk-code/apps/EApiValidateAPI/linux/../../common/EApiAHI2C.c **** EAPI_APP_ASSERT_EXIT
  88:/development/eAPI/eapidk-code/apps/EApiValidateAPI/linux/../../common/EApiAHI2C.c ****   return StatusCode;
 230              		.loc 1 88 0
 231 028e 8B45FC   		movl	-4(%rbp), %eax
  89:/development/eAPI/eapidk-code/apps/EApiValidateAPI/linux/../../common/EApiAHI2C.c **** }
 232              		.loc 1 89 0
 233 0291 C9       		leave
 234              		.cfi_def_cfa 7, 8
 235 0292 C3       		ret
 236              		.cfi_endproc
 237              	.LFE2:
GAS LISTING /tmp/ccRtKyPs.s 			page 8


 239              		.globl	ValidEEPDevDesc
 241              	ValidEEPDevDesc:
 242              	.LFB3:
  90:/development/eAPI/eapidk-code/apps/EApiValidateAPI/linux/../../common/EApiAHI2C.c **** EApiStatus_t
  91:/development/eAPI/eapidk-code/apps/EApiValidateAPI/linux/../../common/EApiAHI2C.c **** ValidEEPDevDesc(
  92:/development/eAPI/eapidk-code/apps/EApiValidateAPI/linux/../../common/EApiAHI2C.c ****     __IN const I2CDeviceDesc_t *const pDDesc
  93:/development/eAPI/eapidk-code/apps/EApiValidateAPI/linux/../../common/EApiAHI2C.c ****     )
  94:/development/eAPI/eapidk-code/apps/EApiValidateAPI/linux/../../common/EApiAHI2C.c **** {
 243              		.loc 1 94 0
 244              		.cfi_startproc
 245 0293 55       		pushq	%rbp
 246              		.cfi_def_cfa_offset 16
 247              		.cfi_offset 6, -16
 248 0294 4889E5   		movq	%rsp, %rbp
 249              		.cfi_def_cfa_register 6
 250 0297 48897DE8 		movq	%rdi, -24(%rbp)
  95:/development/eAPI/eapidk-code/apps/EApiValidateAPI/linux/../../common/EApiAHI2C.c ****     EApiStatus_t StatusCode=EAPI_STATUS_SUCCESS;
 251              		.loc 1 95 0
 252 029b C745F800 		movl	$0, -8(%rbp)
 252      000000
  96:/development/eAPI/eapidk-code/apps/EApiValidateAPI/linux/../../common/EApiAHI2C.c ****     int AddrCnt;
  97:/development/eAPI/eapidk-code/apps/EApiValidateAPI/linux/../../common/EApiAHI2C.c ****     if(pDDesc->ExtIndx==EApiAPI2CExtIndex)
 253              		.loc 1 97 0
 254 02a2 488B45E8 		movq	-24(%rbp), %rax
 255 02a6 0FB74004 		movzwl	4(%rax), %eax
 256 02aa 6683F802 		cmpw	$2, %ax
 257 02ae 7511     		jne	.L12
  98:/development/eAPI/eapidk-code/apps/EApiValidateAPI/linux/../../common/EApiAHI2C.c ****     {
  99:/development/eAPI/eapidk-code/apps/EApiValidateAPI/linux/../../common/EApiAHI2C.c ****       AddrCnt=pDDesc->DevSize>>16<<1;
 258              		.loc 1 99 0
 259 02b0 488B45E8 		movq	-24(%rbp), %rax
 260 02b4 8B4008   		movl	8(%rax), %eax
 261 02b7 C1E810   		shrl	$16, %eax
 262 02ba 01C0     		addl	%eax, %eax
 263 02bc 8945FC   		movl	%eax, -4(%rbp)
 264 02bf EB32     		jmp	.L13
 265              	.L12:
 100:/development/eAPI/eapidk-code/apps/EApiValidateAPI/linux/../../common/EApiAHI2C.c ****       if(AddrCnt)
 101:/development/eAPI/eapidk-code/apps/EApiValidateAPI/linux/../../common/EApiAHI2C.c ****       {
 102:/development/eAPI/eapidk-code/apps/EApiValidateAPI/linux/../../common/EApiAHI2C.c ****         /* Not Sure */
 103:/development/eAPI/eapidk-code/apps/EApiValidateAPI/linux/../../common/EApiAHI2C.c ****       }
 104:/development/eAPI/eapidk-code/apps/EApiValidateAPI/linux/../../common/EApiAHI2C.c ****     }
 105:/development/eAPI/eapidk-code/apps/EApiValidateAPI/linux/../../common/EApiAHI2C.c ****     else
 106:/development/eAPI/eapidk-code/apps/EApiValidateAPI/linux/../../common/EApiAHI2C.c ****     {
 107:/development/eAPI/eapidk-code/apps/EApiValidateAPI/linux/../../common/EApiAHI2C.c ****       AddrCnt=pDDesc->DevSize>>8<<1;
 266              		.loc 1 107 0
 267 02c1 488B45E8 		movq	-24(%rbp), %rax
 268 02c5 8B4008   		movl	8(%rax), %eax
 269 02c8 C1E808   		shrl	$8, %eax
 270 02cb 01C0     		addl	%eax, %eax
 271 02cd 8945FC   		movl	%eax, -4(%rbp)
 108:/development/eAPI/eapidk-code/apps/EApiValidateAPI/linux/../../common/EApiAHI2C.c ****       if(AddrCnt)
 272              		.loc 1 108 0
 273 02d0 837DFC00 		cmpl	$0, -4(%rbp)
 274 02d4 741D     		je	.L13
 109:/development/eAPI/eapidk-code/apps/EApiValidateAPI/linux/../../common/EApiAHI2C.c ****       {
 110:/development/eAPI/eapidk-code/apps/EApiValidateAPI/linux/../../common/EApiAHI2C.c ****         if((pDDesc->DeviceAddr+AddrCnt)>0xAF)
GAS LISTING /tmp/ccRtKyPs.s 			page 9


 275              		.loc 1 110 0
 276 02d6 488B45E8 		movq	-24(%rbp), %rax
 277 02da 0FB700   		movzwl	(%rax), %eax
 278 02dd 0FB7D0   		movzwl	%ax, %edx
 279 02e0 8B45FC   		movl	-4(%rbp), %eax
 280 02e3 01D0     		addl	%edx, %eax
 281 02e5 3DAF0000 		cmpl	$175, %eax
 281      00
 282 02ea 7E07     		jle	.L13
 111:/development/eAPI/eapidk-code/apps/EApiValidateAPI/linux/../../common/EApiAHI2C.c ****         {
 112:/development/eAPI/eapidk-code/apps/EApiValidateAPI/linux/../../common/EApiAHI2C.c ****           return EAPI_STATUS_INVALID_PARAMETER;
 283              		.loc 1 112 0
 284 02ec B8FFFEFF 		movl	$-257, %eax
 284      FF
 285 02f1 EB03     		jmp	.L14
 286              	.L13:
 113:/development/eAPI/eapidk-code/apps/EApiValidateAPI/linux/../../common/EApiAHI2C.c ****         }
 114:/development/eAPI/eapidk-code/apps/EApiValidateAPI/linux/../../common/EApiAHI2C.c ****       }
 115:/development/eAPI/eapidk-code/apps/EApiValidateAPI/linux/../../common/EApiAHI2C.c ****     }
 116:/development/eAPI/eapidk-code/apps/EApiValidateAPI/linux/../../common/EApiAHI2C.c ****     return StatusCode;
 287              		.loc 1 116 0
 288 02f3 8B45F8   		movl	-8(%rbp), %eax
 289              	.L14:
 117:/development/eAPI/eapidk-code/apps/EApiValidateAPI/linux/../../common/EApiAHI2C.c **** }
 290              		.loc 1 117 0
 291 02f6 5D       		popq	%rbp
 292              		.cfi_def_cfa 7, 8
 293 02f7 C3       		ret
 294              		.cfi_endproc
 295              	.LFE3:
 297              		.section	.rodata
 298              	.LC6:
 299 00a5 45417069 		.string	"EApiAHI2CWriteEeprom"
 299      41484932 
 299      43577269 
 299      74654565 
 299      70726F6D 
 300              	.LC7:
 301 00ba 28704275 		.string	"(pBuffer==NULL)"
 301      66666572 
 301      3D3D4E55 
 301      4C4C2900 
 302              	.LC8:
 303 00ca 28427974 		.string	"(ByteCnt==0)"
 303      65436E74 
 303      3D3D3029 
 303      00
 304 00d7 00       		.align 8
 305              	.LC9:
 306 00d8 496E7661 		.string	"Invalid EEPROM Device Descriptor"
 306      6C696420 
 306      45455052 
 306      4F4D2044 
 306      65766963 
 307 00f9 00000000 		.align 8
 307      000000
 308              	.LC10:
GAS LISTING /tmp/ccRtKyPs.s 			page 10


 309 0100 50726576 		.string	"Prevented Write beyond Device Boundary"
 309      656E7465 
 309      64205772 
 309      69746520 
 309      6265796F 
 310              		.text
 311              		.globl	EApiAHI2CWriteEeprom
 313              	EApiAHI2CWriteEeprom:
 314              	.LFB4:
 118:/development/eAPI/eapidk-code/apps/EApiValidateAPI/linux/../../common/EApiAHI2C.c **** EApiStatus_t
 119:/development/eAPI/eapidk-code/apps/EApiValidateAPI/linux/../../common/EApiAHI2C.c **** EApiAHI2CWriteEeprom(
 120:/development/eAPI/eapidk-code/apps/EApiValidateAPI/linux/../../common/EApiAHI2C.c ****     __IN EApiId_t               Id          , 
 121:/development/eAPI/eapidk-code/apps/EApiValidateAPI/linux/../../common/EApiAHI2C.c ****     __IN const I2CDeviceDesc_t *const pDDesc, 
 122:/development/eAPI/eapidk-code/apps/EApiValidateAPI/linux/../../common/EApiAHI2C.c ****     __IN const size_t           ByteOffset  , 
 123:/development/eAPI/eapidk-code/apps/EApiValidateAPI/linux/../../common/EApiAHI2C.c ****     __IN void *                 pBuffer     , 
 124:/development/eAPI/eapidk-code/apps/EApiValidateAPI/linux/../../common/EApiAHI2C.c ****     __IN size_t                 ByteCnt 
 125:/development/eAPI/eapidk-code/apps/EApiValidateAPI/linux/../../common/EApiAHI2C.c ****     )
 126:/development/eAPI/eapidk-code/apps/EApiValidateAPI/linux/../../common/EApiAHI2C.c **** {
 315              		.loc 1 126 0
 316              		.cfi_startproc
 317 02f8 55       		pushq	%rbp
 318              		.cfi_def_cfa_offset 16
 319              		.cfi_offset 6, -16
 320 02f9 4889E5   		movq	%rsp, %rbp
 321              		.cfi_def_cfa_register 6
 322 02fc 4883EC70 		subq	$112, %rsp
 323 0300 897DBC   		movl	%edi, -68(%rbp)
 324 0303 488975B0 		movq	%rsi, -80(%rbp)
 325 0307 488955A8 		movq	%rdx, -88(%rbp)
 326 030b 48894DA0 		movq	%rcx, -96(%rbp)
 327 030f 4C894598 		movq	%r8, -104(%rbp)
 328              		.loc 1 126 0
 329 0313 64488B04 		movq	%fs:40, %rax
 329      25280000 
 329      00
 330 031c 488945F8 		movq	%rax, -8(%rbp)
 331 0320 31C0     		xorl	%eax, %eax
 127:/development/eAPI/eapidk-code/apps/EApiValidateAPI/linux/../../common/EApiAHI2C.c ****     EApiStatus_t StatusCode=EAPI_STATUS_SUCCESS;
 332              		.loc 1 127 0
 333 0322 C745C400 		movl	$0, -60(%rbp)
 333      000000
 128:/development/eAPI/eapidk-code/apps/EApiValidateAPI/linux/../../common/EApiAHI2C.c ****     uint32_t IntMaxBlckLen;
 129:/development/eAPI/eapidk-code/apps/EApiValidateAPI/linux/../../common/EApiAHI2C.c ****     size_t BlockEndAddress;
 130:/development/eAPI/eapidk-code/apps/EApiValidateAPI/linux/../../common/EApiAHI2C.c ****     size_t BlockLength;
 131:/development/eAPI/eapidk-code/apps/EApiValidateAPI/linux/../../common/EApiAHI2C.c ****     size_t BlockLengthStd;
 132:/development/eAPI/eapidk-code/apps/EApiValidateAPI/linux/../../common/EApiAHI2C.c ****     size_t CurOffset;
 133:/development/eAPI/eapidk-code/apps/EApiValidateAPI/linux/../../common/EApiAHI2C.c ****     size_t EncAddr;
 134:/development/eAPI/eapidk-code/apps/EApiValidateAPI/linux/../../common/EApiAHI2C.c ****     size_t EncOffset;
 135:/development/eAPI/eapidk-code/apps/EApiValidateAPI/linux/../../common/EApiAHI2C.c ****     
 136:/development/eAPI/eapidk-code/apps/EApiValidateAPI/linux/../../common/EApiAHI2C.c ****     EAPI_APP_ASSERT_PARAMATER_NULL(
 334              		.loc 1 136 0
 335 0329 48837DB0 		cmpq	$0, -80(%rbp)
 335      00
 336 032e 7543     		jne	.L16
 337              		.loc 1 136 0 is_stmt 0 discriminator 1
 338 0330 4883EC08 		subq	$8, %rsp
 339 0334 68000000 		pushq	$.LC3
GAS LISTING /tmp/ccRtKyPs.s 			page 11


 339      00
 340 0339 41B90000 		movl	$.LC0, %r9d
 340      0000
 341 033f 41B8FFFE 		movl	$-257, %r8d
 341      FFFF
 342 0345 B98C0000 		movl	$140, %ecx
 342      00
 343 034a BA000000 		movl	$.LC6, %edx
 343      00
 344 034f BE000000 		movl	$.LC2, %esi
 344      00
 345 0354 BF450000 		movl	$69, %edi
 345      00
 346 0359 B8000000 		movl	$0, %eax
 346      00
 347 035e E8000000 		call	siFormattedMessage_SC
 347      00
 348 0363 4883C410 		addq	$16, %rsp
 349 0367 C745C4FF 		movl	$-257, -60(%rbp)
 349      FEFFFF
 350 036e E9800300 		jmp	.L34
 350      00
 351              	.L16:
 137:/development/eAPI/eapidk-code/apps/EApiValidateAPI/linux/../../common/EApiAHI2C.c ****         EApiAHI2CWriteEeprom, 
 138:/development/eAPI/eapidk-code/apps/EApiValidateAPI/linux/../../common/EApiAHI2C.c ****         EAPI_STATUS_INVALID_PARAMETER, 
 139:/development/eAPI/eapidk-code/apps/EApiValidateAPI/linux/../../common/EApiAHI2C.c ****         pDDesc
 140:/development/eAPI/eapidk-code/apps/EApiValidateAPI/linux/../../common/EApiAHI2C.c ****         );
 141:/development/eAPI/eapidk-code/apps/EApiValidateAPI/linux/../../common/EApiAHI2C.c ****     EAPI_APP_ASSERT_PARAMATER_NULL(
 352              		.loc 1 141 0 is_stmt 1
 353 0373 48837DA0 		cmpq	$0, -96(%rbp)
 353      00
 354 0378 7543     		jne	.L18
 355              		.loc 1 141 0 is_stmt 0 discriminator 1
 356 037a 4883EC08 		subq	$8, %rsp
 357 037e 68000000 		pushq	$.LC7
 357      00
 358 0383 41B90000 		movl	$.LC0, %r9d
 358      0000
 359 0389 41B8FFFE 		movl	$-257, %r8d
 359      FFFF
 360 038f B9910000 		movl	$145, %ecx
 360      00
 361 0394 BA000000 		movl	$.LC6, %edx
 361      00
 362 0399 BE000000 		movl	$.LC2, %esi
 362      00
 363 039e BF450000 		movl	$69, %edi
 363      00
 364 03a3 B8000000 		movl	$0, %eax
 364      00
 365 03a8 E8000000 		call	siFormattedMessage_SC
 365      00
 366 03ad 4883C410 		addq	$16, %rsp
 367 03b1 C745C4FF 		movl	$-257, -60(%rbp)
 367      FEFFFF
 368 03b8 E9360300 		jmp	.L34
 368      00
GAS LISTING /tmp/ccRtKyPs.s 			page 12


 369              	.L18:
 142:/development/eAPI/eapidk-code/apps/EApiValidateAPI/linux/../../common/EApiAHI2C.c ****         EApiAHI2CWriteEeprom, 
 143:/development/eAPI/eapidk-code/apps/EApiValidateAPI/linux/../../common/EApiAHI2C.c ****         EAPI_STATUS_INVALID_PARAMETER, 
 144:/development/eAPI/eapidk-code/apps/EApiValidateAPI/linux/../../common/EApiAHI2C.c ****         pBuffer
 145:/development/eAPI/eapidk-code/apps/EApiValidateAPI/linux/../../common/EApiAHI2C.c ****         );
 146:/development/eAPI/eapidk-code/apps/EApiValidateAPI/linux/../../common/EApiAHI2C.c ****     EAPI_APP_ASSERT_PARAMATER_ZERO(
 370              		.loc 1 146 0 is_stmt 1
 371 03bd 48837D98 		cmpq	$0, -104(%rbp)
 371      00
 372 03c2 7543     		jne	.L19
 373              		.loc 1 146 0 is_stmt 0 discriminator 1
 374 03c4 4883EC08 		subq	$8, %rsp
 375 03c8 68000000 		pushq	$.LC8
 375      00
 376 03cd 41B90000 		movl	$.LC0, %r9d
 376      0000
 377 03d3 41B8FFFE 		movl	$-257, %r8d
 377      FFFF
 378 03d9 B9960000 		movl	$150, %ecx
 378      00
 379 03de BA000000 		movl	$.LC6, %edx
 379      00
 380 03e3 BE000000 		movl	$.LC2, %esi
 380      00
 381 03e8 BF450000 		movl	$69, %edi
 381      00
 382 03ed B8000000 		movl	$0, %eax
 382      00
 383 03f2 E8000000 		call	siFormattedMessage_SC
 383      00
 384 03f7 4883C410 		addq	$16, %rsp
 385 03fb C745C4FF 		movl	$-257, -60(%rbp)
 385      FEFFFF
 386 0402 E9EC0200 		jmp	.L34
 386      00
 387              	.L19:
 147:/development/eAPI/eapidk-code/apps/EApiValidateAPI/linux/../../common/EApiAHI2C.c ****         EApiAHI2CWriteEeprom, 
 148:/development/eAPI/eapidk-code/apps/EApiValidateAPI/linux/../../common/EApiAHI2C.c ****         EAPI_STATUS_INVALID_PARAMETER, 
 149:/development/eAPI/eapidk-code/apps/EApiValidateAPI/linux/../../common/EApiAHI2C.c ****         ByteCnt
 150:/development/eAPI/eapidk-code/apps/EApiValidateAPI/linux/../../common/EApiAHI2C.c ****         );
 151:/development/eAPI/eapidk-code/apps/EApiValidateAPI/linux/../../common/EApiAHI2C.c ****     EAPI_APP_ASSERT_PARAMATER_CHECK(
 388              		.loc 1 151 0 is_stmt 1
 389 0407 488B45B0 		movq	-80(%rbp), %rax
 390 040b 4889C7   		movq	%rax, %rdi
 391 040e E8000000 		call	ValidEEPDevDesc
 391      00
 392 0413 85C0     		testl	%eax, %eax
 393 0415 7443     		je	.L20
 394              		.loc 1 151 0 is_stmt 0 discriminator 1
 395 0417 4883EC08 		subq	$8, %rsp
 396 041b 68000000 		pushq	$.LC9
 396      00
 397 0420 41B90000 		movl	$.LC0, %r9d
 397      0000
 398 0426 41B8FFFE 		movl	$-257, %r8d
 398      FFFF
 399 042c B99C0000 		movl	$156, %ecx
GAS LISTING /tmp/ccRtKyPs.s 			page 13


 399      00
 400 0431 BA000000 		movl	$.LC6, %edx
 400      00
 401 0436 BE000000 		movl	$.LC2, %esi
 401      00
 402 043b BF450000 		movl	$69, %edi
 402      00
 403 0440 B8000000 		movl	$0, %eax
 403      00
 404 0445 E8000000 		call	siFormattedMessage_SC
 404      00
 405 044a 4883C410 		addq	$16, %rsp
 406 044e C745C4FF 		movl	$-257, -60(%rbp)
 406      FEFFFF
 407 0455 E9990200 		jmp	.L34
 407      00
 408              	.L20:
 152:/development/eAPI/eapidk-code/apps/EApiValidateAPI/linux/../../common/EApiAHI2C.c ****         EApiAHI2CWriteEeprom, 
 153:/development/eAPI/eapidk-code/apps/EApiValidateAPI/linux/../../common/EApiAHI2C.c ****         EAPI_STATUS_INVALID_PARAMETER, 
 154:/development/eAPI/eapidk-code/apps/EApiValidateAPI/linux/../../common/EApiAHI2C.c ****         ValidEEPDevDesc(pDDesc) , 
 155:/development/eAPI/eapidk-code/apps/EApiValidateAPI/linux/../../common/EApiAHI2C.c ****         "Invalid EEPROM Device Descriptor"
 156:/development/eAPI/eapidk-code/apps/EApiValidateAPI/linux/../../common/EApiAHI2C.c ****         );
 157:/development/eAPI/eapidk-code/apps/EApiValidateAPI/linux/../../common/EApiAHI2C.c ****     EAPI_APP_ASSERT_PARAMATER_CHECK(
 409              		.loc 1 157 0 is_stmt 1
 410 045a 488B55A8 		movq	-88(%rbp), %rdx
 411 045e 488B4598 		movq	-104(%rbp), %rax
 412 0462 4801C2   		addq	%rax, %rdx
 413 0465 488B45B0 		movq	-80(%rbp), %rax
 414 0469 8B4008   		movl	8(%rax), %eax
 415 046c 89C0     		movl	%eax, %eax
 416 046e 4839C2   		cmpq	%rax, %rdx
 417 0471 7643     		jbe	.L21
 418              		.loc 1 157 0 is_stmt 0 discriminator 1
 419 0473 4883EC08 		subq	$8, %rsp
 420 0477 68000000 		pushq	$.LC10
 420      00
 421 047c 41B90000 		movl	$.LC0, %r9d
 421      0000
 422 0482 41B8FFFE 		movl	$-257, %r8d
 422      FFFF
 423 0488 B9A20000 		movl	$162, %ecx
 423      00
 424 048d BA000000 		movl	$.LC6, %edx
 424      00
 425 0492 BE000000 		movl	$.LC2, %esi
 425      00
 426 0497 BF450000 		movl	$69, %edi
 426      00
 427 049c B8000000 		movl	$0, %eax
 427      00
 428 04a1 E8000000 		call	siFormattedMessage_SC
 428      00
 429 04a6 4883C410 		addq	$16, %rsp
 430 04aa C745C4FF 		movl	$-257, -60(%rbp)
 430      FEFFFF
 431 04b1 E93D0200 		jmp	.L34
 431      00
GAS LISTING /tmp/ccRtKyPs.s 			page 14


 432              	.L21:
 158:/development/eAPI/eapidk-code/apps/EApiValidateAPI/linux/../../common/EApiAHI2C.c ****         EApiAHI2CWriteEeprom, 
 159:/development/eAPI/eapidk-code/apps/EApiValidateAPI/linux/../../common/EApiAHI2C.c ****         EAPI_STATUS_INVALID_PARAMETER, 
 160:/development/eAPI/eapidk-code/apps/EApiValidateAPI/linux/../../common/EApiAHI2C.c ****         ByteOffset+ByteCnt>pDDesc->DevSize, 
 161:/development/eAPI/eapidk-code/apps/EApiValidateAPI/linux/../../common/EApiAHI2C.c ****         "Prevented Write beyond Device Boundary"
 162:/development/eAPI/eapidk-code/apps/EApiValidateAPI/linux/../../common/EApiAHI2C.c ****         );
 163:/development/eAPI/eapidk-code/apps/EApiValidateAPI/linux/../../common/EApiAHI2C.c **** #if STRICT_VALIDATION
 164:/development/eAPI/eapidk-code/apps/EApiValidateAPI/linux/../../common/EApiAHI2C.c ****     if(ByteOffset+ByteCnt>pDDesc->DevSize)
 433              		.loc 1 164 0 is_stmt 1
 434 04b6 488B55A8 		movq	-88(%rbp), %rdx
 435 04ba 488B4598 		movq	-104(%rbp), %rax
 436 04be 4801C2   		addq	%rax, %rdx
 437 04c1 488B45B0 		movq	-80(%rbp), %rax
 438 04c5 8B4008   		movl	8(%rax), %eax
 439 04c8 89C0     		movl	%eax, %eax
 440 04ca 4839C2   		cmpq	%rax, %rdx
 441 04cd 7611     		jbe	.L22
 165:/development/eAPI/eapidk-code/apps/EApiValidateAPI/linux/../../common/EApiAHI2C.c ****     {
 166:/development/eAPI/eapidk-code/apps/EApiValidateAPI/linux/../../common/EApiAHI2C.c ****       ByteCnt=pDDesc->DevSize-ByteOffset;
 442              		.loc 1 166 0
 443 04cf 488B45B0 		movq	-80(%rbp), %rax
 444 04d3 8B4008   		movl	8(%rax), %eax
 445 04d6 89C0     		movl	%eax, %eax
 446 04d8 482B45A8 		subq	-88(%rbp), %rax
 447 04dc 48894598 		movq	%rax, -104(%rbp)
 448              	.L22:
 167:/development/eAPI/eapidk-code/apps/EApiValidateAPI/linux/../../common/EApiAHI2C.c ****     }
 168:/development/eAPI/eapidk-code/apps/EApiValidateAPI/linux/../../common/EApiAHI2C.c **** #endif
 169:/development/eAPI/eapidk-code/apps/EApiValidateAPI/linux/../../common/EApiAHI2C.c **** #if 0
 170:/development/eAPI/eapidk-code/apps/EApiValidateAPI/linux/../../common/EApiAHI2C.c ****     printf(
 171:/development/eAPI/eapidk-code/apps/EApiValidateAPI/linux/../../common/EApiAHI2C.c ****         "DeviceAddr = %04"PRIX16"\n"
 172:/development/eAPI/eapidk-code/apps/EApiValidateAPI/linux/../../common/EApiAHI2C.c ****         "PageSize   = %04"PRIX16"\n"
 173:/development/eAPI/eapidk-code/apps/EApiValidateAPI/linux/../../common/EApiAHI2C.c ****         "ExtIndx    = %04"PRIX16"\n"
 174:/development/eAPI/eapidk-code/apps/EApiValidateAPI/linux/../../common/EApiAHI2C.c ****         "WRecTimems = %04"PRIX16"\n"
 175:/development/eAPI/eapidk-code/apps/EApiValidateAPI/linux/../../common/EApiAHI2C.c ****         "DevSize    = %04"PRIX16"\n"
 176:/development/eAPI/eapidk-code/apps/EApiValidateAPI/linux/../../common/EApiAHI2C.c ****         "ByteCnt    = %04lX\n"
 177:/development/eAPI/eapidk-code/apps/EApiValidateAPI/linux/../../common/EApiAHI2C.c ****         "ByteOffset = %04lX\n",
 178:/development/eAPI/eapidk-code/apps/EApiValidateAPI/linux/../../common/EApiAHI2C.c ****         pDDesc->DeviceAddr,
 179:/development/eAPI/eapidk-code/apps/EApiValidateAPI/linux/../../common/EApiAHI2C.c ****         pDDesc->PageSize,
 180:/development/eAPI/eapidk-code/apps/EApiValidateAPI/linux/../../common/EApiAHI2C.c ****         pDDesc->ExtIndx,
 181:/development/eAPI/eapidk-code/apps/EApiValidateAPI/linux/../../common/EApiAHI2C.c ****         pDDesc->WRecTimems,
 182:/development/eAPI/eapidk-code/apps/EApiValidateAPI/linux/../../common/EApiAHI2C.c ****         pDDesc->DevSize ,
 183:/development/eAPI/eapidk-code/apps/EApiValidateAPI/linux/../../common/EApiAHI2C.c ****         (unsigned long)ByteCnt ,
 184:/development/eAPI/eapidk-code/apps/EApiValidateAPI/linux/../../common/EApiAHI2C.c ****         (unsigned long)ByteOffset
 185:/development/eAPI/eapidk-code/apps/EApiValidateAPI/linux/../../common/EApiAHI2C.c ****       );
 186:/development/eAPI/eapidk-code/apps/EApiValidateAPI/linux/../../common/EApiAHI2C.c **** #endif
 187:/development/eAPI/eapidk-code/apps/EApiValidateAPI/linux/../../common/EApiAHI2C.c ****     
 188:/development/eAPI/eapidk-code/apps/EApiValidateAPI/linux/../../common/EApiAHI2C.c ****     /* Get Storage Capabilities */
 189:/development/eAPI/eapidk-code/apps/EApiValidateAPI/linux/../../common/EApiAHI2C.c ****     StatusCode=EApiI2CGetBusCap(Id, &IntMaxBlckLen);
 449              		.loc 1 189 0
 450 04e0 488D55C0 		leaq	-64(%rbp), %rdx
 451 04e4 8B45BC   		movl	-68(%rbp), %eax
 452 04e7 4889D6   		movq	%rdx, %rsi
 453 04ea 89C7     		movl	%eax, %edi
 454 04ec E8000000 		call	EApiI2CGetBusCap
 454      00
 455 04f1 8945C4   		movl	%eax, -60(%rbp)
GAS LISTING /tmp/ccRtKyPs.s 			page 15


 190:/development/eAPI/eapidk-code/apps/EApiValidateAPI/linux/../../common/EApiAHI2C.c ****     if(!EAPI_TEST_SUCCESS(StatusCode))
 456              		.loc 1 190 0
 457 04f4 837DC400 		cmpl	$0, -60(%rbp)
 458 04f8 0F85EE01 		jne	.L37
 458      0000
 191:/development/eAPI/eapidk-code/apps/EApiValidateAPI/linux/../../common/EApiAHI2C.c ****       goto ErrorExit;
 192:/development/eAPI/eapidk-code/apps/EApiValidateAPI/linux/../../common/EApiAHI2C.c **** 
 193:/development/eAPI/eapidk-code/apps/EApiValidateAPI/linux/../../common/EApiAHI2C.c ****     BlockEndAddress=ByteOffset+ByteCnt;
 459              		.loc 1 193 0
 460 04fe 488B55A8 		movq	-88(%rbp), %rdx
 461 0502 488B4598 		movq	-104(%rbp), %rax
 462 0506 4801D0   		addq	%rdx, %rax
 463 0509 488945E8 		movq	%rax, -24(%rbp)
 194:/development/eAPI/eapidk-code/apps/EApiValidateAPI/linux/../../common/EApiAHI2C.c ****     /* Just use BlockLength as write overhead calculator briefly 
 195:/development/eAPI/eapidk-code/apps/EApiValidateAPI/linux/../../common/EApiAHI2C.c ****      * Write Overhead is CMD + 10Bit Address
 196:/development/eAPI/eapidk-code/apps/EApiValidateAPI/linux/../../common/EApiAHI2C.c ****      * I.E. First Byte of address is not included
 197:/development/eAPI/eapidk-code/apps/EApiValidateAPI/linux/../../common/EApiAHI2C.c ****      * so CMD/INDX can be 1  or 2 Bytes and the Address can add an extra byte
 198:/development/eAPI/eapidk-code/apps/EApiValidateAPI/linux/../../common/EApiAHI2C.c ****      * so we can have between 1 and 3 bytes overhead on an write.
 199:/development/eAPI/eapidk-code/apps/EApiValidateAPI/linux/../../common/EApiAHI2C.c ****      */
 200:/development/eAPI/eapidk-code/apps/EApiValidateAPI/linux/../../common/EApiAHI2C.c ****     BlockLength=(EAPI_I2C_DEC_10BIT_ADDR(pDDesc->DeviceAddr)?1:0)+pDDesc->ExtIndx;
 464              		.loc 1 200 0
 465 050d 488B45B0 		movq	-80(%rbp), %rax
 466 0511 0FB700   		movzwl	(%rax), %eax
 467 0514 0FB7C0   		movzwl	%ax, %eax
 468 0517 0FB6D0   		movzbl	%al, %edx
 469 051a 488B45B0 		movq	-80(%rbp), %rax
 470 051e 0FB700   		movzwl	(%rax), %eax
 471 0521 66D1E8   		shrw	%ax
 472 0524 0FB7C0   		movzwl	%ax, %eax
 473 0527 25000300 		andl	$768, %eax
 473      00
 474 052c 09D0     		orl	%edx, %eax
 475 052e 85C0     		testl	%eax, %eax
 476 0530 0F95C0   		setne	%al
 477 0533 0FB6D0   		movzbl	%al, %edx
 478 0536 488B45B0 		movq	-80(%rbp), %rax
 479 053a 0FB74004 		movzwl	4(%rax), %eax
 480 053e 0FB7C0   		movzwl	%ax, %eax
 481 0541 01D0     		addl	%edx, %eax
 482 0543 4898     		cltq
 483 0545 488945D8 		movq	%rax, -40(%rbp)
 201:/development/eAPI/eapidk-code/apps/EApiValidateAPI/linux/../../common/EApiAHI2C.c ****     /* Ok so now we need to check if Page Size+ Write overhead is greater than the 
 202:/development/eAPI/eapidk-code/apps/EApiValidateAPI/linux/../../common/EApiAHI2C.c ****      * Max Transfer length on this interface
 203:/development/eAPI/eapidk-code/apps/EApiValidateAPI/linux/../../common/EApiAHI2C.c ****      * Basically use whichever is shorter for our Block Length
 204:/development/eAPI/eapidk-code/apps/EApiValidateAPI/linux/../../common/EApiAHI2C.c ****      */
 205:/development/eAPI/eapidk-code/apps/EApiValidateAPI/linux/../../common/EApiAHI2C.c ****     BlockLength=(IntMaxBlckLen<(pDDesc->PageSize+BlockLength)?IntMaxBlckLen-BlockLength:pDDesc->Pag
 484              		.loc 1 205 0
 485 0549 8B45C0   		movl	-64(%rbp), %eax
 486 054c 89C1     		movl	%eax, %ecx
 487 054e 488B45B0 		movq	-80(%rbp), %rax
 488 0552 0FB74002 		movzwl	2(%rax), %eax
 489 0556 0FB7D0   		movzwl	%ax, %edx
 490 0559 488B45D8 		movq	-40(%rbp), %rax
 491 055d 4801D0   		addq	%rdx, %rax
 492 0560 4839C1   		cmpq	%rax, %rcx
 493 0563 730B     		jnb	.L24
 494              		.loc 1 205 0 is_stmt 0 discriminator 1
GAS LISTING /tmp/ccRtKyPs.s 			page 16


 495 0565 8B45C0   		movl	-64(%rbp), %eax
 496 0568 89C0     		movl	%eax, %eax
 497 056a 482B45D8 		subq	-40(%rbp), %rax
 498 056e EB0B     		jmp	.L25
 499              	.L24:
 500              		.loc 1 205 0 discriminator 2
 501 0570 488B45B0 		movq	-80(%rbp), %rax
 502 0574 0FB74002 		movzwl	2(%rax), %eax
 503 0578 0FB7C0   		movzwl	%ax, %eax
 504              	.L25:
 505              		.loc 1 205 0 discriminator 4
 506 057b 488945D8 		movq	%rax, -40(%rbp)
 206:/development/eAPI/eapidk-code/apps/EApiValidateAPI/linux/../../common/EApiAHI2C.c ****     /* This check is more important for reads than writes */
 207:/development/eAPI/eapidk-code/apps/EApiValidateAPI/linux/../../common/EApiAHI2C.c ****     if(pDDesc->ExtIndx==EApiAPI2CExtIndex)
 507              		.loc 1 207 0 is_stmt 1 discriminator 4
 508 057f 488B45B0 		movq	-80(%rbp), %rax
 509 0583 0FB74004 		movzwl	4(%rax), %eax
 510 0587 6683F802 		cmpw	$2, %ax
 511 058b 7518     		jne	.L26
 208:/development/eAPI/eapidk-code/apps/EApiValidateAPI/linux/../../common/EApiAHI2C.c ****       /* After this length it is necessary to increment the Device Address */
 209:/development/eAPI/eapidk-code/apps/EApiValidateAPI/linux/../../common/EApiAHI2C.c ****       BlockLength=(BlockLength<0x10000?BlockLength:0x10000);
 512              		.loc 1 209 0
 513 058d B8000001 		movl	$65536, %eax
 513      00
 514 0592 48817DD8 		cmpq	$65536, -40(%rbp)
 514      00000100 
 515 059a 480F4645 		cmovbe	-40(%rbp), %rax
 515      D8
 516 059f 488945D8 		movq	%rax, -40(%rbp)
 517 05a3 EB16     		jmp	.L27
 518              	.L26:
 210:/development/eAPI/eapidk-code/apps/EApiValidateAPI/linux/../../common/EApiAHI2C.c ****     else
 211:/development/eAPI/eapidk-code/apps/EApiValidateAPI/linux/../../common/EApiAHI2C.c ****       /* After this length it is necessary to increment the Device Address */
 212:/development/eAPI/eapidk-code/apps/EApiValidateAPI/linux/../../common/EApiAHI2C.c ****       BlockLength=(BlockLength<0x100?BlockLength:0x100);
 519              		.loc 1 212 0
 520 05a5 B8000100 		movl	$256, %eax
 520      00
 521 05aa 48817DD8 		cmpq	$256, -40(%rbp)
 521      00010000 
 522 05b2 480F4645 		cmovbe	-40(%rbp), %rax
 522      D8
 523 05b7 488945D8 		movq	%rax, -40(%rbp)
 524              	.L27:
 213:/development/eAPI/eapidk-code/apps/EApiValidateAPI/linux/../../common/EApiAHI2C.c ****     CurOffset=ByteOffset;
 525              		.loc 1 213 0
 526 05bb 488B45A8 		movq	-88(%rbp), %rax
 527 05bf 488945E0 		movq	%rax, -32(%rbp)
 214:/development/eAPI/eapidk-code/apps/EApiValidateAPI/linux/../../common/EApiAHI2C.c ****     BlockLengthStd=BlockLength;
 528              		.loc 1 214 0
 529 05c3 488B45D8 		movq	-40(%rbp), %rax
 530 05c7 488945F0 		movq	%rax, -16(%rbp)
 215:/development/eAPI/eapidk-code/apps/EApiValidateAPI/linux/../../common/EApiAHI2C.c ****     while(CurOffset<BlockEndAddress)
 531              		.loc 1 215 0
 532 05cb E90C0100 		jmp	.L28
 532      00
 533              	.L33:
 216:/development/eAPI/eapidk-code/apps/EApiValidateAPI/linux/../../common/EApiAHI2C.c ****     {
GAS LISTING /tmp/ccRtKyPs.s 			page 17


 217:/development/eAPI/eapidk-code/apps/EApiValidateAPI/linux/../../common/EApiAHI2C.c ****       /* Adjust block length so we don't write more than we intended 
 218:/development/eAPI/eapidk-code/apps/EApiValidateAPI/linux/../../common/EApiAHI2C.c ****        */
 219:/development/eAPI/eapidk-code/apps/EApiValidateAPI/linux/../../common/EApiAHI2C.c ****       if(CurOffset+BlockLength>BlockEndAddress){
 534              		.loc 1 219 0
 535 05d0 488B55E0 		movq	-32(%rbp), %rdx
 536 05d4 488B45D8 		movq	-40(%rbp), %rax
 537 05d8 4801D0   		addq	%rdx, %rax
 538 05db 483B45E8 		cmpq	-24(%rbp), %rax
 539 05df 760C     		jbe	.L29
 220:/development/eAPI/eapidk-code/apps/EApiValidateAPI/linux/../../common/EApiAHI2C.c ****         BlockLength=BlockEndAddress - CurOffset;
 540              		.loc 1 220 0
 541 05e1 488B45E8 		movq	-24(%rbp), %rax
 542 05e5 482B45E0 		subq	-32(%rbp), %rax
 543 05e9 488945D8 		movq	%rax, -40(%rbp)
 544              	.L29:
 221:/development/eAPI/eapidk-code/apps/EApiValidateAPI/linux/../../common/EApiAHI2C.c ****       }
 222:/development/eAPI/eapidk-code/apps/EApiValidateAPI/linux/../../common/EApiAHI2C.c ****       /* Adjust block length so we don't overrun the end of the Page 
 223:/development/eAPI/eapidk-code/apps/EApiValidateAPI/linux/../../common/EApiAHI2C.c ****        * As we've already verified all the maximum block lengths above
 224:/development/eAPI/eapidk-code/apps/EApiValidateAPI/linux/../../common/EApiAHI2C.c ****        * This should only be because of 2 reasons
 225:/development/eAPI/eapidk-code/apps/EApiValidateAPI/linux/../../common/EApiAHI2C.c ****        * 1. Start offset isn't aligned. 
 226:/development/eAPI/eapidk-code/apps/EApiValidateAPI/linux/../../common/EApiAHI2C.c ****        * 2. Bus interfaces maximum block length is not a divisor of the 
 227:/development/eAPI/eapidk-code/apps/EApiValidateAPI/linux/../../common/EApiAHI2C.c ****        *    EEPROM page length. 
 228:/development/eAPI/eapidk-code/apps/EApiValidateAPI/linux/../../common/EApiAHI2C.c ****        * To adequately address both situations, or indeed a combination
 229:/development/eAPI/eapidk-code/apps/EApiValidateAPI/linux/../../common/EApiAHI2C.c ****        * of them we check here if we're going to overwrite the page boundary
 230:/development/eAPI/eapidk-code/apps/EApiValidateAPI/linux/../../common/EApiAHI2C.c ****        * and if so adjust the Block length. At the end of the transfer we 
 231:/development/eAPI/eapidk-code/apps/EApiValidateAPI/linux/../../common/EApiAHI2C.c ****        * restore the Max calculate block length, from above and do it all over 
 232:/development/eAPI/eapidk-code/apps/EApiValidateAPI/linux/../../common/EApiAHI2C.c ****        * again 
 233:/development/eAPI/eapidk-code/apps/EApiValidateAPI/linux/../../common/EApiAHI2C.c ****        * Example 1.
 234:/development/eAPI/eapidk-code/apps/EApiValidateAPI/linux/../../common/EApiAHI2C.c ****        * Max Bus length = 16 Bytes
 235:/development/eAPI/eapidk-code/apps/EApiValidateAPI/linux/../../common/EApiAHI2C.c ****        * Page Size      = 16 Bytes
 236:/development/eAPI/eapidk-code/apps/EApiValidateAPI/linux/../../common/EApiAHI2C.c ****        * Start Offset   =  1
 237:/development/eAPI/eapidk-code/apps/EApiValidateAPI/linux/../../common/EApiAHI2C.c ****        * Write Overhead =  2 Bytes     For the Ext Index
 238:/development/eAPI/eapidk-code/apps/EApiValidateAPI/linux/../../common/EApiAHI2C.c ****        * Total Transfer = 32 Bytes
 239:/development/eAPI/eapidk-code/apps/EApiValidateAPI/linux/../../common/EApiAHI2C.c ****        *
 240:/development/eAPI/eapidk-code/apps/EApiValidateAPI/linux/../../common/EApiAHI2C.c ****        * Results in a 
 241:/development/eAPI/eapidk-code/apps/EApiValidateAPI/linux/../../common/EApiAHI2C.c ****        * Max Block length of 14 Bytes
 242:/development/eAPI/eapidk-code/apps/EApiValidateAPI/linux/../../common/EApiAHI2C.c ****        * This results in 5 transfers
 243:/development/eAPI/eapidk-code/apps/EApiValidateAPI/linux/../../common/EApiAHI2C.c ****        * 14Bytes 1Byte 14Bytes 2Bytes 1Byte
 244:/development/eAPI/eapidk-code/apps/EApiValidateAPI/linux/../../common/EApiAHI2C.c ****        *
 245:/development/eAPI/eapidk-code/apps/EApiValidateAPI/linux/../../common/EApiAHI2C.c ****        * Example 2.
 246:/development/eAPI/eapidk-code/apps/EApiValidateAPI/linux/../../common/EApiAHI2C.c ****        * Max Bus length = 18 Bytes
 247:/development/eAPI/eapidk-code/apps/EApiValidateAPI/linux/../../common/EApiAHI2C.c ****        * Page Size      = 16 Bytes
 248:/development/eAPI/eapidk-code/apps/EApiValidateAPI/linux/../../common/EApiAHI2C.c ****        * Start Offset   =  3
 249:/development/eAPI/eapidk-code/apps/EApiValidateAPI/linux/../../common/EApiAHI2C.c ****        * Write Overhead =  3 Bytes     For the Ext Index & 10Bit Address
 250:/development/eAPI/eapidk-code/apps/EApiValidateAPI/linux/../../common/EApiAHI2C.c ****        * Total Transfer = 30 Bytes
 251:/development/eAPI/eapidk-code/apps/EApiValidateAPI/linux/../../common/EApiAHI2C.c ****        *
 252:/development/eAPI/eapidk-code/apps/EApiValidateAPI/linux/../../common/EApiAHI2C.c ****        * Results in a 
 253:/development/eAPI/eapidk-code/apps/EApiValidateAPI/linux/../../common/EApiAHI2C.c ****        * Max Block length of 15 Bytes
 254:/development/eAPI/eapidk-code/apps/EApiValidateAPI/linux/../../common/EApiAHI2C.c ****        * This results in 4 transfers
 255:/development/eAPI/eapidk-code/apps/EApiValidateAPI/linux/../../common/EApiAHI2C.c ****        * 13Bytes 15Bytes 1Bytes 1Bytes 
 256:/development/eAPI/eapidk-code/apps/EApiValidateAPI/linux/../../common/EApiAHI2C.c ****        *
 257:/development/eAPI/eapidk-code/apps/EApiValidateAPI/linux/../../common/EApiAHI2C.c ****        * Example 3.
 258:/development/eAPI/eapidk-code/apps/EApiValidateAPI/linux/../../common/EApiAHI2C.c ****        * Max Bus length =  32 Bytes
 259:/development/eAPI/eapidk-code/apps/EApiValidateAPI/linux/../../common/EApiAHI2C.c ****        * Page Size      = 256 Bytes
 260:/development/eAPI/eapidk-code/apps/EApiValidateAPI/linux/../../common/EApiAHI2C.c ****        * Start Offset   = 230 
 261:/development/eAPI/eapidk-code/apps/EApiValidateAPI/linux/../../common/EApiAHI2C.c ****        * Write Overhead =   2 Bytes     For the Extended Index
 262:/development/eAPI/eapidk-code/apps/EApiValidateAPI/linux/../../common/EApiAHI2C.c ****        * Total Transfer =  60 Bytes
GAS LISTING /tmp/ccRtKyPs.s 			page 18


 263:/development/eAPI/eapidk-code/apps/EApiValidateAPI/linux/../../common/EApiAHI2C.c ****        *
 264:/development/eAPI/eapidk-code/apps/EApiValidateAPI/linux/../../common/EApiAHI2C.c ****        * Results in a 
 265:/development/eAPI/eapidk-code/apps/EApiValidateAPI/linux/../../common/EApiAHI2C.c ****        * Max Block length of 30 Bytes
 266:/development/eAPI/eapidk-code/apps/EApiValidateAPI/linux/../../common/EApiAHI2C.c ****        * This results in 3 transfers
 267:/development/eAPI/eapidk-code/apps/EApiValidateAPI/linux/../../common/EApiAHI2C.c ****        * 26Bytes 30Bytes 4Bytes
 268:/development/eAPI/eapidk-code/apps/EApiValidateAPI/linux/../../common/EApiAHI2C.c ****        */
 269:/development/eAPI/eapidk-code/apps/EApiValidateAPI/linux/../../common/EApiAHI2C.c ****       if(((CurOffset%pDDesc->PageSize)+BlockLength)>pDDesc->PageSize){
 545              		.loc 1 269 0
 546 05ed 488B45B0 		movq	-80(%rbp), %rax
 547 05f1 0FB74002 		movzwl	2(%rax), %eax
 548 05f5 0FB7C8   		movzwl	%ax, %ecx
 549 05f8 488B45E0 		movq	-32(%rbp), %rax
 550 05fc BA000000 		movl	$0, %edx
 550      00
 551 0601 48F7F1   		divq	%rcx
 552 0604 488B45D8 		movq	-40(%rbp), %rax
 553 0608 4801C2   		addq	%rax, %rdx
 554 060b 488B45B0 		movq	-80(%rbp), %rax
 555 060f 0FB74002 		movzwl	2(%rax), %eax
 556 0613 0FB7C0   		movzwl	%ax, %eax
 557 0616 4839C2   		cmpq	%rax, %rdx
 558 0619 7628     		jbe	.L30
 270:/development/eAPI/eapidk-code/apps/EApiValidateAPI/linux/../../common/EApiAHI2C.c ****         BlockLength-=(CurOffset+BlockLength)%pDDesc->PageSize;
 559              		.loc 1 270 0
 560 061b 488B55E0 		movq	-32(%rbp), %rdx
 561 061f 488B45D8 		movq	-40(%rbp), %rax
 562 0623 4801C2   		addq	%rax, %rdx
 563 0626 488B45B0 		movq	-80(%rbp), %rax
 564 062a 0FB74002 		movzwl	2(%rax), %eax
 565 062e 0FB7C8   		movzwl	%ax, %ecx
 566 0631 4889D0   		movq	%rdx, %rax
 567 0634 BA000000 		movl	$0, %edx
 567      00
 568 0639 48F7F1   		divq	%rcx
 569 063c 4889D0   		movq	%rdx, %rax
 570 063f 482945D8 		subq	%rax, -40(%rbp)
 571              	.L30:
 271:/development/eAPI/eapidk-code/apps/EApiValidateAPI/linux/../../common/EApiAHI2C.c ****       }
 272:/development/eAPI/eapidk-code/apps/EApiValidateAPI/linux/../../common/EApiAHI2C.c ****       /* Get Encoded Device and Offset */
 273:/development/eAPI/eapidk-code/apps/EApiValidateAPI/linux/../../common/EApiAHI2C.c ****       StatusCode=EApiAHI2CCCreateAddrOffset(pDDesc, CurOffset, &EncAddr, &EncOffset);
 572              		.loc 1 273 0
 573 0643 488D4DD0 		leaq	-48(%rbp), %rcx
 574 0647 488D55C8 		leaq	-56(%rbp), %rdx
 575 064b 488B75E0 		movq	-32(%rbp), %rsi
 576 064f 488B45B0 		movq	-80(%rbp), %rax
 577 0653 4889C7   		movq	%rax, %rdi
 578 0656 E8000000 		call	EApiAHI2CCCreateAddrOffset
 578      00
 579 065b 8945C4   		movl	%eax, -60(%rbp)
 274:/development/eAPI/eapidk-code/apps/EApiValidateAPI/linux/../../common/EApiAHI2C.c ****       if(!EAPI_TEST_SUCCESS(StatusCode))
 580              		.loc 1 274 0
 581 065e 837DC400 		cmpl	$0, -60(%rbp)
 582 0662 0F858700 		jne	.L38
 582      0000
 275:/development/eAPI/eapidk-code/apps/EApiValidateAPI/linux/../../common/EApiAHI2C.c ****         goto ErrorExit;
 276:/development/eAPI/eapidk-code/apps/EApiValidateAPI/linux/../../common/EApiAHI2C.c ****       /* Do the actual transfer */
 277:/development/eAPI/eapidk-code/apps/EApiValidateAPI/linux/../../common/EApiAHI2C.c ****       StatusCode=EApiI2CWriteTransfer(
GAS LISTING /tmp/ccRtKyPs.s 			page 19


 583              		.loc 1 277 0
 584 0668 488B45D8 		movq	-40(%rbp), %rax
 585 066c 89C1     		movl	%eax, %ecx
 278:/development/eAPI/eapidk-code/apps/EApiValidateAPI/linux/../../common/EApiAHI2C.c ****           Id, 
 279:/development/eAPI/eapidk-code/apps/EApiValidateAPI/linux/../../common/EApiAHI2C.c ****           (uint32_t)EncAddr, 
 280:/development/eAPI/eapidk-code/apps/EApiValidateAPI/linux/../../common/EApiAHI2C.c ****           (uint32_t)EncOffset, 
 281:/development/eAPI/eapidk-code/apps/EApiValidateAPI/linux/../../common/EApiAHI2C.c ****           ((int8_t *)pBuffer)+(CurOffset-ByteOffset), 
 586              		.loc 1 281 0
 587 066e 488B45E0 		movq	-32(%rbp), %rax
 588 0672 482B45A8 		subq	-88(%rbp), %rax
 589 0676 4889C2   		movq	%rax, %rdx
 277:/development/eAPI/eapidk-code/apps/EApiValidateAPI/linux/../../common/EApiAHI2C.c ****           Id, 
 590              		.loc 1 277 0
 591 0679 488B45A0 		movq	-96(%rbp), %rax
 592 067d 4801C2   		addq	%rax, %rdx
 593 0680 488B45D0 		movq	-48(%rbp), %rax
 594 0684 89C7     		movl	%eax, %edi
 595 0686 488B45C8 		movq	-56(%rbp), %rax
 596 068a 89C6     		movl	%eax, %esi
 597 068c 8B45BC   		movl	-68(%rbp), %eax
 598 068f 4189C8   		movl	%ecx, %r8d
 599 0692 4889D1   		movq	%rdx, %rcx
 600 0695 89FA     		movl	%edi, %edx
 601 0697 89C7     		movl	%eax, %edi
 602 0699 E8000000 		call	EApiI2CWriteTransfer
 602      00
 603 069e 8945C4   		movl	%eax, -60(%rbp)
 282:/development/eAPI/eapidk-code/apps/EApiValidateAPI/linux/../../common/EApiAHI2C.c ****           (uint32_t)BlockLength
 283:/development/eAPI/eapidk-code/apps/EApiValidateAPI/linux/../../common/EApiAHI2C.c ****           );
 284:/development/eAPI/eapidk-code/apps/EApiValidateAPI/linux/../../common/EApiAHI2C.c ****       if(!EAPI_TEST_SUCCESS(StatusCode))
 604              		.loc 1 284 0
 605 06a1 837DC400 		cmpl	$0, -60(%rbp)
 606 06a5 754B     		jne	.L39
 285:/development/eAPI/eapidk-code/apps/EApiValidateAPI/linux/../../common/EApiAHI2C.c ****         goto ErrorExit;
 286:/development/eAPI/eapidk-code/apps/EApiValidateAPI/linux/../../common/EApiAHI2C.c ****       CurOffset+=BlockLength;
 607              		.loc 1 286 0
 608 06a7 488B45D8 		movq	-40(%rbp), %rax
 609 06ab 480145E0 		addq	%rax, -32(%rbp)
 287:/development/eAPI/eapidk-code/apps/EApiValidateAPI/linux/../../common/EApiAHI2C.c ****       BlockLength=BlockLengthStd; /* Restore Standard Block Length */
 610              		.loc 1 287 0
 611 06af 488B45F0 		movq	-16(%rbp), %rax
 612 06b3 488945D8 		movq	%rax, -40(%rbp)
 288:/development/eAPI/eapidk-code/apps/EApiValidateAPI/linux/../../common/EApiAHI2C.c ****       if(pDDesc->WRecTimems)
 613              		.loc 1 288 0
 614 06b7 488B45B0 		movq	-80(%rbp), %rax
 615 06bb 0FB74006 		movzwl	6(%rax), %eax
 616 06bf 6685C0   		testw	%ax, %ax
 617 06c2 7418     		je	.L28
 289:/development/eAPI/eapidk-code/apps/EApiValidateAPI/linux/../../common/EApiAHI2C.c ****         EApiSleep((uint32_t)pDDesc->WRecTimems); /* Allow Device Time to Recover */
 618              		.loc 1 289 0
 619 06c4 488B45B0 		movq	-80(%rbp), %rax
 620 06c8 0FB74006 		movzwl	6(%rax), %eax
 621 06cc 0FB7C0   		movzwl	%ax, %eax
 622 06cf 69C0E803 		imull	$1000, %eax, %eax
 622      0000
 623 06d5 89C7     		movl	%eax, %edi
 624 06d7 E8000000 		call	usleep
GAS LISTING /tmp/ccRtKyPs.s 			page 20


 624      00
 625              	.L28:
 215:/development/eAPI/eapidk-code/apps/EApiValidateAPI/linux/../../common/EApiAHI2C.c ****     {
 626              		.loc 1 215 0
 627 06dc 488B45E0 		movq	-32(%rbp), %rax
 628 06e0 483B45E8 		cmpq	-24(%rbp), %rax
 629 06e4 0F82E6FE 		jb	.L33
 629      FFFF
 630 06ea EB07     		jmp	.L34
 631              	.L17:
 632              	.L37:
 191:/development/eAPI/eapidk-code/apps/EApiValidateAPI/linux/../../common/EApiAHI2C.c **** 
 633              		.loc 1 191 0
 634 06ec 90       		nop
 635 06ed EB04     		jmp	.L34
 636              	.L38:
 275:/development/eAPI/eapidk-code/apps/EApiValidateAPI/linux/../../common/EApiAHI2C.c ****       /* Do the actual transfer */
 637              		.loc 1 275 0
 638 06ef 90       		nop
 639 06f0 EB01     		jmp	.L34
 640              	.L39:
 285:/development/eAPI/eapidk-code/apps/EApiValidateAPI/linux/../../common/EApiAHI2C.c ****       CurOffset+=BlockLength;
 641              		.loc 1 285 0
 642 06f2 90       		nop
 643              	.L34:
 290:/development/eAPI/eapidk-code/apps/EApiValidateAPI/linux/../../common/EApiAHI2C.c ****     }
 291:/development/eAPI/eapidk-code/apps/EApiValidateAPI/linux/../../common/EApiAHI2C.c **** ErrorExit:
 292:/development/eAPI/eapidk-code/apps/EApiValidateAPI/linux/../../common/EApiAHI2C.c **** EAPI_APP_ASSERT_EXIT
 293:/development/eAPI/eapidk-code/apps/EApiValidateAPI/linux/../../common/EApiAHI2C.c ****   return StatusCode;
 644              		.loc 1 293 0
 645 06f3 8B45C4   		movl	-60(%rbp), %eax
 294:/development/eAPI/eapidk-code/apps/EApiValidateAPI/linux/../../common/EApiAHI2C.c **** }
 646              		.loc 1 294 0
 647 06f6 488B75F8 		movq	-8(%rbp), %rsi
 648 06fa 64483334 		xorq	%fs:40, %rsi
 648      25280000 
 648      00
 649 0703 7405     		je	.L36
 650 0705 E8000000 		call	__stack_chk_fail
 650      00
 651              	.L36:
 652 070a C9       		leave
 653              		.cfi_def_cfa 7, 8
 654 070b C3       		ret
 655              		.cfi_endproc
 656              	.LFE4:
 658              		.section	.rodata
 659              	.LC11:
 660 0127 45417069 		.string	"EApiAHI2CReadEeprom"
 660      41484932 
 660      43526561 
 660      64456570 
 660      726F6D00 
 661              	.LC12:
 662 013b 28427566 		.string	"(BufLength==0)"
 662      4C656E67 
 662      74683D3D 
GAS LISTING /tmp/ccRtKyPs.s 			page 21


 662      302900
 663 014a 00000000 		.align 8
 663      0000
 664              	.LC13:
 665 0150 20704275 		.string	" pBuffer Overflow PreventedByteCnt>BufLength"
 665      66666572 
 665      204F7665 
 665      72666C6F 
 665      77205072 
 666              		.text
 667              		.globl	EApiAHI2CReadEeprom
 669              	EApiAHI2CReadEeprom:
 670              	.LFB5:
 295:/development/eAPI/eapidk-code/apps/EApiValidateAPI/linux/../../common/EApiAHI2C.c **** EApiStatus_t
 296:/development/eAPI/eapidk-code/apps/EApiValidateAPI/linux/../../common/EApiAHI2C.c **** EApiAHI2CReadEeprom(
 297:/development/eAPI/eapidk-code/apps/EApiValidateAPI/linux/../../common/EApiAHI2C.c ****     __IN EApiId_t              Id           , 
 298:/development/eAPI/eapidk-code/apps/EApiValidateAPI/linux/../../common/EApiAHI2C.c ****     __IN const I2CDeviceDesc_t *const pDDesc, 
 299:/development/eAPI/eapidk-code/apps/EApiValidateAPI/linux/../../common/EApiAHI2C.c ****     __IN const size_t          ByteOffset   , 
 300:/development/eAPI/eapidk-code/apps/EApiValidateAPI/linux/../../common/EApiAHI2C.c ****     __IN void *                pBuffer      , 
 301:/development/eAPI/eapidk-code/apps/EApiValidateAPI/linux/../../common/EApiAHI2C.c ****     __IN const size_t          BufLength    , 
 302:/development/eAPI/eapidk-code/apps/EApiValidateAPI/linux/../../common/EApiAHI2C.c ****     __IN size_t                ByteCnt 
 303:/development/eAPI/eapidk-code/apps/EApiValidateAPI/linux/../../common/EApiAHI2C.c ****     )
 304:/development/eAPI/eapidk-code/apps/EApiValidateAPI/linux/../../common/EApiAHI2C.c **** {
 671              		.loc 1 304 0
 672              		.cfi_startproc
 673 070c 55       		pushq	%rbp
 674              		.cfi_def_cfa_offset 16
 675              		.cfi_offset 6, -16
 676 070d 4889E5   		movq	%rsp, %rbp
 677              		.cfi_def_cfa_register 6
 678 0710 4883EC70 		subq	$112, %rsp
 679 0714 897DBC   		movl	%edi, -68(%rbp)
 680 0717 488975B0 		movq	%rsi, -80(%rbp)
 681 071b 488955A8 		movq	%rdx, -88(%rbp)
 682 071f 48894DA0 		movq	%rcx, -96(%rbp)
 683 0723 4C894598 		movq	%r8, -104(%rbp)
 684 0727 4C894D90 		movq	%r9, -112(%rbp)
 685              		.loc 1 304 0
 686 072b 64488B04 		movq	%fs:40, %rax
 686      25280000 
 686      00
 687 0734 488945F8 		movq	%rax, -8(%rbp)
 688 0738 31C0     		xorl	%eax, %eax
 305:/development/eAPI/eapidk-code/apps/EApiValidateAPI/linux/../../common/EApiAHI2C.c ****     EApiStatus_t StatusCode=EAPI_STATUS_SUCCESS;
 689              		.loc 1 305 0
 690 073a C745CC00 		movl	$0, -52(%rbp)
 690      000000
 306:/development/eAPI/eapidk-code/apps/EApiValidateAPI/linux/../../common/EApiAHI2C.c ****     uint32_t IntMaxBlckLen;
 307:/development/eAPI/eapidk-code/apps/EApiValidateAPI/linux/../../common/EApiAHI2C.c ****     size_t   BlockEndAddress;
 308:/development/eAPI/eapidk-code/apps/EApiValidateAPI/linux/../../common/EApiAHI2C.c ****     size_t   BlockLength;
 309:/development/eAPI/eapidk-code/apps/EApiValidateAPI/linux/../../common/EApiAHI2C.c ****     size_t   CurOffset;
 310:/development/eAPI/eapidk-code/apps/EApiValidateAPI/linux/../../common/EApiAHI2C.c ****     size_t   EncAddr;
 311:/development/eAPI/eapidk-code/apps/EApiValidateAPI/linux/../../common/EApiAHI2C.c ****     size_t   EncOffset;
 312:/development/eAPI/eapidk-code/apps/EApiValidateAPI/linux/../../common/EApiAHI2C.c ****     
 313:/development/eAPI/eapidk-code/apps/EApiValidateAPI/linux/../../common/EApiAHI2C.c ****     EAPI_APP_ASSERT_PARAMATER_NULL(
 691              		.loc 1 313 0
 692 0741 48837DB0 		cmpq	$0, -80(%rbp)
GAS LISTING /tmp/ccRtKyPs.s 			page 22


 692      00
 693 0746 7543     		jne	.L41
 694              		.loc 1 313 0 is_stmt 0 discriminator 1
 695 0748 4883EC08 		subq	$8, %rsp
 696 074c 68000000 		pushq	$.LC3
 696      00
 697 0751 41B90000 		movl	$.LC0, %r9d
 697      0000
 698 0757 41B8FFFE 		movl	$-257, %r8d
 698      FFFF
 699 075d B93D0100 		movl	$317, %ecx
 699      00
 700 0762 BA000000 		movl	$.LC11, %edx
 700      00
 701 0767 BE000000 		movl	$.LC2, %esi
 701      00
 702 076c BF450000 		movl	$69, %edi
 702      00
 703 0771 B8000000 		movl	$0, %eax
 703      00
 704 0776 E8000000 		call	siFormattedMessage_SC
 704      00
 705 077b 4883C410 		addq	$16, %rsp
 706 077f C745CCFF 		movl	$-257, -52(%rbp)
 706      FEFFFF
 707 0786 E91C0300 		jmp	.L58
 707      00
 708              	.L41:
 314:/development/eAPI/eapidk-code/apps/EApiValidateAPI/linux/../../common/EApiAHI2C.c ****         EApiAHI2CReadEeprom, 
 315:/development/eAPI/eapidk-code/apps/EApiValidateAPI/linux/../../common/EApiAHI2C.c ****         EAPI_STATUS_INVALID_PARAMETER, 
 316:/development/eAPI/eapidk-code/apps/EApiValidateAPI/linux/../../common/EApiAHI2C.c ****         pDDesc
 317:/development/eAPI/eapidk-code/apps/EApiValidateAPI/linux/../../common/EApiAHI2C.c ****         );
 318:/development/eAPI/eapidk-code/apps/EApiValidateAPI/linux/../../common/EApiAHI2C.c ****     EAPI_APP_ASSERT_PARAMATER_NULL(
 709              		.loc 1 318 0 is_stmt 1
 710 078b 48837DA0 		cmpq	$0, -96(%rbp)
 710      00
 711 0790 7543     		jne	.L43
 712              		.loc 1 318 0 is_stmt 0 discriminator 1
 713 0792 4883EC08 		subq	$8, %rsp
 714 0796 68000000 		pushq	$.LC7
 714      00
 715 079b 41B90000 		movl	$.LC0, %r9d
 715      0000
 716 07a1 41B8FFFE 		movl	$-257, %r8d
 716      FFFF
 717 07a7 B9420100 		movl	$322, %ecx
 717      00
 718 07ac BA000000 		movl	$.LC11, %edx
 718      00
 719 07b1 BE000000 		movl	$.LC2, %esi
 719      00
 720 07b6 BF450000 		movl	$69, %edi
 720      00
 721 07bb B8000000 		movl	$0, %eax
 721      00
 722 07c0 E8000000 		call	siFormattedMessage_SC
 722      00
GAS LISTING /tmp/ccRtKyPs.s 			page 23


 723 07c5 4883C410 		addq	$16, %rsp
 724 07c9 C745CCFF 		movl	$-257, -52(%rbp)
 724      FEFFFF
 725 07d0 E9D20200 		jmp	.L58
 725      00
 726              	.L43:
 319:/development/eAPI/eapidk-code/apps/EApiValidateAPI/linux/../../common/EApiAHI2C.c ****         EApiAHI2CReadEeprom, 
 320:/development/eAPI/eapidk-code/apps/EApiValidateAPI/linux/../../common/EApiAHI2C.c ****         EAPI_STATUS_INVALID_PARAMETER, 
 321:/development/eAPI/eapidk-code/apps/EApiValidateAPI/linux/../../common/EApiAHI2C.c ****         pBuffer
 322:/development/eAPI/eapidk-code/apps/EApiValidateAPI/linux/../../common/EApiAHI2C.c ****         );
 323:/development/eAPI/eapidk-code/apps/EApiValidateAPI/linux/../../common/EApiAHI2C.c ****     EAPI_APP_ASSERT_PARAMATER_ZERO(
 727              		.loc 1 323 0 is_stmt 1
 728 07d5 48837D98 		cmpq	$0, -104(%rbp)
 728      00
 729 07da 7543     		jne	.L44
 730              		.loc 1 323 0 is_stmt 0 discriminator 1
 731 07dc 4883EC08 		subq	$8, %rsp
 732 07e0 68000000 		pushq	$.LC12
 732      00
 733 07e5 41B90000 		movl	$.LC0, %r9d
 733      0000
 734 07eb 41B8FFFE 		movl	$-257, %r8d
 734      FFFF
 735 07f1 B9470100 		movl	$327, %ecx
 735      00
 736 07f6 BA000000 		movl	$.LC11, %edx
 736      00
 737 07fb BE000000 		movl	$.LC2, %esi
 737      00
 738 0800 BF450000 		movl	$69, %edi
 738      00
 739 0805 B8000000 		movl	$0, %eax
 739      00
 740 080a E8000000 		call	siFormattedMessage_SC
 740      00
 741 080f 4883C410 		addq	$16, %rsp
 742 0813 C745CCFF 		movl	$-257, -52(%rbp)
 742      FEFFFF
 743 081a E9880200 		jmp	.L58
 743      00
 744              	.L44:
 324:/development/eAPI/eapidk-code/apps/EApiValidateAPI/linux/../../common/EApiAHI2C.c ****         EApiAHI2CReadEeprom, 
 325:/development/eAPI/eapidk-code/apps/EApiValidateAPI/linux/../../common/EApiAHI2C.c ****         EAPI_STATUS_INVALID_PARAMETER, 
 326:/development/eAPI/eapidk-code/apps/EApiValidateAPI/linux/../../common/EApiAHI2C.c ****         BufLength
 327:/development/eAPI/eapidk-code/apps/EApiValidateAPI/linux/../../common/EApiAHI2C.c ****         );
 328:/development/eAPI/eapidk-code/apps/EApiValidateAPI/linux/../../common/EApiAHI2C.c ****     EAPI_APP_ASSERT_PARAMATER_ZERO(
 745              		.loc 1 328 0 is_stmt 1
 746 081f 48837D90 		cmpq	$0, -112(%rbp)
 746      00
 747 0824 7543     		jne	.L45
 748              		.loc 1 328 0 is_stmt 0 discriminator 1
 749 0826 4883EC08 		subq	$8, %rsp
 750 082a 68000000 		pushq	$.LC8
 750      00
 751 082f 41B90000 		movl	$.LC0, %r9d
 751      0000
 752 0835 41B8FFFE 		movl	$-257, %r8d
GAS LISTING /tmp/ccRtKyPs.s 			page 24


 752      FFFF
 753 083b B94C0100 		movl	$332, %ecx
 753      00
 754 0840 BA000000 		movl	$.LC11, %edx
 754      00
 755 0845 BE000000 		movl	$.LC2, %esi
 755      00
 756 084a BF450000 		movl	$69, %edi
 756      00
 757 084f B8000000 		movl	$0, %eax
 757      00
 758 0854 E8000000 		call	siFormattedMessage_SC
 758      00
 759 0859 4883C410 		addq	$16, %rsp
 760 085d C745CCFF 		movl	$-257, -52(%rbp)
 760      FEFFFF
 761 0864 E93E0200 		jmp	.L58
 761      00
 762              	.L45:
 329:/development/eAPI/eapidk-code/apps/EApiValidateAPI/linux/../../common/EApiAHI2C.c ****         EApiAHI2CReadEeprom, 
 330:/development/eAPI/eapidk-code/apps/EApiValidateAPI/linux/../../common/EApiAHI2C.c ****         EAPI_STATUS_INVALID_PARAMETER, 
 331:/development/eAPI/eapidk-code/apps/EApiValidateAPI/linux/../../common/EApiAHI2C.c ****         ByteCnt
 332:/development/eAPI/eapidk-code/apps/EApiValidateAPI/linux/../../common/EApiAHI2C.c ****         );
 333:/development/eAPI/eapidk-code/apps/EApiValidateAPI/linux/../../common/EApiAHI2C.c ****     EAPI_APP_PREVENT_BUF_OVERFLOW(
 763              		.loc 1 333 0 is_stmt 1
 764 0869 488B4590 		movq	-112(%rbp), %rax
 765 086d 483B4598 		cmpq	-104(%rbp), %rax
 766 0871 763F     		jbe	.L46
 767              		.loc 1 333 0 is_stmt 0 discriminator 1
 768 0873 4883EC08 		subq	$8, %rsp
 769 0877 68000000 		pushq	$.LC13
 769      00
 770 087c 41B90000 		movl	$.LC0, %r9d
 770      0000
 771 0882 41B8FFF9 		movl	$-1537, %r8d
 771      FFFF
 772 0888 B9510100 		movl	$337, %ecx
 772      00
 773 088d BA000000 		movl	$.LC11, %edx
 773      00
 774 0892 BE000000 		movl	$.LC2, %esi
 774      00
 775 0897 BF450000 		movl	$69, %edi
 775      00
 776 089c B8000000 		movl	$0, %eax
 776      00
 777 08a1 E8000000 		call	siFormattedMessage_SC
 777      00
 778 08a6 4883C410 		addq	$16, %rsp
 779 08aa 488B4598 		movq	-104(%rbp), %rax
 780 08ae 48894590 		movq	%rax, -112(%rbp)
 781              	.L46:
 334:/development/eAPI/eapidk-code/apps/EApiValidateAPI/linux/../../common/EApiAHI2C.c ****         EApiAHI2CReadEeprom, 
 335:/development/eAPI/eapidk-code/apps/EApiValidateAPI/linux/../../common/EApiAHI2C.c ****         ByteCnt, 
 336:/development/eAPI/eapidk-code/apps/EApiValidateAPI/linux/../../common/EApiAHI2C.c ****         BufLength
 337:/development/eAPI/eapidk-code/apps/EApiValidateAPI/linux/../../common/EApiAHI2C.c ****         );
 338:/development/eAPI/eapidk-code/apps/EApiValidateAPI/linux/../../common/EApiAHI2C.c ****     EAPI_APP_ASSERT_PARAMATER_CHECK(
GAS LISTING /tmp/ccRtKyPs.s 			page 25


 782              		.loc 1 338 0 is_stmt 1
 783 08b2 488B45B0 		movq	-80(%rbp), %rax
 784 08b6 4889C7   		movq	%rax, %rdi
 785 08b9 E8000000 		call	ValidEEPDevDesc
 785      00
 786 08be 85C0     		testl	%eax, %eax
 787 08c0 7443     		je	.L47
 788              		.loc 1 338 0 is_stmt 0 discriminator 1
 789 08c2 4883EC08 		subq	$8, %rsp
 790 08c6 68000000 		pushq	$.LC9
 790      00
 791 08cb 41B90000 		movl	$.LC0, %r9d
 791      0000
 792 08d1 41B8FFFE 		movl	$-257, %r8d
 792      FFFF
 793 08d7 B9570100 		movl	$343, %ecx
 793      00
 794 08dc BA000000 		movl	$.LC11, %edx
 794      00
 795 08e1 BE000000 		movl	$.LC2, %esi
 795      00
 796 08e6 BF450000 		movl	$69, %edi
 796      00
 797 08eb B8000000 		movl	$0, %eax
 797      00
 798 08f0 E8000000 		call	siFormattedMessage_SC
 798      00
 799 08f5 4883C410 		addq	$16, %rsp
 800 08f9 C745CCFF 		movl	$-257, -52(%rbp)
 800      FEFFFF
 801 0900 E9A20100 		jmp	.L58
 801      00
 802              	.L47:
 339:/development/eAPI/eapidk-code/apps/EApiValidateAPI/linux/../../common/EApiAHI2C.c ****         EApiAHI2CReadEeprom, 
 340:/development/eAPI/eapidk-code/apps/EApiValidateAPI/linux/../../common/EApiAHI2C.c ****         EAPI_STATUS_INVALID_PARAMETER, 
 341:/development/eAPI/eapidk-code/apps/EApiValidateAPI/linux/../../common/EApiAHI2C.c ****         ValidEEPDevDesc(pDDesc) , 
 342:/development/eAPI/eapidk-code/apps/EApiValidateAPI/linux/../../common/EApiAHI2C.c ****         "Invalid EEPROM Device Descriptor"
 343:/development/eAPI/eapidk-code/apps/EApiValidateAPI/linux/../../common/EApiAHI2C.c ****         );
 344:/development/eAPI/eapidk-code/apps/EApiValidateAPI/linux/../../common/EApiAHI2C.c ****     EAPI_APP_ASSERT_PARAMATER_CHECK(
 803              		.loc 1 344 0 is_stmt 1
 804 0905 488B55A8 		movq	-88(%rbp), %rdx
 805 0909 488B4590 		movq	-112(%rbp), %rax
 806 090d 4801C2   		addq	%rax, %rdx
 807 0910 488B45B0 		movq	-80(%rbp), %rax
 808 0914 8B4008   		movl	8(%rax), %eax
 809 0917 89C0     		movl	%eax, %eax
 810 0919 4839C2   		cmpq	%rax, %rdx
 811 091c 7643     		jbe	.L48
 812              		.loc 1 344 0 is_stmt 0 discriminator 1
 813 091e 4883EC08 		subq	$8, %rsp
 814 0922 68000000 		pushq	$.LC10
 814      00
 815 0927 41B90000 		movl	$.LC0, %r9d
 815      0000
 816 092d 41B8FFFE 		movl	$-257, %r8d
 816      FFFF
 817 0933 B95D0100 		movl	$349, %ecx
GAS LISTING /tmp/ccRtKyPs.s 			page 26


 817      00
 818 0938 BA000000 		movl	$.LC11, %edx
 818      00
 819 093d BE000000 		movl	$.LC2, %esi
 819      00
 820 0942 BF450000 		movl	$69, %edi
 820      00
 821 0947 B8000000 		movl	$0, %eax
 821      00
 822 094c E8000000 		call	siFormattedMessage_SC
 822      00
 823 0951 4883C410 		addq	$16, %rsp
 824 0955 C745CCFF 		movl	$-257, -52(%rbp)
 824      FEFFFF
 825 095c E9460100 		jmp	.L58
 825      00
 826              	.L48:
 345:/development/eAPI/eapidk-code/apps/EApiValidateAPI/linux/../../common/EApiAHI2C.c ****         EApiAHI2CReadEeprom, 
 346:/development/eAPI/eapidk-code/apps/EApiValidateAPI/linux/../../common/EApiAHI2C.c ****         EAPI_STATUS_INVALID_PARAMETER, 
 347:/development/eAPI/eapidk-code/apps/EApiValidateAPI/linux/../../common/EApiAHI2C.c ****         ByteOffset+ByteCnt>pDDesc->DevSize, 
 348:/development/eAPI/eapidk-code/apps/EApiValidateAPI/linux/../../common/EApiAHI2C.c ****         "Prevented Write beyond Device Boundary"
 349:/development/eAPI/eapidk-code/apps/EApiValidateAPI/linux/../../common/EApiAHI2C.c ****         );
 350:/development/eAPI/eapidk-code/apps/EApiValidateAPI/linux/../../common/EApiAHI2C.c **** #if STRICT_VALIDATION
 351:/development/eAPI/eapidk-code/apps/EApiValidateAPI/linux/../../common/EApiAHI2C.c ****     if(ByteOffset+ByteCnt>pDDesc->DevSize)
 827              		.loc 1 351 0 is_stmt 1
 828 0961 488B55A8 		movq	-88(%rbp), %rdx
 829 0965 488B4590 		movq	-112(%rbp), %rax
 830 0969 4801C2   		addq	%rax, %rdx
 831 096c 488B45B0 		movq	-80(%rbp), %rax
 832 0970 8B4008   		movl	8(%rax), %eax
 833 0973 89C0     		movl	%eax, %eax
 834 0975 4839C2   		cmpq	%rax, %rdx
 835 0978 7611     		jbe	.L49
 352:/development/eAPI/eapidk-code/apps/EApiValidateAPI/linux/../../common/EApiAHI2C.c ****     {
 353:/development/eAPI/eapidk-code/apps/EApiValidateAPI/linux/../../common/EApiAHI2C.c ****       ByteCnt=pDDesc->DevSize-ByteOffset;
 836              		.loc 1 353 0
 837 097a 488B45B0 		movq	-80(%rbp), %rax
 838 097e 8B4008   		movl	8(%rax), %eax
 839 0981 89C0     		movl	%eax, %eax
 840 0983 482B45A8 		subq	-88(%rbp), %rax
 841 0987 48894590 		movq	%rax, -112(%rbp)
 842              	.L49:
 354:/development/eAPI/eapidk-code/apps/EApiValidateAPI/linux/../../common/EApiAHI2C.c ****     }
 355:/development/eAPI/eapidk-code/apps/EApiValidateAPI/linux/../../common/EApiAHI2C.c **** #endif
 356:/development/eAPI/eapidk-code/apps/EApiValidateAPI/linux/../../common/EApiAHI2C.c ****     
 357:/development/eAPI/eapidk-code/apps/EApiValidateAPI/linux/../../common/EApiAHI2C.c ****     /* Get Storage Capabilities */
 358:/development/eAPI/eapidk-code/apps/EApiValidateAPI/linux/../../common/EApiAHI2C.c ****     StatusCode=EApiI2CGetBusCap(Id, &IntMaxBlckLen);
 843              		.loc 1 358 0
 844 098b 488D55C8 		leaq	-56(%rbp), %rdx
 845 098f 8B45BC   		movl	-68(%rbp), %eax
 846 0992 4889D6   		movq	%rdx, %rsi
 847 0995 89C7     		movl	%eax, %edi
 848 0997 E8000000 		call	EApiI2CGetBusCap
 848      00
 849 099c 8945CC   		movl	%eax, -52(%rbp)
 359:/development/eAPI/eapidk-code/apps/EApiValidateAPI/linux/../../common/EApiAHI2C.c ****     if(!EAPI_TEST_SUCCESS(StatusCode))
 850              		.loc 1 359 0
GAS LISTING /tmp/ccRtKyPs.s 			page 27


 851 099f 837DCC00 		cmpl	$0, -52(%rbp)
 852 09a3 0F85F700 		jne	.L61
 852      0000
 360:/development/eAPI/eapidk-code/apps/EApiValidateAPI/linux/../../common/EApiAHI2C.c ****       goto ErrorExit;
 361:/development/eAPI/eapidk-code/apps/EApiValidateAPI/linux/../../common/EApiAHI2C.c **** 
 362:/development/eAPI/eapidk-code/apps/EApiValidateAPI/linux/../../common/EApiAHI2C.c ****     BlockEndAddress=ByteOffset+ByteCnt;
 853              		.loc 1 362 0
 854 09a9 488B55A8 		movq	-88(%rbp), %rdx
 855 09ad 488B4590 		movq	-112(%rbp), %rax
 856 09b1 4801D0   		addq	%rdx, %rax
 857 09b4 488945F0 		movq	%rax, -16(%rbp)
 363:/development/eAPI/eapidk-code/apps/EApiValidateAPI/linux/../../common/EApiAHI2C.c **** 
 364:/development/eAPI/eapidk-code/apps/EApiValidateAPI/linux/../../common/EApiAHI2C.c ****     if(pDDesc->ExtIndx==EApiAPI2CExtIndex)
 858              		.loc 1 364 0
 859 09b8 488B45B0 		movq	-80(%rbp), %rax
 860 09bc 0FB74004 		movzwl	4(%rax), %eax
 861 09c0 6683F802 		cmpw	$2, %ax
 862 09c4 7518     		jne	.L51
 365:/development/eAPI/eapidk-code/apps/EApiValidateAPI/linux/../../common/EApiAHI2C.c ****       /* After this length it is necessary to increment the Device Address */
 366:/development/eAPI/eapidk-code/apps/EApiValidateAPI/linux/../../common/EApiAHI2C.c ****       BlockLength=(IntMaxBlckLen<0x10000?IntMaxBlckLen:0x10000);
 863              		.loc 1 366 0
 864 09c6 8B45C8   		movl	-56(%rbp), %eax
 865 09c9 BA000001 		movl	$65536, %edx
 865      00
 866 09ce 3D000001 		cmpl	$65536, %eax
 866      00
 867 09d3 0F47C2   		cmova	%edx, %eax
 868 09d6 89C0     		movl	%eax, %eax
 869 09d8 488945E0 		movq	%rax, -32(%rbp)
 870 09dc EB16     		jmp	.L52
 871              	.L51:
 367:/development/eAPI/eapidk-code/apps/EApiValidateAPI/linux/../../common/EApiAHI2C.c ****     else
 368:/development/eAPI/eapidk-code/apps/EApiValidateAPI/linux/../../common/EApiAHI2C.c ****       /* After this length it is necessary to increment the Device Address */
 369:/development/eAPI/eapidk-code/apps/EApiValidateAPI/linux/../../common/EApiAHI2C.c ****       BlockLength=(IntMaxBlckLen<0x100?IntMaxBlckLen:0x100);
 872              		.loc 1 369 0
 873 09de 8B45C8   		movl	-56(%rbp), %eax
 874 09e1 BA000100 		movl	$256, %edx
 874      00
 875 09e6 3D000100 		cmpl	$256, %eax
 875      00
 876 09eb 0F47C2   		cmova	%edx, %eax
 877 09ee 89C0     		movl	%eax, %eax
 878 09f0 488945E0 		movq	%rax, -32(%rbp)
 879              	.L52:
 370:/development/eAPI/eapidk-code/apps/EApiValidateAPI/linux/../../common/EApiAHI2C.c ****     CurOffset=ByteOffset;
 880              		.loc 1 370 0
 881 09f4 488B45A8 		movq	-88(%rbp), %rax
 882 09f8 488945E8 		movq	%rax, -24(%rbp)
 371:/development/eAPI/eapidk-code/apps/EApiValidateAPI/linux/../../common/EApiAHI2C.c ****     while(CurOffset<BlockEndAddress)
 883              		.loc 1 371 0
 884 09fc E98F0000 		jmp	.L53
 884      00
 885              	.L57:
 372:/development/eAPI/eapidk-code/apps/EApiValidateAPI/linux/../../common/EApiAHI2C.c ****     {
 373:/development/eAPI/eapidk-code/apps/EApiValidateAPI/linux/../../common/EApiAHI2C.c ****       /* Adjust block length so we don't overrun the end of the device */
 374:/development/eAPI/eapidk-code/apps/EApiValidateAPI/linux/../../common/EApiAHI2C.c ****       if(CurOffset+BlockLength>BlockEndAddress){
 886              		.loc 1 374 0
GAS LISTING /tmp/ccRtKyPs.s 			page 28


 887 0a01 488B55E8 		movq	-24(%rbp), %rdx
 888 0a05 488B45E0 		movq	-32(%rbp), %rax
 889 0a09 4801D0   		addq	%rdx, %rax
 890 0a0c 483B45F0 		cmpq	-16(%rbp), %rax
 891 0a10 760C     		jbe	.L54
 375:/development/eAPI/eapidk-code/apps/EApiValidateAPI/linux/../../common/EApiAHI2C.c ****         BlockLength=BlockEndAddress-CurOffset;
 892              		.loc 1 375 0
 893 0a12 488B45F0 		movq	-16(%rbp), %rax
 894 0a16 482B45E8 		subq	-24(%rbp), %rax
 895 0a1a 488945E0 		movq	%rax, -32(%rbp)
 896              	.L54:
 376:/development/eAPI/eapidk-code/apps/EApiValidateAPI/linux/../../common/EApiAHI2C.c ****       }
 377:/development/eAPI/eapidk-code/apps/EApiValidateAPI/linux/../../common/EApiAHI2C.c ****       /* Get Encoded Device and Offset */
 378:/development/eAPI/eapidk-code/apps/EApiValidateAPI/linux/../../common/EApiAHI2C.c ****       StatusCode=EApiAHI2CCCreateAddrOffset(pDDesc, CurOffset, &EncAddr, &EncOffset);
 897              		.loc 1 378 0
 898 0a1e 488D4DD8 		leaq	-40(%rbp), %rcx
 899 0a22 488D55D0 		leaq	-48(%rbp), %rdx
 900 0a26 488B75E8 		movq	-24(%rbp), %rsi
 901 0a2a 488B45B0 		movq	-80(%rbp), %rax
 902 0a2e 4889C7   		movq	%rax, %rdi
 903 0a31 E8000000 		call	EApiAHI2CCCreateAddrOffset
 903      00
 904 0a36 8945CC   		movl	%eax, -52(%rbp)
 379:/development/eAPI/eapidk-code/apps/EApiValidateAPI/linux/../../common/EApiAHI2C.c ****       if(!EAPI_TEST_SUCCESS(StatusCode))
 905              		.loc 1 379 0
 906 0a39 837DCC00 		cmpl	$0, -52(%rbp)
 907 0a3d 7564     		jne	.L62
 380:/development/eAPI/eapidk-code/apps/EApiValidateAPI/linux/../../common/EApiAHI2C.c ****         goto ErrorExit;
 381:/development/eAPI/eapidk-code/apps/EApiValidateAPI/linux/../../common/EApiAHI2C.c ****       /* Do the actual transfer */
 382:/development/eAPI/eapidk-code/apps/EApiValidateAPI/linux/../../common/EApiAHI2C.c ****       StatusCode=EApiI2CReadTransfer(
 908              		.loc 1 382 0
 909 0a3f 488B45E0 		movq	-32(%rbp), %rax
 910 0a43 4189C0   		movl	%eax, %r8d
 911 0a46 488B45E0 		movq	-32(%rbp), %rax
 912 0a4a 89C1     		movl	%eax, %ecx
 383:/development/eAPI/eapidk-code/apps/EApiValidateAPI/linux/../../common/EApiAHI2C.c ****           Id, 
 384:/development/eAPI/eapidk-code/apps/EApiValidateAPI/linux/../../common/EApiAHI2C.c ****           (uint32_t)EncAddr, 
 385:/development/eAPI/eapidk-code/apps/EApiValidateAPI/linux/../../common/EApiAHI2C.c ****           (uint32_t)EncOffset, 
 386:/development/eAPI/eapidk-code/apps/EApiValidateAPI/linux/../../common/EApiAHI2C.c ****           ((int8_t *)pBuffer)+(CurOffset-ByteOffset), 
 913              		.loc 1 386 0
 914 0a4c 488B45E8 		movq	-24(%rbp), %rax
 915 0a50 482B45A8 		subq	-88(%rbp), %rax
 916 0a54 4889C2   		movq	%rax, %rdx
 382:/development/eAPI/eapidk-code/apps/EApiValidateAPI/linux/../../common/EApiAHI2C.c ****           Id, 
 917              		.loc 1 382 0
 918 0a57 488B45A0 		movq	-96(%rbp), %rax
 919 0a5b 4801C2   		addq	%rax, %rdx
 920 0a5e 488B45D8 		movq	-40(%rbp), %rax
 921 0a62 89C7     		movl	%eax, %edi
 922 0a64 488B45D0 		movq	-48(%rbp), %rax
 923 0a68 89C6     		movl	%eax, %esi
 924 0a6a 8B45BC   		movl	-68(%rbp), %eax
 925 0a6d 4589C1   		movl	%r8d, %r9d
 926 0a70 4189C8   		movl	%ecx, %r8d
 927 0a73 4889D1   		movq	%rdx, %rcx
 928 0a76 89FA     		movl	%edi, %edx
 929 0a78 89C7     		movl	%eax, %edi
GAS LISTING /tmp/ccRtKyPs.s 			page 29


 930 0a7a E8000000 		call	EApiI2CReadTransfer
 930      00
 931 0a7f 8945CC   		movl	%eax, -52(%rbp)
 387:/development/eAPI/eapidk-code/apps/EApiValidateAPI/linux/../../common/EApiAHI2C.c ****           (uint32_t)BlockLength, 
 388:/development/eAPI/eapidk-code/apps/EApiValidateAPI/linux/../../common/EApiAHI2C.c ****           (uint32_t)BlockLength
 389:/development/eAPI/eapidk-code/apps/EApiValidateAPI/linux/../../common/EApiAHI2C.c ****           );
 390:/development/eAPI/eapidk-code/apps/EApiValidateAPI/linux/../../common/EApiAHI2C.c ****       if(!EAPI_TEST_SUCCESS(StatusCode))
 932              		.loc 1 390 0
 933 0a82 837DCC00 		cmpl	$0, -52(%rbp)
 934 0a86 751E     		jne	.L63
 391:/development/eAPI/eapidk-code/apps/EApiValidateAPI/linux/../../common/EApiAHI2C.c ****         goto ErrorExit;
 392:/development/eAPI/eapidk-code/apps/EApiValidateAPI/linux/../../common/EApiAHI2C.c ****       CurOffset+=BlockLength;
 935              		.loc 1 392 0
 936 0a88 488B45E0 		movq	-32(%rbp), %rax
 937 0a8c 480145E8 		addq	%rax, -24(%rbp)
 938              	.L53:
 371:/development/eAPI/eapidk-code/apps/EApiValidateAPI/linux/../../common/EApiAHI2C.c ****     {
 939              		.loc 1 371 0
 940 0a90 488B45E8 		movq	-24(%rbp), %rax
 941 0a94 483B45F0 		cmpq	-16(%rbp), %rax
 942 0a98 0F8263FF 		jb	.L57
 942      FFFF
 943 0a9e EB07     		jmp	.L58
 944              	.L42:
 945              	.L61:
 360:/development/eAPI/eapidk-code/apps/EApiValidateAPI/linux/../../common/EApiAHI2C.c **** 
 946              		.loc 1 360 0
 947 0aa0 90       		nop
 948 0aa1 EB04     		jmp	.L58
 949              	.L62:
 380:/development/eAPI/eapidk-code/apps/EApiValidateAPI/linux/../../common/EApiAHI2C.c ****       /* Do the actual transfer */
 950              		.loc 1 380 0
 951 0aa3 90       		nop
 952 0aa4 EB01     		jmp	.L58
 953              	.L63:
 391:/development/eAPI/eapidk-code/apps/EApiValidateAPI/linux/../../common/EApiAHI2C.c ****       CurOffset+=BlockLength;
 954              		.loc 1 391 0
 955 0aa6 90       		nop
 956              	.L58:
 393:/development/eAPI/eapidk-code/apps/EApiValidateAPI/linux/../../common/EApiAHI2C.c ****     }
 394:/development/eAPI/eapidk-code/apps/EApiValidateAPI/linux/../../common/EApiAHI2C.c **** 
 395:/development/eAPI/eapidk-code/apps/EApiValidateAPI/linux/../../common/EApiAHI2C.c **** 
 396:/development/eAPI/eapidk-code/apps/EApiValidateAPI/linux/../../common/EApiAHI2C.c **** ErrorExit:
 397:/development/eAPI/eapidk-code/apps/EApiValidateAPI/linux/../../common/EApiAHI2C.c **** EAPI_APP_ASSERT_EXIT
 398:/development/eAPI/eapidk-code/apps/EApiValidateAPI/linux/../../common/EApiAHI2C.c ****   return StatusCode;
 957              		.loc 1 398 0
 958 0aa7 8B45CC   		movl	-52(%rbp), %eax
 399:/development/eAPI/eapidk-code/apps/EApiValidateAPI/linux/../../common/EApiAHI2C.c **** }
 959              		.loc 1 399 0
 960 0aaa 488B4DF8 		movq	-8(%rbp), %rcx
 961 0aae 6448330C 		xorq	%fs:40, %rcx
 961      25280000 
 961      00
 962 0ab7 7405     		je	.L60
 963 0ab9 E8000000 		call	__stack_chk_fail
 963      00
 964              	.L60:
GAS LISTING /tmp/ccRtKyPs.s 			page 30


 965 0abe C9       		leave
 966              		.cfi_def_cfa 7, 8
 967 0abf C3       		ret
 968              		.cfi_endproc
 969              	.LFE5:
 971              	.Letext0:
 972              		.file 2 "/usr/lib/gcc/x86_64-linux-gnu/5/include/stddef.h"
 973              		.file 3 "/usr/include/x86_64-linux-gnu/sys/types.h"
 974              		.file 4 "/usr/include/stdint.h"
 975              		.file 5 "../../../include/EApi.h"
 976              		.file 6 "../../include/EApiAHI2C.h"
GAS LISTING /tmp/ccRtKyPs.s 			page 31

