GAS LISTING /tmp/ccW7zoDa.s 			page 1


   1              		.file	"EApiValidateAPI.c"
   2              		.text
   3              	.Ltext0:
   4              		.comm	LogStream,8,8
   5              		.section	.rodata
   6              	.LC0:
   7 0000 25632530 		.string	"%c%04i %-30s | "
   7      34692025 
   7      2D333073 
   7      207C2000 
   8              	.LC1:
   9 0010 20202020 		.string	"               0x%08X | "
   9      20202020 
   9      20202020 
   9      20202030 
   9      78253038 
  10              	.LC2:
  11 0029 252D3235 		.string	"%-25s | "
  11      73207C20 
  11      00
  12              		.text
  13              		.globl	siFFormattedMessage_SC
  15              	siFFormattedMessage_SC:
  16              	.LFB2:
  17              		.file 1 "/development/eAPI/eapidk-code/apps/EApiValidateAPI/linux/../EApiValidateAPI.c"
   1:/development/eAPI/eapidk-code/apps/EApiValidateAPI/linux/../EApiValidateAPI.c **** /*
   2:/development/eAPI/eapidk-code/apps/EApiValidateAPI/linux/../EApiValidateAPI.c ****  *<KHeader>
   3:/development/eAPI/eapidk-code/apps/EApiValidateAPI/linux/../EApiValidateAPI.c ****  *+=========================================================================
   4:/development/eAPI/eapidk-code/apps/EApiValidateAPI/linux/../EApiValidateAPI.c ****  *I  Project Name: EApiDK Embedded Application Development Kit
   5:/development/eAPI/eapidk-code/apps/EApiValidateAPI/linux/../EApiValidateAPI.c ****  *+=========================================================================
   6:/development/eAPI/eapidk-code/apps/EApiValidateAPI/linux/../EApiValidateAPI.c ****  *I  $HeadURL: http://svn.code.sf.net/p/eapidk/code/trunk/apps/EApiValidateAPI/EApiValidateAPI.c $
   7:/development/eAPI/eapidk-code/apps/EApiValidateAPI/linux/../EApiValidateAPI.c ****  *+=========================================================================
   8:/development/eAPI/eapidk-code/apps/EApiValidateAPI/linux/../EApiValidateAPI.c ****  *I   Copyright: Copyright (c) 2002-2009, Kontron Embedded Modules GmbH
   9:/development/eAPI/eapidk-code/apps/EApiValidateAPI/linux/../EApiValidateAPI.c ****  *I      Author: John Kearney,                  John.Kearney@kontron.com
  10:/development/eAPI/eapidk-code/apps/EApiValidateAPI/linux/../EApiValidateAPI.c ****  *I
  11:/development/eAPI/eapidk-code/apps/EApiValidateAPI/linux/../EApiValidateAPI.c ****  *I     License: All rights reserved. This program and the accompanying
  12:/development/eAPI/eapidk-code/apps/EApiValidateAPI/linux/../EApiValidateAPI.c ****  *I              materials are licensed and made available under the
  13:/development/eAPI/eapidk-code/apps/EApiValidateAPI/linux/../EApiValidateAPI.c ****  *I              terms and conditions of the BSD License which
  14:/development/eAPI/eapidk-code/apps/EApiValidateAPI/linux/../EApiValidateAPI.c ****  *I              accompanies this distribution. The full text of the
  15:/development/eAPI/eapidk-code/apps/EApiValidateAPI/linux/../EApiValidateAPI.c ****  *I              license may be found at
  16:/development/eAPI/eapidk-code/apps/EApiValidateAPI/linux/../EApiValidateAPI.c ****  *I              http://opensource.org/licenses/bsd-license.php
  17:/development/eAPI/eapidk-code/apps/EApiValidateAPI/linux/../EApiValidateAPI.c ****  *I
  18:/development/eAPI/eapidk-code/apps/EApiValidateAPI/linux/../EApiValidateAPI.c ****  *I              THE PROGRAM IS DISTRIBUTED UNDER THE BSD LICENSE ON AN "
  19:/development/eAPI/eapidk-code/apps/EApiValidateAPI/linux/../EApiValidateAPI.c ****  *I              AS IS" BASIS, WITHOUT WARRANTIES OR REPRESENTATIONS OF
  20:/development/eAPI/eapidk-code/apps/EApiValidateAPI/linux/../EApiValidateAPI.c ****  *I              ANY KIND, EITHER EXPRESS OR IMPLIED.
  21:/development/eAPI/eapidk-code/apps/EApiValidateAPI/linux/../EApiValidateAPI.c ****  *I
  22:/development/eAPI/eapidk-code/apps/EApiValidateAPI/linux/../EApiValidateAPI.c ****  *I Description: Auto Created for EApiValidateAPI.c
  23:/development/eAPI/eapidk-code/apps/EApiValidateAPI/linux/../EApiValidateAPI.c ****  *I
  24:/development/eAPI/eapidk-code/apps/EApiValidateAPI/linux/../EApiValidateAPI.c ****  *+-------------------------------------------------------------------------
  25:/development/eAPI/eapidk-code/apps/EApiValidateAPI/linux/../EApiValidateAPI.c ****  *I
  26:/development/eAPI/eapidk-code/apps/EApiValidateAPI/linux/../EApiValidateAPI.c ****  *I  File Name            : EApiValidateAPI.c
  27:/development/eAPI/eapidk-code/apps/EApiValidateAPI/linux/../EApiValidateAPI.c ****  *I  File Location        : apps\EApiValidateAPI
  28:/development/eAPI/eapidk-code/apps/EApiValidateAPI/linux/../EApiValidateAPI.c ****  *I  Last committed       : $Revision: 74 $
  29:/development/eAPI/eapidk-code/apps/EApiValidateAPI/linux/../EApiValidateAPI.c ****  *I  Last changed by      : $Author: dethrophes $
  30:/development/eAPI/eapidk-code/apps/EApiValidateAPI/linux/../EApiValidateAPI.c ****  *I  Last changed date    : $Date: 2010-06-23 21:26:50 +0200 (Wed, 23 Jun 2010) $
  31:/development/eAPI/eapidk-code/apps/EApiValidateAPI/linux/../EApiValidateAPI.c ****  *I  ID                   : $Id: EApiValidateAPI.c 74 2010-06-23 19:26:50Z dethrophes $
  32:/development/eAPI/eapidk-code/apps/EApiValidateAPI/linux/../EApiValidateAPI.c ****  *I
GAS LISTING /tmp/ccW7zoDa.s 			page 2


  33:/development/eAPI/eapidk-code/apps/EApiValidateAPI/linux/../EApiValidateAPI.c ****  *+=========================================================================
  34:/development/eAPI/eapidk-code/apps/EApiValidateAPI/linux/../EApiValidateAPI.c ****  *</KHeader>
  35:/development/eAPI/eapidk-code/apps/EApiValidateAPI/linux/../EApiValidateAPI.c ****  */
  36:/development/eAPI/eapidk-code/apps/EApiValidateAPI/linux/../EApiValidateAPI.c **** #include <EApiApp.h>
  37:/development/eAPI/eapidk-code/apps/EApiValidateAPI/linux/../EApiValidateAPI.c **** 
  38:/development/eAPI/eapidk-code/apps/EApiValidateAPI/linux/../EApiValidateAPI.c **** 
  39:/development/eAPI/eapidk-code/apps/EApiValidateAPI/linux/../EApiValidateAPI.c **** #define END_OF_LIST_MARK ((uint32_t)-1)
  40:/development/eAPI/eapidk-code/apps/EApiValidateAPI/linux/../EApiValidateAPI.c **** typedef void EApiValidateTestFunction(void);
  41:/development/eAPI/eapidk-code/apps/EApiValidateAPI/linux/../EApiValidateAPI.c **** #define DESTRUCTIVE_ALLOWED 1
  42:/development/eAPI/eapidk-code/apps/EApiValidateAPI/linux/../EApiValidateAPI.c **** 
  43:/development/eAPI/eapidk-code/apps/EApiValidateAPI/linux/../EApiValidateAPI.c **** 
  44:/development/eAPI/eapidk-code/apps/EApiValidateAPI/linux/../EApiValidateAPI.c **** 
  45:/development/eAPI/eapidk-code/apps/EApiValidateAPI/linux/../EApiValidateAPI.c **** /*  */
  46:/development/eAPI/eapidk-code/apps/EApiValidateAPI/linux/../EApiValidateAPI.c **** FILE *LogStream;
  47:/development/eAPI/eapidk-code/apps/EApiValidateAPI/linux/../EApiValidateAPI.c **** 
  48:/development/eAPI/eapidk-code/apps/EApiValidateAPI/linux/../EApiValidateAPI.c **** EApiStatus_t
  49:/development/eAPI/eapidk-code/apps/EApiValidateAPI/linux/../EApiValidateAPI.c **** EApiGetErrorStringA(
  50:/development/eAPI/eapidk-code/apps/EApiValidateAPI/linux/../EApiValidateAPI.c ****         __OUT const char  **const pszString     ,
  51:/development/eAPI/eapidk-code/apps/EApiValidateAPI/linux/../EApiValidateAPI.c ****         __IN EApiStatus_t StatusCode
  52:/development/eAPI/eapidk-code/apps/EApiValidateAPI/linux/../EApiValidateAPI.c ****         );
  53:/development/eAPI/eapidk-code/apps/EApiValidateAPI/linux/../EApiValidateAPI.c **** 
  54:/development/eAPI/eapidk-code/apps/EApiValidateAPI/linux/../EApiValidateAPI.c **** signed int
  55:/development/eAPI/eapidk-code/apps/EApiValidateAPI/linux/../EApiValidateAPI.c **** __cdecl
  56:/development/eAPI/eapidk-code/apps/EApiValidateAPI/linux/../EApiValidateAPI.c **** siFFormattedMessage_SC(
  57:/development/eAPI/eapidk-code/apps/EApiValidateAPI/linux/../EApiValidateAPI.c ****         FILE       *  OutStream   ,
  58:/development/eAPI/eapidk-code/apps/EApiValidateAPI/linux/../EApiValidateAPI.c ****         char          cType       ,
  59:/development/eAPI/eapidk-code/apps/EApiValidateAPI/linux/../EApiValidateAPI.c ****         const char *  cszFileName ,
  60:/development/eAPI/eapidk-code/apps/EApiValidateAPI/linux/../EApiValidateAPI.c ****         const char *  cszFuncName ,
  61:/development/eAPI/eapidk-code/apps/EApiValidateAPI/linux/../EApiValidateAPI.c ****         unsigned int  uiLineNum   ,
  62:/development/eAPI/eapidk-code/apps/EApiValidateAPI/linux/../EApiValidateAPI.c ****         EApiStatus_t  StatusCode  ,
  63:/development/eAPI/eapidk-code/apps/EApiValidateAPI/linux/../EApiValidateAPI.c ****         const char *  cszFormat   ,
  64:/development/eAPI/eapidk-code/apps/EApiValidateAPI/linux/../EApiValidateAPI.c ****         ...
  65:/development/eAPI/eapidk-code/apps/EApiValidateAPI/linux/../EApiValidateAPI.c ****         )
  66:/development/eAPI/eapidk-code/apps/EApiValidateAPI/linux/../EApiValidateAPI.c **** EAPI_PRINTF_ARG(7, 8);
  67:/development/eAPI/eapidk-code/apps/EApiValidateAPI/linux/../EApiValidateAPI.c **** 
  68:/development/eAPI/eapidk-code/apps/EApiValidateAPI/linux/../EApiValidateAPI.c **** signed int
  69:/development/eAPI/eapidk-code/apps/EApiValidateAPI/linux/../EApiValidateAPI.c **** __cdecl
  70:/development/eAPI/eapidk-code/apps/EApiValidateAPI/linux/../EApiValidateAPI.c **** siFFormattedMessage_SC(
  71:/development/eAPI/eapidk-code/apps/EApiValidateAPI/linux/../EApiValidateAPI.c ****         FILE       *  OutStream   ,
  72:/development/eAPI/eapidk-code/apps/EApiValidateAPI/linux/../EApiValidateAPI.c ****         char          cType       ,
  73:/development/eAPI/eapidk-code/apps/EApiValidateAPI/linux/../EApiValidateAPI.c ****         const char *  cszFileName ,
  74:/development/eAPI/eapidk-code/apps/EApiValidateAPI/linux/../EApiValidateAPI.c ****         const char *  cszFuncName ,
  75:/development/eAPI/eapidk-code/apps/EApiValidateAPI/linux/../EApiValidateAPI.c ****         unsigned int  uiLineNum   ,
  76:/development/eAPI/eapidk-code/apps/EApiValidateAPI/linux/../EApiValidateAPI.c ****         EApiStatus_t  StatusCode  ,
  77:/development/eAPI/eapidk-code/apps/EApiValidateAPI/linux/../EApiValidateAPI.c ****         const char *  cszFormat   ,
  78:/development/eAPI/eapidk-code/apps/EApiValidateAPI/linux/../EApiValidateAPI.c ****         ...
  79:/development/eAPI/eapidk-code/apps/EApiValidateAPI/linux/../EApiValidateAPI.c ****         )
  80:/development/eAPI/eapidk-code/apps/EApiValidateAPI/linux/../EApiValidateAPI.c **** {
  18              		.loc 1 80 0
  19              		.cfi_startproc
  20 0000 55       		pushq	%rbp
  21              		.cfi_def_cfa_offset 16
  22              		.cfi_offset 6, -16
  23 0001 4889E5   		movq	%rsp, %rbp
  24              		.cfi_def_cfa_register 6
  25 0004 4881EC10 		subq	$272, %rsp
  25      010000
GAS LISTING /tmp/ccW7zoDa.s 			page 3


  26 000b 4889BD18 		movq	%rdi, -232(%rbp)
  26      FFFFFF
  27 0012 48899508 		movq	%rdx, -248(%rbp)
  27      FFFFFF
  28 0019 48898D00 		movq	%rcx, -256(%rbp)
  28      FFFFFF
  29 0020 44898510 		movl	%r8d, -240(%rbp)
  29      FFFFFF
  30 0027 44898DFC 		movl	%r9d, -260(%rbp)
  30      FEFFFF
  31 002e 84C0     		testb	%al, %al
  32 0030 7420     		je	.L2
  33 0032 0F294580 		movaps	%xmm0, -128(%rbp)
  34 0036 0F294D90 		movaps	%xmm1, -112(%rbp)
  35 003a 0F2955A0 		movaps	%xmm2, -96(%rbp)
  36 003e 0F295DB0 		movaps	%xmm3, -80(%rbp)
  37 0042 0F2965C0 		movaps	%xmm4, -64(%rbp)
  38 0046 0F296DD0 		movaps	%xmm5, -48(%rbp)
  39 004a 0F2975E0 		movaps	%xmm6, -32(%rbp)
  40 004e 0F297DF0 		movaps	%xmm7, -16(%rbp)
  41              	.L2:
  42 0052 4088B514 		movb	%sil, -236(%rbp)
  42      FFFFFF
  43 0059 488B4510 		movq	16(%rbp), %rax
  44 005d 488985F0 		movq	%rax, -272(%rbp)
  44      FEFFFF
  45              		.loc 1 80 0
  46 0064 64488B04 		movq	%fs:40, %rax
  46      25280000 
  46      00
  47 006d 48898548 		movq	%rax, -184(%rbp)
  47      FFFFFF
  48 0074 31C0     		xorl	%eax, %eax
  81:/development/eAPI/eapidk-code/apps/EApiValidateAPI/linux/../EApiValidateAPI.c ****     signed int Ret;
  82:/development/eAPI/eapidk-code/apps/EApiValidateAPI/linux/../EApiValidateAPI.c ****     va_list _ArgList;
  83:/development/eAPI/eapidk-code/apps/EApiValidateAPI/linux/../EApiValidateAPI.c ****     const char *szStatusDesc;
  84:/development/eAPI/eapidk-code/apps/EApiValidateAPI/linux/../EApiValidateAPI.c ****     cszFileName=cszFileName;
  85:/development/eAPI/eapidk-code/apps/EApiValidateAPI/linux/../EApiValidateAPI.c ****     va_start(_ArgList, cszFormat);
  49              		.loc 1 85 0
  50 0076 C78530FF 		movl	$48, -208(%rbp)
  50      FFFF3000 
  50      0000
  51 0080 C78534FF 		movl	$48, -204(%rbp)
  51      FFFF3000 
  51      0000
  52 008a 488D4518 		leaq	24(%rbp), %rax
  53 008e 48898538 		movq	%rax, -200(%rbp)
  53      FFFFFF
  54 0095 488D8550 		leaq	-176(%rbp), %rax
  54      FFFFFF
  55 009c 48898540 		movq	%rax, -192(%rbp)
  55      FFFFFF
  86:/development/eAPI/eapidk-code/apps/EApiValidateAPI/linux/../EApiValidateAPI.c ****     EApiGetErrorStringA(&szStatusDesc, StatusCode);
  56              		.loc 1 86 0
  57 00a3 8B95FCFE 		movl	-260(%rbp), %edx
  57      FFFF
  58 00a9 488D8528 		leaq	-216(%rbp), %rax
GAS LISTING /tmp/ccW7zoDa.s 			page 4


  58      FFFFFF
  59 00b0 89D6     		movl	%edx, %esi
  60 00b2 4889C7   		movq	%rax, %rdi
  61 00b5 E8000000 		call	EApiGetErrorStringA
  61      00
  87:/development/eAPI/eapidk-code/apps/EApiValidateAPI/linux/../EApiValidateAPI.c ****     Ret = fprintf(
  62              		.loc 1 87 0
  63 00ba 0FBE9514 		movsbl	-236(%rbp), %edx
  63      FFFFFF
  64 00c1 488BB500 		movq	-256(%rbp), %rsi
  64      FFFFFF
  65 00c8 8B8D10FF 		movl	-240(%rbp), %ecx
  65      FFFF
  66 00ce 488B8518 		movq	-232(%rbp), %rax
  66      FFFFFF
  67 00d5 4989F0   		movq	%rsi, %r8
  68 00d8 BE000000 		movl	$.LC0, %esi
  68      00
  69 00dd 4889C7   		movq	%rax, %rdi
  70 00e0 B8000000 		movl	$0, %eax
  70      00
  71 00e5 E8000000 		call	fprintf
  71      00
  72 00ea 898524FF 		movl	%eax, -220(%rbp)
  72      FFFF
  88:/development/eAPI/eapidk-code/apps/EApiValidateAPI/linux/../EApiValidateAPI.c ****                 OutStream,
  89:/development/eAPI/eapidk-code/apps/EApiValidateAPI/linux/../EApiValidateAPI.c ****                 "%c%04i %-30s | ",
  90:/development/eAPI/eapidk-code/apps/EApiValidateAPI/linux/../EApiValidateAPI.c ****                 cType       ,
  91:/development/eAPI/eapidk-code/apps/EApiValidateAPI/linux/../EApiValidateAPI.c ****                 uiLineNum   ,
  92:/development/eAPI/eapidk-code/apps/EApiValidateAPI/linux/../EApiValidateAPI.c ****                 cszFuncName
  93:/development/eAPI/eapidk-code/apps/EApiValidateAPI/linux/../EApiValidateAPI.c ****                 );
  94:/development/eAPI/eapidk-code/apps/EApiValidateAPI/linux/../EApiValidateAPI.c ****     if(szStatusDesc==NULL){
  73              		.loc 1 94 0
  74 00f0 488B8528 		movq	-216(%rbp), %rax
  74      FFFFFF
  75 00f7 4885C0   		testq	%rax, %rax
  76 00fa 7521     		jne	.L3
  95:/development/eAPI/eapidk-code/apps/EApiValidateAPI/linux/../EApiValidateAPI.c ****         fprintf(OutStream, "               0x%08"PRIX32" | ", StatusCode);
  77              		.loc 1 95 0
  78 00fc 8B95FCFE 		movl	-260(%rbp), %edx
  78      FFFF
  79 0102 488B8518 		movq	-232(%rbp), %rax
  79      FFFFFF
  80 0109 BE000000 		movl	$.LC1, %esi
  80      00
  81 010e 4889C7   		movq	%rax, %rdi
  82 0111 B8000000 		movl	$0, %eax
  82      00
  83 0116 E8000000 		call	fprintf
  83      00
  84 011b EB20     		jmp	.L4
  85              	.L3:
  96:/development/eAPI/eapidk-code/apps/EApiValidateAPI/linux/../EApiValidateAPI.c ****     }else{
  97:/development/eAPI/eapidk-code/apps/EApiValidateAPI/linux/../EApiValidateAPI.c ****         fprintf(OutStream, "%-25s | ", szStatusDesc);
  86              		.loc 1 97 0
  87 011d 488B9528 		movq	-216(%rbp), %rdx
  87      FFFFFF
GAS LISTING /tmp/ccW7zoDa.s 			page 5


  88 0124 488B8518 		movq	-232(%rbp), %rax
  88      FFFFFF
  89 012b BE000000 		movl	$.LC2, %esi
  89      00
  90 0130 4889C7   		movq	%rax, %rdi
  91 0133 B8000000 		movl	$0, %eax
  91      00
  92 0138 E8000000 		call	fprintf
  92      00
  93              	.L4:
  98:/development/eAPI/eapidk-code/apps/EApiValidateAPI/linux/../EApiValidateAPI.c ****     }
  99:/development/eAPI/eapidk-code/apps/EApiValidateAPI/linux/../EApiValidateAPI.c ****     Ret += vfprintf(OutStream, cszFormat, _ArgList);
  94              		.loc 1 99 0
  95 013d 488D9530 		leaq	-208(%rbp), %rdx
  95      FFFFFF
  96 0144 488B8DF0 		movq	-272(%rbp), %rcx
  96      FEFFFF
  97 014b 488B8518 		movq	-232(%rbp), %rax
  97      FFFFFF
  98 0152 4889CE   		movq	%rcx, %rsi
  99 0155 4889C7   		movq	%rax, %rdi
 100 0158 E8000000 		call	vfprintf
 100      00
 101 015d 018524FF 		addl	%eax, -220(%rbp)
 101      FFFF
 100:/development/eAPI/eapidk-code/apps/EApiValidateAPI/linux/../EApiValidateAPI.c ****     va_end(_ArgList);
 101:/development/eAPI/eapidk-code/apps/EApiValidateAPI/linux/../EApiValidateAPI.c ****     return Ret;
 102              		.loc 1 101 0
 103 0163 8B8524FF 		movl	-220(%rbp), %eax
 103      FFFF
 102:/development/eAPI/eapidk-code/apps/EApiValidateAPI/linux/../EApiValidateAPI.c **** }
 104              		.loc 1 102 0
 105 0169 488B8D48 		movq	-184(%rbp), %rcx
 105      FFFFFF
 106 0170 6448330C 		xorq	%fs:40, %rcx
 106      25280000 
 106      00
 107 0179 7405     		je	.L6
 108 017b E8000000 		call	__stack_chk_fail
 108      00
 109              	.L6:
 110 0180 C9       		leave
 111              		.cfi_def_cfa 7, 8
 112 0181 C3       		ret
 113              		.cfi_endproc
 114              	.LFE2:
 116              		.globl	Buffer
 117              		.bss
 118              		.align 32
 121              	Buffer:
 122 0000 00000000 		.zero	1024
 122      00000000 
 122      00000000 
 122      00000000 
 122      00000000 
 123              		.globl	BufPtrLen
 124              		.data
GAS LISTING /tmp/ccW7zoDa.s 			page 6


 125              		.align 4
 128              	BufPtrLen:
 129 0000 00040000 		.long	1024
 130              		.globl	FailPass
 131              		.section	.rodata
 132              	.LC3:
 133 0032 4641494C 		.string	"FAIL"
 133      00
 134              	.LC4:
 135 0037 50415353 		.string	"PASS"
 135      00
 136              		.data
 137 0004 00000000 		.align 16
 137      00000000 
 137      00000000 
 140              	FailPass:
 141 0010 00000000 		.quad	.LC3
 141      00000000 
 142 0018 00000000 		.quad	.LC4
 142      00000000 
 143              		.globl	EApiStrings
 144              		.section	.rodata
 145              	.LC5:
 146 003c 4D616E75 		.string	"Manufacturer"
 146      66616374 
 146      75726572 
 146      00
 147              	.LC6:
 148 0049 426F6172 		.string	"Board Name"
 148      64204E61 
 148      6D6500
 149              	.LC7:
 150 0054 426F6172 		.string	"Board Serial Number"
 150      64205365 
 150      7269616C 
 150      204E756D 
 150      62657200 
 151              	.LC8:
 152 0068 42696F73 		.string	"Bios Revision"
 152      20526576 
 152      6973696F 
 152      6E00
 153              	.LC9:
 154 0076 506C6174 		.string	"Platform Type"
 154      666F726D 
 154      20547970 
 154      6500
 155              	.LC10:
 156 0084 48572052 		.string	"HW Revision"
 156      65766973 
 156      696F6E00 
 157              	.LC11:
 158 0090 426F6172 		.string	"Board Revision"
 158      64205265 
 158      76697369 
 158      6F6E00
 159              	.LC12:
GAS LISTING /tmp/ccW7zoDa.s 			page 7


 160 009f 4D616E75 		.string	"Manufacturing Date"
 160      66616374 
 160      7572696E 
 160      67204461 
 160      746500
 161 00b2 00000000 		.align 32
 161      00000000 
 161      00000000 
 161      0000
 164              	EApiStrings:
 165 00c0 00000000 		.long	0
 166 00c4 00000000 		.zero	4
 167 00c8 00000000 		.quad	.LC5
 167      00000000 
 168 00d0 01000000 		.long	1
 169 00d4 00000000 		.zero	4
 170 00d8 00000000 		.quad	.LC6
 170      00000000 
 171 00e0 03000000 		.long	3
 172 00e4 00000000 		.zero	4
 173 00e8 00000000 		.quad	.LC7
 173      00000000 
 174 00f0 04000000 		.long	4
 175 00f4 00000000 		.zero	4
 176 00f8 00000000 		.quad	.LC8
 176      00000000 
 177 0100 06000000 		.long	6
 178 0104 00000000 		.zero	4
 179 0108 00000000 		.quad	.LC9
 179      00000000 
 180 0110 05000000 		.long	5
 181 0114 00000000 		.zero	4
 182 0118 00000000 		.quad	.LC10
 182      00000000 
 183 0120 02000000 		.long	2
 184 0124 00000000 		.zero	4
 185 0128 00000000 		.quad	.LC11
 185      00000000 
 186 0130 0010F1FA 		.long	-84865024
 187 0134 00000000 		.zero	4
 188 0138 00000000 		.quad	.LC12
 188      00000000 
 189              	.LC13:
 190 0140 252D3330 		.string	"%-30s : %s\n"
 190      73203A20 
 190      25730A00 
 191 014c 00000000 		.align 8
 192              	.LC14:
 193 0150 252D3330 		.string	"%-30s : EAPI_STATUS_UNSUPPORTED\n"
 193      73203A20 
 193      45415049 
 193      5F535441 
 193      5455535F 
 194              		.text
 195              		.globl	EApiValidateStringApi
 197              	EApiValidateStringApi:
 198              	.LFB3:
GAS LISTING /tmp/ccW7zoDa.s 			page 8


 103:/development/eAPI/eapidk-code/apps/EApiValidateAPI/linux/../EApiValidateAPI.c **** 
 104:/development/eAPI/eapidk-code/apps/EApiValidateAPI/linux/../EApiValidateAPI.c **** #define EAPI_LOG_FORMATED_MES(type, func, err, desc) \
 105:/development/eAPI/eapidk-code/apps/EApiValidateAPI/linux/../EApiValidateAPI.c ****     siFFormattedMessage_SC(LogStream, type, __FILE__, #func,  __LINE__, err, "%s\n", desc )
 106:/development/eAPI/eapidk-code/apps/EApiValidateAPI/linux/../EApiValidateAPI.c **** #define EAPI_LOG_RETURN_VALUE(func, tblRef) \
 107:/development/eAPI/eapidk-code/apps/EApiValidateAPI/linux/../EApiValidateAPI.c ****     siFFormattedMessage_SC(LogStream, 'L', __FILE__, #func, __LINE__, StatusCode, "   %2d    %2d   
 108:/development/eAPI/eapidk-code/apps/EApiValidateAPI/linux/../EApiValidateAPI.c ****     i, i2, FailPass[((tblRef[i2].StatusCode1==StatusCode)||(tblRef[i2].StatusCode2==StatusCode)||(t
 109:/development/eAPI/eapidk-code/apps/EApiValidateAPI/linux/../EApiValidateAPI.c **** 
 110:/development/eAPI/eapidk-code/apps/EApiValidateAPI/linux/../EApiValidateAPI.c **** 
 111:/development/eAPI/eapidk-code/apps/EApiValidateAPI/linux/../EApiValidateAPI.c **** 
 112:/development/eAPI/eapidk-code/apps/EApiValidateAPI/linux/../EApiValidateAPI.c **** EApiValidateTestFunction EApiValidateStringApi ;
 113:/development/eAPI/eapidk-code/apps/EApiValidateAPI/linux/../EApiValidateAPI.c **** EApiValidateTestFunction EApiValidateValuesApi ;
 114:/development/eAPI/eapidk-code/apps/EApiValidateAPI/linux/../EApiValidateAPI.c **** EApiValidateTestFunction EApiValidateI2CApi    ;
 115:/development/eAPI/eapidk-code/apps/EApiValidateAPI/linux/../EApiValidateAPI.c **** EApiValidateTestFunction EApiValidateStorageApi;
 116:/development/eAPI/eapidk-code/apps/EApiValidateAPI/linux/../EApiValidateAPI.c **** EApiValidateTestFunction EApiValidateGPIOApi   ;
 117:/development/eAPI/eapidk-code/apps/EApiValidateAPI/linux/../EApiValidateAPI.c **** 
 118:/development/eAPI/eapidk-code/apps/EApiValidateAPI/linux/../EApiValidateAPI.c **** 
 119:/development/eAPI/eapidk-code/apps/EApiValidateAPI/linux/../EApiValidateAPI.c **** 
 120:/development/eAPI/eapidk-code/apps/EApiValidateAPI/linux/../EApiValidateAPI.c **** TCHAR Buffer[1024]={0};
 121:/development/eAPI/eapidk-code/apps/EApiValidateAPI/linux/../EApiValidateAPI.c **** uint32_t BufPtrLen=ARRAY_SIZE(Buffer);
 122:/development/eAPI/eapidk-code/apps/EApiValidateAPI/linux/../EApiValidateAPI.c **** 
 123:/development/eAPI/eapidk-code/apps/EApiValidateAPI/linux/../EApiValidateAPI.c **** const char *FailPass[]={
 124:/development/eAPI/eapidk-code/apps/EApiValidateAPI/linux/../EApiValidateAPI.c ****     "FAIL",
 125:/development/eAPI/eapidk-code/apps/EApiValidateAPI/linux/../EApiValidateAPI.c ****     "PASS",
 126:/development/eAPI/eapidk-code/apps/EApiValidateAPI/linux/../EApiValidateAPI.c **** };
 127:/development/eAPI/eapidk-code/apps/EApiValidateAPI/linux/../EApiValidateAPI.c **** 
 128:/development/eAPI/eapidk-code/apps/EApiValidateAPI/linux/../EApiValidateAPI.c **** 
 129:/development/eAPI/eapidk-code/apps/EApiValidateAPI/linux/../EApiValidateAPI.c **** 
 130:/development/eAPI/eapidk-code/apps/EApiValidateAPI/linux/../EApiValidateAPI.c **** 
 131:/development/eAPI/eapidk-code/apps/EApiValidateAPI/linux/../EApiValidateAPI.c **** //typedef struct EApiBoardStringValidate_s{
 132:/development/eAPI/eapidk-code/apps/EApiValidateAPI/linux/../EApiValidateAPI.c **** //    TCHAR    *BufPtr      ; /* Buffer Pointer */
 133:/development/eAPI/eapidk-code/apps/EApiValidateAPI/linux/../EApiValidateAPI.c **** //    const uint32_t *BufPtrLen   ; /* Buffer Length */
 134:/development/eAPI/eapidk-code/apps/EApiValidateAPI/linux/../EApiValidateAPI.c **** //    const EApiStatus_t  StatusCode1 ; /* Allowed Return Value 1 */
 135:/development/eAPI/eapidk-code/apps/EApiValidateAPI/linux/../EApiValidateAPI.c **** //    const EApiStatus_t  StatusCode2 ; /* Allowed Return Value 2 */
 136:/development/eAPI/eapidk-code/apps/EApiValidateAPI/linux/../EApiValidateAPI.c **** //    const EApiStatus_t  StatusCode3 ; /* Allowed Return Value 3 */
 137:/development/eAPI/eapidk-code/apps/EApiValidateAPI/linux/../EApiValidateAPI.c **** //}EApiBoardStringValidate_t;
 138:/development/eAPI/eapidk-code/apps/EApiValidateAPI/linux/../EApiValidateAPI.c **** 
 139:/development/eAPI/eapidk-code/apps/EApiValidateAPI/linux/../EApiValidateAPI.c **** //uint32_t Value0   =0;
 140:/development/eAPI/eapidk-code/apps/EApiValidateAPI/linux/../EApiValidateAPI.c **** //uint32_t Value1   =1;
 141:/development/eAPI/eapidk-code/apps/EApiValidateAPI/linux/../EApiValidateAPI.c **** //const EApiBoardStringValidate_t EApiStringInterfaceValidate[]={
 142:/development/eAPI/eapidk-code/apps/EApiValidateAPI/linux/../EApiValidateAPI.c **** //    {Buffer, &BufPtrLen, EAPI_STATUS_SUCCESS          , EAPI_STATUS_UNSUPPORTED       , EAPI_STAT
 143:/development/eAPI/eapidk-code/apps/EApiValidateAPI/linux/../EApiValidateAPI.c **** //    {NULL  , NULL      , EAPI_STATUS_INVALID_PARAMETER, EAPI_STATUS_INVALID_PARAMETER , EAPI_STAT
 144:/development/eAPI/eapidk-code/apps/EApiValidateAPI/linux/../EApiValidateAPI.c **** //    {Buffer, NULL      , EAPI_STATUS_INVALID_PARAMETER, EAPI_STATUS_INVALID_PARAMETER , EAPI_STAT
 145:/development/eAPI/eapidk-code/apps/EApiValidateAPI/linux/../EApiValidateAPI.c **** //    {NULL  , &BufPtrLen, EAPI_STATUS_INVALID_PARAMETER, EAPI_STATUS_INVALID_PARAMETER , EAPI_STAT
 146:/development/eAPI/eapidk-code/apps/EApiValidateAPI/linux/../EApiValidateAPI.c **** //    {Buffer, &Value0   , EAPI_STATUS_MORE_DATA        , EAPI_STATUS_UNSUPPORTED       , EAPI_STAT
 147:/development/eAPI/eapidk-code/apps/EApiValidateAPI/linux/../EApiValidateAPI.c **** //    {Buffer, &Value1   , EAPI_STATUS_MORE_DATA        , EAPI_STATUS_UNSUPPORTED       , EAPI_STAT
 148:/development/eAPI/eapidk-code/apps/EApiValidateAPI/linux/../EApiValidateAPI.c **** //};
 149:/development/eAPI/eapidk-code/apps/EApiValidateAPI/linux/../EApiValidateAPI.c **** 
 150:/development/eAPI/eapidk-code/apps/EApiValidateAPI/linux/../EApiValidateAPI.c **** /*
 151:/development/eAPI/eapidk-code/apps/EApiValidateAPI/linux/../EApiValidateAPI.c ****  * Test String Function Table
 152:/development/eAPI/eapidk-code/apps/EApiValidateAPI/linux/../EApiValidateAPI.c ****  *
 153:/development/eAPI/eapidk-code/apps/EApiValidateAPI/linux/../EApiValidateAPI.c ****  */
 154:/development/eAPI/eapidk-code/apps/EApiValidateAPI/linux/../EApiValidateAPI.c **** typedef struct EApiStringType_s{
 155:/development/eAPI/eapidk-code/apps/EApiValidateAPI/linux/../EApiValidateAPI.c ****     const EApiId_t Id  ;
 156:/development/eAPI/eapidk-code/apps/EApiValidateAPI/linux/../EApiValidateAPI.c ****     const TCHAR *const   Desc;
 157:/development/eAPI/eapidk-code/apps/EApiValidateAPI/linux/../EApiValidateAPI.c **** }EApiStringType_t;
 158:/development/eAPI/eapidk-code/apps/EApiValidateAPI/linux/../EApiValidateAPI.c **** const EApiStringType_t EApiStrings[]={
 159:/development/eAPI/eapidk-code/apps/EApiValidateAPI/linux/../EApiValidateAPI.c ****     {EAPI_ID_BOARD_MANUFACTURER_STR  , TEXT("Manufacturer"        )},
GAS LISTING /tmp/ccW7zoDa.s 			page 9


 160:/development/eAPI/eapidk-code/apps/EApiValidateAPI/linux/../EApiValidateAPI.c ****     {EAPI_ID_BOARD_NAME_STR          , TEXT("Board Name"          )},
 161:/development/eAPI/eapidk-code/apps/EApiValidateAPI/linux/../EApiValidateAPI.c ****     {EAPI_ID_BOARD_SERIAL_STR        , TEXT("Board Serial Number" )},
 162:/development/eAPI/eapidk-code/apps/EApiValidateAPI/linux/../EApiValidateAPI.c ****     {EAPI_ID_BOARD_BIOS_REVISION_STR , TEXT("Bios Revision"       )},
 163:/development/eAPI/eapidk-code/apps/EApiValidateAPI/linux/../EApiValidateAPI.c ****     {EAPI_ID_BOARD_PLATFORM_TYPE_STR , TEXT("Platform Type"       )},
 164:/development/eAPI/eapidk-code/apps/EApiValidateAPI/linux/../EApiValidateAPI.c ****     {EAPI_ID_BOARD_HW_REVISION_STR ,   TEXT("HW Revision"       )},
 165:/development/eAPI/eapidk-code/apps/EApiValidateAPI/linux/../EApiValidateAPI.c ****     {EAPI_ID_BOARD_REVISION_STR ,      TEXT("Board Revision"       )},
 166:/development/eAPI/eapidk-code/apps/EApiValidateAPI/linux/../EApiValidateAPI.c ****     {EAPI_DMO_ID_BOARD_MANUFACTURING_DATE_STR , TEXT("Manufacturing Date"       )},
 167:/development/eAPI/eapidk-code/apps/EApiValidateAPI/linux/../EApiValidateAPI.c **** };
 168:/development/eAPI/eapidk-code/apps/EApiValidateAPI/linux/../EApiValidateAPI.c **** void EApiValidateStringApi (void)
 169:/development/eAPI/eapidk-code/apps/EApiValidateAPI/linux/../EApiValidateAPI.c **** {
 199              		.loc 1 169 0
 200              		.cfi_startproc
 201 0182 55       		pushq	%rbp
 202              		.cfi_def_cfa_offset 16
 203              		.cfi_offset 6, -16
 204 0183 4889E5   		movq	%rsp, %rbp
 205              		.cfi_def_cfa_register 6
 206 0186 4883EC20 		subq	$32, %rsp
 207              		.loc 1 169 0
 208 018a 64488B04 		movq	%fs:40, %rax
 208      25280000 
 208      00
 209 0193 488945F8 		movq	%rax, -8(%rbp)
 210 0197 31C0     		xorl	%eax, %eax
 170:/development/eAPI/eapidk-code/apps/EApiValidateAPI/linux/../EApiValidateAPI.c ****     EApiStatus_t StatusCode;
 171:/development/eAPI/eapidk-code/apps/EApiValidateAPI/linux/../EApiValidateAPI.c ****     char * pBuffer;
 172:/development/eAPI/eapidk-code/apps/EApiValidateAPI/linux/../EApiValidateAPI.c ****         uint32_t pBufferLen;
 173:/development/eAPI/eapidk-code/apps/EApiValidateAPI/linux/../EApiValidateAPI.c **** 
 174:/development/eAPI/eapidk-code/apps/EApiValidateAPI/linux/../EApiValidateAPI.c ****         pBufferLen = 100;
 211              		.loc 1 174 0
 212 0199 C745E464 		movl	$100, -28(%rbp)
 212      000000
 175:/development/eAPI/eapidk-code/apps/EApiValidateAPI/linux/../EApiValidateAPI.c ****         pBuffer=(char *)malloc((pBufferLen) * sizeof(char));
 213              		.loc 1 175 0
 214 01a0 8B45E4   		movl	-28(%rbp), %eax
 215 01a3 89C0     		movl	%eax, %eax
 216 01a5 4889C7   		movq	%rax, %rdi
 217 01a8 E8000000 		call	malloc
 217      00
 218 01ad 488945F0 		movq	%rax, -16(%rbp)
 176:/development/eAPI/eapidk-code/apps/EApiValidateAPI/linux/../EApiValidateAPI.c **** 
 177:/development/eAPI/eapidk-code/apps/EApiValidateAPI/linux/../EApiValidateAPI.c **** printf("\n");
 219              		.loc 1 177 0
 220 01b1 BF0A0000 		movl	$10, %edi
 220      00
 221 01b6 E8000000 		call	putchar
 221      00
 222              	.LBB2:
 178:/development/eAPI/eapidk-code/apps/EApiValidateAPI/linux/../EApiValidateAPI.c ****     for(unsigned i=0;i<ARRAY_SIZE(EApiStrings);i++){
 223              		.loc 1 178 0
 224 01bb C745E800 		movl	$0, -24(%rbp)
 224      000000
 225 01c2 EB7F     		jmp	.L8
 226              	.L11:
 179:/development/eAPI/eapidk-code/apps/EApiValidateAPI/linux/../EApiValidateAPI.c ****         pBufferLen = 100;
 227              		.loc 1 179 0
 228 01c4 C745E464 		movl	$100, -28(%rbp)
GAS LISTING /tmp/ccW7zoDa.s 			page 10


 228      000000
 180:/development/eAPI/eapidk-code/apps/EApiValidateAPI/linux/../EApiValidateAPI.c ****         StatusCode = EApiBoardGetStringA(EApiStrings[i].Id, pBuffer,&pBufferLen);
 229              		.loc 1 180 0
 230 01cb 8B45E8   		movl	-24(%rbp), %eax
 231 01ce 48C1E004 		salq	$4, %rax
 232 01d2 48050000 		addq	$EApiStrings, %rax
 232      0000
 233 01d8 8B00     		movl	(%rax), %eax
 234 01da 488D55E4 		leaq	-28(%rbp), %rdx
 235 01de 488B4DF0 		movq	-16(%rbp), %rcx
 236 01e2 4889CE   		movq	%rcx, %rsi
 237 01e5 89C7     		movl	%eax, %edi
 238 01e7 E8000000 		call	EApiBoardGetStringA
 238      00
 239 01ec 8945EC   		movl	%eax, -20(%rbp)
 181:/development/eAPI/eapidk-code/apps/EApiValidateAPI/linux/../EApiValidateAPI.c ****         if (StatusCode == EAPI_STATUS_SUCCESS)
 240              		.loc 1 181 0
 241 01ef 837DEC00 		cmpl	$0, -20(%rbp)
 242 01f3 7528     		jne	.L9
 182:/development/eAPI/eapidk-code/apps/EApiValidateAPI/linux/../EApiValidateAPI.c ****         {
 183:/development/eAPI/eapidk-code/apps/EApiValidateAPI/linux/../EApiValidateAPI.c ****             EAPI_MSG_OUT(
 243              		.loc 1 183 0
 244 01f5 8B45E8   		movl	-24(%rbp), %eax
 245 01f8 48C1E004 		salq	$4, %rax
 246 01fc 48050000 		addq	$EApiStrings+8, %rax
 246      0000
 247 0202 488B00   		movq	(%rax), %rax
 248 0205 488B55F0 		movq	-16(%rbp), %rdx
 249 0209 4889C6   		movq	%rax, %rsi
 250 020c BF000000 		movl	$.LC13, %edi
 250      00
 251 0211 B8000000 		movl	$0, %eax
 251      00
 252 0216 E8000000 		call	printf
 252      00
 253 021b EB22     		jmp	.L10
 254              	.L9:
 184:/development/eAPI/eapidk-code/apps/EApiValidateAPI/linux/../EApiValidateAPI.c ****                         TEXT("%-30s : %s\n"),
 185:/development/eAPI/eapidk-code/apps/EApiValidateAPI/linux/../EApiValidateAPI.c ****                         EApiStrings[i].Desc,
 186:/development/eAPI/eapidk-code/apps/EApiValidateAPI/linux/../EApiValidateAPI.c ****                         pBuffer
 187:/development/eAPI/eapidk-code/apps/EApiValidateAPI/linux/../EApiValidateAPI.c ****                         );
 188:/development/eAPI/eapidk-code/apps/EApiValidateAPI/linux/../EApiValidateAPI.c ****         }
 189:/development/eAPI/eapidk-code/apps/EApiValidateAPI/linux/../EApiValidateAPI.c ****         else
 190:/development/eAPI/eapidk-code/apps/EApiValidateAPI/linux/../EApiValidateAPI.c ****             EAPI_MSG_OUT(
 255              		.loc 1 190 0
 256 021d 8B45E8   		movl	-24(%rbp), %eax
 257 0220 48C1E004 		salq	$4, %rax
 258 0224 48050000 		addq	$EApiStrings+8, %rax
 258      0000
 259 022a 488B00   		movq	(%rax), %rax
 260 022d 4889C6   		movq	%rax, %rsi
 261 0230 BF000000 		movl	$.LC14, %edi
 261      00
 262 0235 B8000000 		movl	$0, %eax
 262      00
 263 023a E8000000 		call	printf
 263      00
GAS LISTING /tmp/ccW7zoDa.s 			page 11


 264              	.L10:
 178:/development/eAPI/eapidk-code/apps/EApiValidateAPI/linux/../EApiValidateAPI.c ****         pBufferLen = 100;
 265              		.loc 1 178 0 discriminator 2
 266 023f 8345E801 		addl	$1, -24(%rbp)
 267              	.L8:
 178:/development/eAPI/eapidk-code/apps/EApiValidateAPI/linux/../EApiValidateAPI.c ****         pBufferLen = 100;
 268              		.loc 1 178 0 is_stmt 0 discriminator 1
 269 0243 837DE807 		cmpl	$7, -24(%rbp)
 270 0247 0F8677FF 		jbe	.L11
 270      FFFF
 271              	.LBE2:
 191:/development/eAPI/eapidk-code/apps/EApiValidateAPI/linux/../EApiValidateAPI.c ****                         TEXT("%-30s : EAPI_STATUS_UNSUPPORTED\n"),
 192:/development/eAPI/eapidk-code/apps/EApiValidateAPI/linux/../EApiValidateAPI.c ****                         EApiStrings[i].Desc
 193:/development/eAPI/eapidk-code/apps/EApiValidateAPI/linux/../EApiValidateAPI.c ****                         );
 194:/development/eAPI/eapidk-code/apps/EApiValidateAPI/linux/../EApiValidateAPI.c ****     }
 195:/development/eAPI/eapidk-code/apps/EApiValidateAPI/linux/../EApiValidateAPI.c ****     free(pBuffer);
 272              		.loc 1 195 0 is_stmt 1
 273 024d 488B45F0 		movq	-16(%rbp), %rax
 274 0251 4889C7   		movq	%rax, %rdi
 275 0254 E8000000 		call	free
 275      00
 196:/development/eAPI/eapidk-code/apps/EApiValidateAPI/linux/../EApiValidateAPI.c ****     return;
 276              		.loc 1 196 0
 277 0259 90       		nop
 197:/development/eAPI/eapidk-code/apps/EApiValidateAPI/linux/../EApiValidateAPI.c **** }
 278              		.loc 1 197 0
 279 025a 488B45F8 		movq	-8(%rbp), %rax
 280 025e 64483304 		xorq	%fs:40, %rax
 280      25280000 
 280      00
 281 0267 7405     		je	.L13
 282 0269 E8000000 		call	__stack_chk_fail
 282      00
 283              	.L13:
 284 026e C9       		leave
 285              		.cfi_def_cfa 7, 8
 286 026f C3       		ret
 287              		.cfi_endproc
 288              	.LFE3:
 290              		.globl	EApiValues
 291              		.section	.rodata
 292              	.LC15:
 293 0171 45417069 		.string	"EApi Spec Version"
 293      20537065 
 293      63205665 
 293      7273696F 
 293      6E00
 294              	.LC16:
 295 0183 426F6F74 		.string	"Boot Counter"
 295      20436F75 
 295      6E746572 
 295      00
 296              	.LC17:
 297 0190 52756E6E 		.string	"Running Time Meter"
 297      696E6720 
 297      54696D65 
 297      204D6574 
GAS LISTING /tmp/ccW7zoDa.s 			page 12


 297      657200
 298              	.LC18:
 299 01a3 4D616E75 		.string	"Manufacturer PNP ID"
 299      66616374 
 299      75726572 
 299      20504E50 
 299      20494400 
 300              	.LC19:
 301 01b7 506C6174 		.string	"Platform Revision"
 301      666F726D 
 301      20526576 
 301      6973696F 
 301      6E00
 302              	.LC20:
 303 01c9 43505520 		.string	"CPU Temperature"
 303      54656D70 
 303      65726174 
 303      75726500 
 304              	.LC21:
 305 01d9 43686970 		.string	"Chipset Temperature"
 305      73657420 
 305      54656D70 
 305      65726174 
 305      75726500 
 306              	.LC22:
 307 01ed 53797374 		.string	"System Temperature"
 307      656D2054 
 307      656D7065 
 307      72617475 
 307      726500
 308              	.LC23:
 309 0200 43707520 		.string	"Cpu Fan"
 309      46616E00 
 310              	.LC24:
 311 0208 53797374 		.string	"System Fan"
 311      656D2046 
 311      616E00
 312              	.LC25:
 313 0213 56434F52 		.string	"VCORE"
 313      4500
 314              	.LC26:
 315 0219 322E3556 		.string	"2.5V"
 315      00
 316              	.LC27:
 317 021e 332E3356 		.string	"3.3V"
 317      00
 318              	.LC28:
 319 0223 56424154 		.string	"VBAT"
 319      00
 320              	.LC29:
 321 0228 355600   		.string	"5V"
 322              	.LC30:
 323 022b 35565342 		.string	"5VSB"
 323      00
 324              	.LC31:
 325 0230 31325600 		.string	"12V"
 326 0234 00000000 		.align 32
GAS LISTING /tmp/ccW7zoDa.s 			page 13


 326      00000000 
 326      00000000 
 329              	EApiValues:
 330 0240 00000000 		.long	0
 331 0244 00000000 		.zero	4
 332 0248 00000000 		.quad	.LC15
 332      00000000 
 333 0250 00000000 		.quad	EApiAHCreateSVersionString
 333      00000000 
 334 0258 01000000 		.long	1
 335 025c 00000000 		.zero	4
 336 0260 00000000 		.quad	.LC16
 336      00000000 
 337 0268 00000000 		.quad	EApiAHCreateDecimalString
 337      00000000 
 338 0270 02000000 		.long	2
 339 0274 00000000 		.zero	4
 340 0278 00000000 		.quad	.LC17
 340      00000000 
 341 0280 00000000 		.quad	EApiAHCreateTimeString
 341      00000000 
 342 0288 03000000 		.long	3
 343 028c 00000000 		.zero	4
 344 0290 00000000 		.quad	.LC18
 344      00000000 
 345 0298 00000000 		.quad	EApiAHCreatePNPIDString
 345      00000000 
 346 02a0 04000000 		.long	4
 347 02a4 00000000 		.zero	4
 348 02a8 00000000 		.quad	.LC19
 348      00000000 
 349 02b0 00000000 		.quad	EApiAHCreateSVersionString
 349      00000000 
 350 02b8 00000200 		.long	131072
 351 02bc 00000000 		.zero	4
 352 02c0 00000000 		.quad	.LC20
 352      00000000 
 353 02c8 00000000 		.quad	EApiAHCreateTempString
 353      00000000 
 354 02d0 01000200 		.long	131073
 355 02d4 00000000 		.zero	4
 356 02d8 00000000 		.quad	.LC21
 356      00000000 
 357 02e0 00000000 		.quad	EApiAHCreateTempString
 357      00000000 
 358 02e8 02000200 		.long	131074
 359 02ec 00000000 		.zero	4
 360 02f0 00000000 		.quad	.LC22
 360      00000000 
 361 02f8 00000000 		.quad	EApiAHCreateTempString
 361      00000000 
 362 0300 00200200 		.long	139264
 363 0304 00000000 		.zero	4
 364 0308 00000000 		.quad	.LC23
 364      00000000 
 365 0310 00000000 		.quad	EApiAHCreateRotationsString
 365      00000000 
GAS LISTING /tmp/ccW7zoDa.s 			page 14


 366 0318 01200200 		.long	139265
 367 031c 00000000 		.zero	4
 368 0320 00000000 		.quad	.LC24
 368      00000000 
 369 0328 00000000 		.quad	EApiAHCreateRotationsString
 369      00000000 
 370 0330 04100200 		.long	135172
 371 0334 00000000 		.zero	4
 372 0338 00000000 		.quad	.LC25
 372      00000000 
 373 0340 00000000 		.quad	EApiAHCreateVoltageString
 373      00000000 
 374 0348 08100200 		.long	135176
 375 034c 00000000 		.zero	4
 376 0350 00000000 		.quad	.LC26
 376      00000000 
 377 0358 00000000 		.quad	EApiAHCreateVoltageString
 377      00000000 
 378 0360 0C100200 		.long	135180
 379 0364 00000000 		.zero	4
 380 0368 00000000 		.quad	.LC27
 380      00000000 
 381 0370 00000000 		.quad	EApiAHCreateVoltageString
 381      00000000 
 382 0378 10100200 		.long	135184
 383 037c 00000000 		.zero	4
 384 0380 00000000 		.quad	.LC28
 384      00000000 
 385 0388 00000000 		.quad	EApiAHCreateVoltageString
 385      00000000 
 386 0390 14100200 		.long	135188
 387 0394 00000000 		.zero	4
 388 0398 00000000 		.quad	.LC29
 388      00000000 
 389 03a0 00000000 		.quad	EApiAHCreateVoltageString
 389      00000000 
 390 03a8 18100200 		.long	135192
 391 03ac 00000000 		.zero	4
 392 03b0 00000000 		.quad	.LC30
 392      00000000 
 393 03b8 00000000 		.quad	EApiAHCreateVoltageString
 393      00000000 
 394 03c0 1C100200 		.long	135196
 395 03c4 00000000 		.zero	4
 396 03c8 00000000 		.quad	.LC31
 396      00000000 
 397 03d0 00000000 		.quad	EApiAHCreateVoltageString
 397      00000000 
 398              		.text
 399              		.globl	EApiValidateValuesApi
 401              	EApiValidateValuesApi:
 402              	.LFB4:
 198:/development/eAPI/eapidk-code/apps/EApiValidateAPI/linux/../EApiValidateAPI.c **** 
 199:/development/eAPI/eapidk-code/apps/EApiValidateAPI/linux/../EApiValidateAPI.c **** 
 200:/development/eAPI/eapidk-code/apps/EApiValidateAPI/linux/../EApiValidateAPI.c **** 
 201:/development/eAPI/eapidk-code/apps/EApiValidateAPI/linux/../EApiValidateAPI.c **** /*
 202:/development/eAPI/eapidk-code/apps/EApiValidateAPI/linux/../EApiValidateAPI.c ****  * Test Value Function Table
GAS LISTING /tmp/ccW7zoDa.s 			page 15


 203:/development/eAPI/eapidk-code/apps/EApiValidateAPI/linux/../EApiValidateAPI.c ****  *
 204:/development/eAPI/eapidk-code/apps/EApiValidateAPI/linux/../EApiValidateAPI.c ****  */
 205:/development/eAPI/eapidk-code/apps/EApiValidateAPI/linux/../EApiValidateAPI.c **** 
 206:/development/eAPI/eapidk-code/apps/EApiValidateAPI/linux/../EApiValidateAPI.c **** //typedef struct EApiBoardValueValidate_s{
 207:/development/eAPI/eapidk-code/apps/EApiValidateAPI/linux/../EApiValidateAPI.c **** //    void *         BufPtr      ; /* Buffer Pointer */
 208:/development/eAPI/eapidk-code/apps/EApiValidateAPI/linux/../EApiValidateAPI.c **** //    const EApiStatus_t  StatusCode1 ; /* Allowed Return Value 1 */
 209:/development/eAPI/eapidk-code/apps/EApiValidateAPI/linux/../EApiValidateAPI.c **** //    const EApiStatus_t  StatusCode2 ; /* Allowed Return Value 2 */
 210:/development/eAPI/eapidk-code/apps/EApiValidateAPI/linux/../EApiValidateAPI.c **** //    const EApiStatus_t  StatusCode3 ; /* Allowed Return Value 3 */
 211:/development/eAPI/eapidk-code/apps/EApiValidateAPI/linux/../EApiValidateAPI.c **** //}EApiBoardValueValidate_t;
 212:/development/eAPI/eapidk-code/apps/EApiValidateAPI/linux/../EApiValidateAPI.c **** //const EApiBoardValueValidate_t BoardValueValidate[]={
 213:/development/eAPI/eapidk-code/apps/EApiValidateAPI/linux/../EApiValidateAPI.c **** //    {Buffer, EAPI_STATUS_SUCCESS          , EAPI_STATUS_UNSUPPORTED       , EAPI_STATUS_UNSUPPORT
 214:/development/eAPI/eapidk-code/apps/EApiValidateAPI/linux/../EApiValidateAPI.c **** //    {NULL  , EAPI_STATUS_INVALID_PARAMETER, EAPI_STATUS_INVALID_PARAMETER , EAPI_STATUS_INVALID_P
 215:/development/eAPI/eapidk-code/apps/EApiValidateAPI/linux/../EApiValidateAPI.c **** //};
 216:/development/eAPI/eapidk-code/apps/EApiValidateAPI/linux/../EApiValidateAPI.c **** typedef struct EApiValueType_s{
 217:/development/eAPI/eapidk-code/apps/EApiValidateAPI/linux/../EApiValidateAPI.c ****     const EApiId_t  Id  ;
 218:/development/eAPI/eapidk-code/apps/EApiValidateAPI/linux/../EApiValidateAPI.c ****     const TCHAR *const   Desc;
 219:/development/eAPI/eapidk-code/apps/EApiValidateAPI/linux/../EApiValidateAPI.c ****     CreateStringFunction *const CreateString;
 220:/development/eAPI/eapidk-code/apps/EApiValidateAPI/linux/../EApiValidateAPI.c **** }EApiValueType_t;
 221:/development/eAPI/eapidk-code/apps/EApiValidateAPI/linux/../EApiValidateAPI.c **** 
 222:/development/eAPI/eapidk-code/apps/EApiValidateAPI/linux/../EApiValidateAPI.c **** //const EApiValueType_t EApiValues[]={
 223:/development/eAPI/eapidk-code/apps/EApiValidateAPI/linux/../EApiValidateAPI.c **** //    {EAPI_ID_GET_EAPI_SPEC_VERSION        , TEXT("EApi Spec Version"   ), EApiAHCreateSVersionStr
 224:/development/eAPI/eapidk-code/apps/EApiValidateAPI/linux/../EApiValidateAPI.c **** //    {EAPI_ID_BOARD_BOOT_COUNTER_VAL       , TEXT("Boot Counter"        ), EApiAHCreateDecimalStri
 225:/development/eAPI/eapidk-code/apps/EApiValidateAPI/linux/../EApiValidateAPI.c **** //    {EAPI_ID_BOARD_RUNNING_TIME_METER_VAL , TEXT("Running Time Meter"  ), EApiAHCreateTimeString 
 226:/development/eAPI/eapidk-code/apps/EApiValidateAPI/linux/../EApiValidateAPI.c **** //    {EAPI_ID_BOARD_PNPID_VAL              , TEXT("Manufacturer PNP ID" ), EApiAHCreatePNPIDString
 227:/development/eAPI/eapidk-code/apps/EApiValidateAPI/linux/../EApiValidateAPI.c **** //    {EAPI_ID_BOARD_PLATFORM_REV_VAL       , TEXT("Platform Revision"   ), EApiAHCreateSVersionStr
 228:/development/eAPI/eapidk-code/apps/EApiValidateAPI/linux/../EApiValidateAPI.c **** //    {EAPI_ID_BOARD_DRIVER_VERSION_VAL     , TEXT("Driver Version"      ), EApiAHCreateVersionStri
 229:/development/eAPI/eapidk-code/apps/EApiValidateAPI/linux/../EApiValidateAPI.c **** //    {EAPI_ID_BOARD_LIB_VERSION_VAL        , TEXT("LIB Version"         ), EApiAHCreateVersionStri
 230:/development/eAPI/eapidk-code/apps/EApiValidateAPI/linux/../EApiValidateAPI.c **** //    /* HW Monitoring  */
 231:/development/eAPI/eapidk-code/apps/EApiValidateAPI/linux/../EApiValidateAPI.c **** //    /* Temperature  */
 232:/development/eAPI/eapidk-code/apps/EApiValidateAPI/linux/../EApiValidateAPI.c **** //    {EAPI_ID_HWMON_CPU_TEMP               , TEXT("CPU Temperature"     ), EApiAHCreateTempString 
 233:/development/eAPI/eapidk-code/apps/EApiValidateAPI/linux/../EApiValidateAPI.c **** //    {EAPI_ID_HWMON_CHIPSET_TEMP           , TEXT("Chipset Temperature" ), EApiAHCreateTempString 
 234:/development/eAPI/eapidk-code/apps/EApiValidateAPI/linux/../EApiValidateAPI.c **** //    {EAPI_ID_HWMON_SYSTEM_TEMP            , TEXT("System Temperature"  ), EApiAHCreateTempString 
 235:/development/eAPI/eapidk-code/apps/EApiValidateAPI/linux/../EApiValidateAPI.c **** //    /* Voltage */
 236:/development/eAPI/eapidk-code/apps/EApiValidateAPI/linux/../EApiValidateAPI.c **** //    {EAPI_ID_HWMON_VOLTAGE_VCORE          , TEXT("VCORE"               ), EApiAHCreateVoltageStri
 237:/development/eAPI/eapidk-code/apps/EApiValidateAPI/linux/../EApiValidateAPI.c **** //    {EAPI_ID_HWMON_VOLTAGE_2V5            , TEXT("2.5V"                ), EApiAHCreateVoltageStri
 238:/development/eAPI/eapidk-code/apps/EApiValidateAPI/linux/../EApiValidateAPI.c **** //    {EAPI_ID_HWMON_VOLTAGE_3V3            , TEXT("3.3V"                ), EApiAHCreateVoltageStri
 239:/development/eAPI/eapidk-code/apps/EApiValidateAPI/linux/../EApiValidateAPI.c **** //    {EAPI_ID_HWMON_VOLTAGE_VBAT           , TEXT("VBAT"                ), EApiAHCreateVoltageStri
 240:/development/eAPI/eapidk-code/apps/EApiValidateAPI/linux/../EApiValidateAPI.c **** //    {EAPI_ID_HWMON_VOLTAGE_5V             , TEXT("5V"                  ), EApiAHCreateVoltageStri
 241:/development/eAPI/eapidk-code/apps/EApiValidateAPI/linux/../EApiValidateAPI.c **** //    {EAPI_ID_HWMON_VOLTAGE_5VSB           , TEXT("5VSB"                ), EApiAHCreateVoltageStri
 242:/development/eAPI/eapidk-code/apps/EApiValidateAPI/linux/../EApiValidateAPI.c **** //    {EAPI_ID_HWMON_VOLTAGE_12V            , TEXT("12V"                 ), EApiAHCreateVoltageStri
 243:/development/eAPI/eapidk-code/apps/EApiValidateAPI/linux/../EApiValidateAPI.c **** //    /* Fan Rotations */
 244:/development/eAPI/eapidk-code/apps/EApiValidateAPI/linux/../EApiValidateAPI.c **** //    {EAPI_ID_HWMON_FAN_CPU                , TEXT("Cpu Fan"             ), EApiAHCreateRotationsSt
 245:/development/eAPI/eapidk-code/apps/EApiValidateAPI/linux/../EApiValidateAPI.c **** //    {EAPI_ID_HWMON_FAN_SYSTEM             , TEXT("System Fan"          ), EApiAHCreateRotationsSt
 246:/development/eAPI/eapidk-code/apps/EApiValidateAPI/linux/../EApiValidateAPI.c **** //};
 247:/development/eAPI/eapidk-code/apps/EApiValidateAPI/linux/../EApiValidateAPI.c **** 
 248:/development/eAPI/eapidk-code/apps/EApiValidateAPI/linux/../EApiValidateAPI.c **** 
 249:/development/eAPI/eapidk-code/apps/EApiValidateAPI/linux/../EApiValidateAPI.c **** 
 250:/development/eAPI/eapidk-code/apps/EApiValidateAPI/linux/../EApiValidateAPI.c **** const EApiValueType_t EApiValues[]={
 251:/development/eAPI/eapidk-code/apps/EApiValidateAPI/linux/../EApiValidateAPI.c ****     {EAPI_ID_GET_EAPI_SPEC_VERSION        , TEXT("EApi Spec Version"   ), EApiAHCreateSVersionStrin
 252:/development/eAPI/eapidk-code/apps/EApiValidateAPI/linux/../EApiValidateAPI.c ****     {EAPI_ID_BOARD_BOOT_COUNTER_VAL       , TEXT("Boot Counter"        ), EApiAHCreateDecimalString
 253:/development/eAPI/eapidk-code/apps/EApiValidateAPI/linux/../EApiValidateAPI.c ****     {EAPI_ID_BOARD_RUNNING_TIME_METER_VAL , TEXT("Running Time Meter"  ), EApiAHCreateTimeString   
 254:/development/eAPI/eapidk-code/apps/EApiValidateAPI/linux/../EApiValidateAPI.c ****     {EAPI_ID_BOARD_PNPID_VAL              , TEXT("Manufacturer PNP ID" ), EApiAHCreatePNPIDString  
 255:/development/eAPI/eapidk-code/apps/EApiValidateAPI/linux/../EApiValidateAPI.c ****     {EAPI_ID_BOARD_PLATFORM_REV_VAL       , TEXT("Platform Revision"   ), EApiAHCreateSVersionStrin
 256:/development/eAPI/eapidk-code/apps/EApiValidateAPI/linux/../EApiValidateAPI.c ****     /* HW Monitoring  */
 257:/development/eAPI/eapidk-code/apps/EApiValidateAPI/linux/../EApiValidateAPI.c ****     /* Temperature  */
 258:/development/eAPI/eapidk-code/apps/EApiValidateAPI/linux/../EApiValidateAPI.c ****     {EAPI_ID_HWMON_CPU_TEMP               , TEXT("CPU Temperature"     ), EApiAHCreateTempString   
 259:/development/eAPI/eapidk-code/apps/EApiValidateAPI/linux/../EApiValidateAPI.c ****     {EAPI_ID_HWMON_CHIPSET_TEMP           , TEXT("Chipset Temperature" ), EApiAHCreateTempString   
GAS LISTING /tmp/ccW7zoDa.s 			page 16


 260:/development/eAPI/eapidk-code/apps/EApiValidateAPI/linux/../EApiValidateAPI.c ****     {EAPI_ID_HWMON_SYSTEM_TEMP            , TEXT("System Temperature"  ), EApiAHCreateTempString   
 261:/development/eAPI/eapidk-code/apps/EApiValidateAPI/linux/../EApiValidateAPI.c ****     /* Fan Rotations */
 262:/development/eAPI/eapidk-code/apps/EApiValidateAPI/linux/../EApiValidateAPI.c ****     {EAPI_ID_HWMON_FAN_CPU                , TEXT("Cpu Fan"             ), EApiAHCreateRotationsStri
 263:/development/eAPI/eapidk-code/apps/EApiValidateAPI/linux/../EApiValidateAPI.c ****     {EAPI_ID_HWMON_FAN_SYSTEM             , TEXT("System Fan"          ), EApiAHCreateRotationsStri
 264:/development/eAPI/eapidk-code/apps/EApiValidateAPI/linux/../EApiValidateAPI.c ****     {EAPI_ID_HWMON_VOLTAGE_VCORE          , TEXT("VCORE"               ), EApiAHCreateVoltageString
 265:/development/eAPI/eapidk-code/apps/EApiValidateAPI/linux/../EApiValidateAPI.c ****     {EAPI_ID_HWMON_VOLTAGE_2V5            , TEXT("2.5V"                ), EApiAHCreateVoltageString
 266:/development/eAPI/eapidk-code/apps/EApiValidateAPI/linux/../EApiValidateAPI.c ****     {EAPI_ID_HWMON_VOLTAGE_3V3            , TEXT("3.3V"                ), EApiAHCreateVoltageString
 267:/development/eAPI/eapidk-code/apps/EApiValidateAPI/linux/../EApiValidateAPI.c ****     {EAPI_ID_HWMON_VOLTAGE_VBAT           , TEXT("VBAT"                ), EApiAHCreateVoltageString
 268:/development/eAPI/eapidk-code/apps/EApiValidateAPI/linux/../EApiValidateAPI.c ****     {EAPI_ID_HWMON_VOLTAGE_5V             , TEXT("5V"                  ), EApiAHCreateVoltageString
 269:/development/eAPI/eapidk-code/apps/EApiValidateAPI/linux/../EApiValidateAPI.c ****     {EAPI_ID_HWMON_VOLTAGE_5VSB           , TEXT("5VSB"                ), EApiAHCreateVoltageString
 270:/development/eAPI/eapidk-code/apps/EApiValidateAPI/linux/../EApiValidateAPI.c ****     {EAPI_ID_HWMON_VOLTAGE_12V            , TEXT("12V"                 ), EApiAHCreateVoltageString
 271:/development/eAPI/eapidk-code/apps/EApiValidateAPI/linux/../EApiValidateAPI.c **** };
 272:/development/eAPI/eapidk-code/apps/EApiValidateAPI/linux/../EApiValidateAPI.c **** 
 273:/development/eAPI/eapidk-code/apps/EApiValidateAPI/linux/../EApiValidateAPI.c **** void EApiValidateValuesApi (void)
 274:/development/eAPI/eapidk-code/apps/EApiValidateAPI/linux/../EApiValidateAPI.c **** {
 403              		.loc 1 274 0
 404              		.cfi_startproc
 405 0270 55       		pushq	%rbp
 406              		.cfi_def_cfa_offset 16
 407              		.cfi_offset 6, -16
 408 0271 4889E5   		movq	%rsp, %rbp
 409              		.cfi_def_cfa_register 6
 410 0274 4881EC20 		subq	$1056, %rsp
 410      040000
 411              		.loc 1 274 0
 412 027b 64488B04 		movq	%fs:40, %rax
 412      25280000 
 412      00
 413 0284 488945F8 		movq	%rax, -8(%rbp)
 414 0288 31C0     		xorl	%eax, %eax
 275:/development/eAPI/eapidk-code/apps/EApiValidateAPI/linux/../EApiValidateAPI.c **** 
 276:/development/eAPI/eapidk-code/apps/EApiValidateAPI/linux/../EApiValidateAPI.c ****     EApiStatus_t StatusCode;
 277:/development/eAPI/eapidk-code/apps/EApiValidateAPI/linux/../EApiValidateAPI.c ****     uint32_t Value;
 278:/development/eAPI/eapidk-code/apps/EApiValidateAPI/linux/../EApiValidateAPI.c **** unsigned i;//,i2;
 279:/development/eAPI/eapidk-code/apps/EApiValidateAPI/linux/../EApiValidateAPI.c **** 
 280:/development/eAPI/eapidk-code/apps/EApiValidateAPI/linux/../EApiValidateAPI.c **** 
 281:/development/eAPI/eapidk-code/apps/EApiValidateAPI/linux/../EApiValidateAPI.c **** TCHAR TmpStrBuf[1024];
 282:/development/eAPI/eapidk-code/apps/EApiValidateAPI/linux/../EApiValidateAPI.c **** printf("\n");
 415              		.loc 1 282 0
 416 028a BF0A0000 		movl	$10, %edi
 416      00
 417 028f E8000000 		call	putchar
 417      00
 283:/development/eAPI/eapidk-code/apps/EApiValidateAPI/linux/../EApiValidateAPI.c **** 
 284:/development/eAPI/eapidk-code/apps/EApiValidateAPI/linux/../EApiValidateAPI.c ****     for(i=0;i<ARRAY_SIZE(EApiValues);i++){
 418              		.loc 1 284 0
 419 0294 C785E8FB 		movl	$0, -1048(%rbp)
 419      FFFF0000 
 419      0000
 420 029e E9FC0000 		jmp	.L15
 420      00
 421              	.L18:
 285:/development/eAPI/eapidk-code/apps/EApiValidateAPI/linux/../EApiValidateAPI.c ****         if((StatusCode=EApiBoardGetValue(EApiValues[i].Id, &Value))==EAPI_STATUS_SUCCESS)
 422              		.loc 1 285 0
 423 02a3 8B95E8FB 		movl	-1048(%rbp), %edx
 423      FFFF
 424 02a9 4889D0   		movq	%rdx, %rax
GAS LISTING /tmp/ccW7zoDa.s 			page 17


 425 02ac 4801C0   		addq	%rax, %rax
 426 02af 4801D0   		addq	%rdx, %rax
 427 02b2 48C1E003 		salq	$3, %rax
 428 02b6 48050000 		addq	$EApiValues, %rax
 428      0000
 429 02bc 8B00     		movl	(%rax), %eax
 430 02be 488D95E4 		leaq	-1052(%rbp), %rdx
 430      FBFFFF
 431 02c5 4889D6   		movq	%rdx, %rsi
 432 02c8 89C7     		movl	%eax, %edi
 433 02ca E8000000 		call	EApiBoardGetValue
 433      00
 434 02cf 8985ECFB 		movl	%eax, -1044(%rbp)
 434      FFFF
 435 02d5 83BDECFB 		cmpl	$0, -1044(%rbp)
 435      FFFF00
 436 02dc 7569     		jne	.L16
 286:/development/eAPI/eapidk-code/apps/EApiValidateAPI/linux/../EApiValidateAPI.c ****         {
 287:/development/eAPI/eapidk-code/apps/EApiValidateAPI/linux/../EApiValidateAPI.c ****             EApiValues[i].CreateString(Value, TmpStrBuf, ARRAY_SIZE(TmpStrBuf));
 437              		.loc 1 287 0
 438 02de 8B95E8FB 		movl	-1048(%rbp), %edx
 438      FFFF
 439 02e4 4889D0   		movq	%rdx, %rax
 440 02e7 4801C0   		addq	%rax, %rax
 441 02ea 4801D0   		addq	%rdx, %rax
 442 02ed 48C1E003 		salq	$3, %rax
 443 02f1 48050000 		addq	$EApiValues+16, %rax
 443      0000
 444 02f7 488B00   		movq	(%rax), %rax
 445 02fa 8B8DE4FB 		movl	-1052(%rbp), %ecx
 445      FFFF
 446 0300 488DB5F0 		leaq	-1040(%rbp), %rsi
 446      FBFFFF
 447 0307 BA000400 		movl	$1024, %edx
 447      00
 448 030c 89CF     		movl	%ecx, %edi
 449 030e FFD0     		call	*%rax
 288:/development/eAPI/eapidk-code/apps/EApiValidateAPI/linux/../EApiValidateAPI.c ****             EAPI_MSG_OUT(TEXT("%-30s : %s\n"), EApiValues[i].Desc, TmpStrBuf);
 450              		.loc 1 288 0
 451 0310 8B95E8FB 		movl	-1048(%rbp), %edx
 451      FFFF
 452 0316 4889D0   		movq	%rdx, %rax
 453 0319 4801C0   		addq	%rax, %rax
 454 031c 4801D0   		addq	%rdx, %rax
 455 031f 48C1E003 		salq	$3, %rax
 456 0323 48050000 		addq	$EApiValues+8, %rax
 456      0000
 457 0329 488B00   		movq	(%rax), %rax
 458 032c 488D95F0 		leaq	-1040(%rbp), %rdx
 458      FBFFFF
 459 0333 4889C6   		movq	%rax, %rsi
 460 0336 BF000000 		movl	$.LC13, %edi
 460      00
 461 033b B8000000 		movl	$0, %eax
 461      00
 462 0340 E8000000 		call	printf
 462      00
GAS LISTING /tmp/ccW7zoDa.s 			page 18


 463 0345 EB51     		jmp	.L17
 464              	.L16:
 289:/development/eAPI/eapidk-code/apps/EApiValidateAPI/linux/../EApiValidateAPI.c ****         }else{
 290:/development/eAPI/eapidk-code/apps/EApiValidateAPI/linux/../EApiValidateAPI.c ****             EApiAHCreateErrorString(StatusCode, TmpStrBuf, ARRAY_SIZE(TmpStrBuf));
 465              		.loc 1 290 0
 466 0347 488D8DF0 		leaq	-1040(%rbp), %rcx
 466      FBFFFF
 467 034e 8B85ECFB 		movl	-1044(%rbp), %eax
 467      FFFF
 468 0354 BA000400 		movl	$1024, %edx
 468      00
 469 0359 4889CE   		movq	%rcx, %rsi
 470 035c 89C7     		movl	%eax, %edi
 471 035e E8000000 		call	EApiAHCreateErrorString
 471      00
 291:/development/eAPI/eapidk-code/apps/EApiValidateAPI/linux/../EApiValidateAPI.c ****             EAPI_MSG_OUT(TEXT("%-30s : %s\n"), EApiValues[i].Desc, TmpStrBuf);
 472              		.loc 1 291 0
 473 0363 8B95E8FB 		movl	-1048(%rbp), %edx
 473      FFFF
 474 0369 4889D0   		movq	%rdx, %rax
 475 036c 4801C0   		addq	%rax, %rax
 476 036f 4801D0   		addq	%rdx, %rax
 477 0372 48C1E003 		salq	$3, %rax
 478 0376 48050000 		addq	$EApiValues+8, %rax
 478      0000
 479 037c 488B00   		movq	(%rax), %rax
 480 037f 488D95F0 		leaq	-1040(%rbp), %rdx
 480      FBFFFF
 481 0386 4889C6   		movq	%rax, %rsi
 482 0389 BF000000 		movl	$.LC13, %edi
 482      00
 483 038e B8000000 		movl	$0, %eax
 483      00
 484 0393 E8000000 		call	printf
 484      00
 485              	.L17:
 284:/development/eAPI/eapidk-code/apps/EApiValidateAPI/linux/../EApiValidateAPI.c ****         if((StatusCode=EApiBoardGetValue(EApiValues[i].Id, &Value))==EAPI_STATUS_SUCCESS)
 486              		.loc 1 284 0 discriminator 2
 487 0398 8385E8FB 		addl	$1, -1048(%rbp)
 487      FFFF01
 488              	.L15:
 284:/development/eAPI/eapidk-code/apps/EApiValidateAPI/linux/../EApiValidateAPI.c ****         if((StatusCode=EApiBoardGetValue(EApiValues[i].Id, &Value))==EAPI_STATUS_SUCCESS)
 489              		.loc 1 284 0 is_stmt 0 discriminator 1
 490 039f 83BDE8FB 		cmpl	$16, -1048(%rbp)
 490      FFFF10
 491 03a6 0F86F7FE 		jbe	.L18
 491      FFFF
 292:/development/eAPI/eapidk-code/apps/EApiValidateAPI/linux/../EApiValidateAPI.c ****         }
 293:/development/eAPI/eapidk-code/apps/EApiValidateAPI/linux/../EApiValidateAPI.c ****     }
 294:/development/eAPI/eapidk-code/apps/EApiValidateAPI/linux/../EApiValidateAPI.c ****     /*
 295:/development/eAPI/eapidk-code/apps/EApiValidateAPI/linux/../EApiValidateAPI.c ****    * More Rigorous Interfaces Verification
 296:/development/eAPI/eapidk-code/apps/EApiValidateAPI/linux/../EApiValidateAPI.c ****    */
 297:/development/eAPI/eapidk-code/apps/EApiValidateAPI/linux/../EApiValidateAPI.c **** //    for(i=0;i<10;i++) /* Iterated thought Ids */
 298:/development/eAPI/eapidk-code/apps/EApiValidateAPI/linux/../EApiValidateAPI.c **** //    {
 299:/development/eAPI/eapidk-code/apps/EApiValidateAPI/linux/../EApiValidateAPI.c **** //        for(i2=0;i2<ARRAY_SIZE(BoardValueValidate);i2++) /* Iterated thought test cases */
 300:/development/eAPI/eapidk-code/apps/EApiValidateAPI/linux/../EApiValidateAPI.c **** //        {
 301:/development/eAPI/eapidk-code/apps/EApiValidateAPI/linux/../EApiValidateAPI.c **** //            StatusCode=EApiBoardGetValue(i, (uint32_t *)BoardValueValidate[i2].BufPtr);
GAS LISTING /tmp/ccW7zoDa.s 			page 19


 302:/development/eAPI/eapidk-code/apps/EApiValidateAPI/linux/../EApiValidateAPI.c **** //            EAPI_LOG_RETURN_VALUE(EApiBoardGetValue, BoardValueValidate);
 303:/development/eAPI/eapidk-code/apps/EApiValidateAPI/linux/../EApiValidateAPI.c **** //        }
 304:/development/eAPI/eapidk-code/apps/EApiValidateAPI/linux/../EApiValidateAPI.c **** //    }
 305:/development/eAPI/eapidk-code/apps/EApiValidateAPI/linux/../EApiValidateAPI.c ****     return ;
 492              		.loc 1 305 0 is_stmt 1
 493 03ac 90       		nop
 306:/development/eAPI/eapidk-code/apps/EApiValidateAPI/linux/../EApiValidateAPI.c **** }
 494              		.loc 1 306 0
 495 03ad 488B45F8 		movq	-8(%rbp), %rax
 496 03b1 64483304 		xorq	%fs:40, %rax
 496      25280000 
 496      00
 497 03ba 7405     		je	.L20
 498 03bc E8000000 		call	__stack_chk_fail
 498      00
 499              	.L20:
 500 03c1 C9       		leave
 501              		.cfi_def_cfa 7, 8
 502 03c2 C3       		ret
 503              		.cfi_endproc
 504              	.LFE4:
 506              		.globl	EApiI2CLLValidate
 507              		.section	.rodata
 508 03d8 00000000 		.align 32
 508      00000000 
 511              	EApiI2CLLValidate:
 512 03e0 F8       		.byte	-8
 513 03e1 00000000 		.zero	7
 513      000000
 514 03e8 00000000 		.quad	0
 514      00000000 
 515 03f0 00000000 		.long	0
 516 03f4 00000000 		.zero	4
 517 03f8 00000000 		.quad	0
 517      00000000 
 518 0400 00000000 		.long	0
 519 0404 00000000 		.long	0
 520 0408 FFFEFFFF 		.long	-257
 521 040c FFFEFFFF 		.long	-257
 522 0410 FFFEFFFF 		.long	-257
 523 0414 00000000 		.zero	4
 524 0418 F8       		.byte	-8
 525 0419 00000000 		.zero	7
 525      000000
 526 0420 00000000 		.quad	0
 526      00000000 
 527 0428 0A000000 		.long	10
 528 042c 00000000 		.zero	4
 529 0430 00000000 		.quad	0
 529      00000000 
 530 0438 00000000 		.long	0
 531 043c 00000000 		.long	0
 532 0440 FFFEFFFF 		.long	-257
 533 0444 FFFEFFFF 		.long	-257
 534 0448 FFFEFFFF 		.long	-257
 535 044c 00000000 		.zero	4
 536 0450 F8       		.byte	-8
GAS LISTING /tmp/ccW7zoDa.s 			page 20


 537 0451 00000000 		.zero	7
 537      000000
 538 0458 00000000 		.quad	0
 538      00000000 
 539 0460 00000000 		.long	0
 540 0464 00000000 		.zero	4
 541 0468 00000000 		.quad	0
 541      00000000 
 542 0470 0A000000 		.long	10
 543 0474 00000000 		.long	0
 544 0478 FFFEFFFF 		.long	-257
 545 047c FFFEFFFF 		.long	-257
 546 0480 FFFEFFFF 		.long	-257
 547 0484 00000000 		.zero	4
 548 0488 F8       		.byte	-8
 549 0489 00000000 		.zero	7
 549      000000
 550 0490 00000000 		.quad	0
 550      00000000 
 551 0498 00000000 		.long	0
 552 049c 00000000 		.zero	4
 553 04a0 00000000 		.quad	0
 553      00000000 
 554 04a8 00000000 		.long	0
 555 04ac 0A000000 		.long	10
 556 04b0 FFFEFFFF 		.long	-257
 557 04b4 FFFEFFFF 		.long	-257
 558 04b8 FFFEFFFF 		.long	-257
 559 04bc 00000000 		.zero	4
 560 04c0 F8       		.byte	-8
 561 04c1 00000000 		.zero	7
 561      000000
 562 04c8 00000000 		.quad	0
 562      00000000 
 563 04d0 00000000 		.long	0
 564 04d4 00000000 		.zero	4
 565 04d8 00000000 		.quad	0
 565      00000000 
 566 04e0 00000000 		.long	0
 567 04e4 0A000000 		.long	10
 568 04e8 FFFEFFFF 		.long	-257
 569 04ec FFFEFFFF 		.long	-257
 570 04f0 FFFEFFFF 		.long	-257
 571 04f4 00000000 		.zero	4
 572 04f8 F8       		.byte	-8
 573 04f9 00000000 		.zero	7
 573      000000
 574 0500 00000000 		.quad	0
 574      00000000 
 575 0508 00000000 		.long	0
 576 050c 00000000 		.zero	4
 577 0510 00000000 		.quad	0
 577      00000000 
 578 0518 0A000000 		.long	10
 579 051c 14000000 		.long	20
 580 0520 FFFEFFFF 		.long	-257
 581 0524 FFF9FFFF 		.long	-1537
GAS LISTING /tmp/ccW7zoDa.s 			page 21


 582 0528 FFF9FFFF 		.long	-1537
 583 052c 00000000 		.zero	4
 584 0530 F8       		.byte	-8
 585 0531 00000000 		.zero	7
 585      000000
 586 0538 00000000 		.quad	0
 586      00000000 
 587 0540 00000000 		.long	0
 588 0544 00000000 		.zero	4
 589 0548 00000000 		.quad	Buffer
 589      00000000 
 590 0550 0A000000 		.long	10
 591 0554 14000000 		.long	20
 592 0558 FFFBFFFF 		.long	-1025
 593 055c FFF9FFFF 		.long	-1537
 594 0560 FFFCFFFF 		.long	-769
 595 0564 00000000 		.zero	4
 596 0568 F8       		.byte	-8
 597 0569 00000000 		.zero	7
 597      000000
 598 0570 00000000 		.quad	Buffer
 598      00000000 
 599 0578 00000000 		.long	0
 600 057c 00000000 		.zero	4
 601 0580 00000000 		.quad	0
 601      00000000 
 602 0588 00000000 		.long	0
 603 058c 00000000 		.long	0
 604 0590 FFFEFFFF 		.long	-257
 605 0594 FFFEFFFF 		.long	-257
 606 0598 FFFEFFFF 		.long	-257
 607 059c 00000000 		.zero	4
 608 05a0 F8       		.byte	-8
 609 05a1 00000000 		.zero	7
 609      000000
 610 05a8 00000000 		.quad	Buffer
 610      00000000 
 611 05b0 0A000000 		.long	10
 612 05b4 00000000 		.zero	4
 613 05b8 00000000 		.quad	0
 613      00000000 
 614 05c0 00000000 		.long	0
 615 05c4 00000000 		.long	0
 616 05c8 FFFBFFFF 		.long	-1025
 617 05cc FFFCFFFF 		.long	-769
 618 05d0 FFFCFFFF 		.long	-769
 619 05d4 00000000 		.zero	4
 620 05d8 F8       		.byte	-8
 621 05d9 00000000 		.zero	7
 621      000000
 622 05e0 00000000 		.quad	0
 622      00000000 
 623 05e8 00000000 		.long	0
 624 05ec 00000000 		.zero	4
 625 05f0 00000000 		.quad	Buffer
 625      00000000 
 626 05f8 00040000 		.long	1024
GAS LISTING /tmp/ccW7zoDa.s 			page 22


 627 05fc 0A000000 		.long	10
 628 0600 FFFBFFFF 		.long	-1025
 629 0604 FFFCFFFF 		.long	-769
 630 0608 FFFCFFFF 		.long	-769
 631 060c 00000000 		.zero	4
 632              		.globl	EApiI2CHLReadValidate
 633 0610 00000000 		.align 32
 633      00000000 
 633      00000000 
 633      00000000 
 636              	EApiI2CHLReadValidate:
 637 0620 F8000000 		.long	248
 638 0624 00000000 		.long	0
 639 0628 00000000 		.quad	Buffer
 639      00000000 
 640 0630 00040000 		.long	1024
 641 0634 0A000000 		.long	10
 642 0638 FFFBFFFF 		.long	-1025
 643 063c FFFCFFFF 		.long	-769
 644 0640 FFFBFFFF 		.long	-1025
 645 0644 00000000 		.zero	4
 646 0648 F8000000 		.long	248
 647 064c 00000000 		.long	0
 648 0650 00000000 		.quad	0
 648      00000000 
 649 0658 00040000 		.long	1024
 650 065c 0A000000 		.long	10
 651 0660 FFFEFFFF 		.long	-257
 652 0664 FFFEFFFF 		.long	-257
 653 0668 FFFEFFFF 		.long	-257
 654 066c 00000000 		.zero	4
 655 0670 F8000000 		.long	248
 656 0674 00000000 		.long	0
 657 0678 00000000 		.quad	Buffer
 657      00000000 
 658 0680 00000000 		.long	0
 659 0684 14000000 		.long	20
 660 0688 FFFEFFFF 		.long	-257
 661 068c FFFEFFFF 		.long	-257
 662 0690 FFFEFFFF 		.long	-257
 663 0694 00000000 		.zero	4
 664 0698 F8000000 		.long	248
 665 069c 00000000 		.long	0
 666 06a0 00000000 		.quad	Buffer
 666      00000000 
 667 06a8 00040000 		.long	1024
 668 06ac 00000000 		.long	0
 669 06b0 FFFEFFFF 		.long	-257
 670 06b4 FFFEFFFF 		.long	-257
 671 06b8 FFFEFFFF 		.long	-257
 672 06bc 00000000 		.zero	4
 673 06c0 F8000000 		.long	248
 674 06c4 00000000 		.long	0
 675 06c8 00000000 		.quad	Buffer
 675      00000000 
 676 06d0 10000000 		.long	16
 677 06d4 14000000 		.long	20
GAS LISTING /tmp/ccW7zoDa.s 			page 23


 678 06d8 FFFCFFFF 		.long	-769
 679 06dc FFF9FFFF 		.long	-1537
 680 06e0 FFFBFFFF 		.long	-1025
 681 06e4 00000000 		.zero	4
 682 06e8 F8000000 		.long	248
 683 06ec 00000000 		.long	0
 684 06f0 00000000 		.quad	Buffer
 684      00000000 
 685 06f8 00040000 		.long	1024
 686 06fc 0A000000 		.long	10
 687 0700 FFFBFFFF 		.long	-1025
 688 0704 FFFCFFFF 		.long	-769
 689 0708 FFFBFFFF 		.long	-1025
 690 070c 00000000 		.zero	4
 691              		.globl	EApiI2CHLWriteValidate
 692 0710 00000000 		.align 32
 692      00000000 
 692      00000000 
 692      00000000 
 695              	EApiI2CHLWriteValidate:
 696 0720 F8000000 		.long	248
 697 0724 00000000 		.long	0
 698 0728 00000000 		.quad	Buffer
 698      00000000 
 699 0730 00000000 		.long	0
 700 0734 0A000000 		.long	10
 701 0738 FFFBFFFF 		.long	-1025
 702 073c FFFCFFFF 		.long	-769
 703 0740 FFFBFFFF 		.long	-1025
 704 0744 00000000 		.zero	4
 705 0748 F8000000 		.long	248
 706 074c 00000000 		.long	0
 707 0750 00000000 		.quad	0
 707      00000000 
 708 0758 00000000 		.long	0
 709 075c 0A000000 		.long	10
 710 0760 FFFEFFFF 		.long	-257
 711 0764 FFFEFFFF 		.long	-257
 712 0768 FFFEFFFF 		.long	-257
 713 076c 00000000 		.zero	4
 714 0770 F8000000 		.long	248
 715 0774 00000000 		.long	0
 716 0778 00000000 		.quad	Buffer
 716      00000000 
 717 0780 00000000 		.long	0
 718 0784 00000000 		.long	0
 719 0788 FFFEFFFF 		.long	-257
 720 078c FFFEFFFF 		.long	-257
 721 0790 FFFEFFFF 		.long	-257
 722 0794 00000000 		.zero	4
 723              		.globl	I2CMaxClk
 724              		.bss
 725              		.align 4
 728              	I2CMaxClk:
 729 0400 00000000 		.zero	4
 730              		.globl	EApiI2CInterfaceValidate
 731              		.section	.rodata
GAS LISTING /tmp/ccW7zoDa.s 			page 24


 732 0798 00000000 		.align 32
 732      00000000 
 735              	EApiI2CInterfaceValidate:
 736 07a0 00000000 		.quad	I2CMaxClk
 736      00000000 
 737 07a8 00000000 		.long	0
 738 07ac FFFCFFFF 		.long	-769
 739 07b0 FFFCFFFF 		.long	-769
 740 07b4 00000000 		.zero	4
 741 07b8 00000000 		.quad	0
 741      00000000 
 742 07c0 FFFEFFFF 		.long	-257
 743 07c4 FFFEFFFF 		.long	-257
 744 07c8 FFFEFFFF 		.long	-257
 745 07cc 00000000 		.zero	4
 746              		.globl	I2CDevices
 747 07d0 00000000 		.align 32
 747      00000000 
 747      00000000 
 747      00000000 
 750              	I2CDevices:
 755 07e8 00010000 		.long	256
 760 07f4 00010000 		.long	256
 765 0800 00010000 		.long	256
 770 080c 00010000 		.long	256
 775 0818 00010000 		.long	256
 776              		.globl	EApiI2CBuses
 777              	.LC32:
 778 081c 45787465 		.string	"External I2C"
 778      726E616C 
 778      20493243 
 778      00
 779              	.LC33:
 780 0829 4C564453 		.string	"LVDS 1 I2C/DDC"
 780      20312049 
 780      32432F44 
 780      444300
 781              	.LC34:
 782 0838 4C564453 		.string	"LVDS 2 I2C/DDC"
 782      20322049 
 782      32432F44 
 782      444300
 783              	.LC35:
 784 0847 556E7375 		.string	"Unsupported"
 784      70706F72 
 784      74656400 
 785 0853 00000000 		.align 32
 785      00000000 
 785      00000000 
 785      00
 788              	EApiI2CBuses:
 789 0860 00000000 		.long	0
 790 0864 00000000 		.zero	4
 791 0868 00000000 		.quad	.LC32
 791      00000000 
 792 0870 01000000 		.long	1
 793 0874 00000000 		.zero	4
GAS LISTING /tmp/ccW7zoDa.s 			page 25


 794 0878 00000000 		.quad	.LC33
 794      00000000 
 795 0880 02000000 		.long	2
 796 0884 00000000 		.zero	4
 797 0888 00000000 		.quad	.LC34
 797      00000000 
 798 0890 000F0000 		.long	3840
 799 0894 00000000 		.zero	4
 800 0898 00000000 		.quad	.LC35
 800      00000000 
 801              	.LC36:
 802 08a0 25303258 		.string	"%02X"
 802      00
 803              		.text
 804              		.globl	printHex
 806              	printHex:
 807              	.LFB5:
 307:/development/eAPI/eapidk-code/apps/EApiValidateAPI/linux/../EApiValidateAPI.c **** 
 308:/development/eAPI/eapidk-code/apps/EApiValidateAPI/linux/../EApiValidateAPI.c **** /*
 309:/development/eAPI/eapidk-code/apps/EApiValidateAPI/linux/../EApiValidateAPI.c ****  * Test I2C Function
 310:/development/eAPI/eapidk-code/apps/EApiValidateAPI/linux/../EApiValidateAPI.c ****  *
 311:/development/eAPI/eapidk-code/apps/EApiValidateAPI/linux/../EApiValidateAPI.c ****  */
 312:/development/eAPI/eapidk-code/apps/EApiValidateAPI/linux/../EApiValidateAPI.c **** 
 313:/development/eAPI/eapidk-code/apps/EApiValidateAPI/linux/../EApiValidateAPI.c **** typedef struct EApiI2CLLInterfaceValidate_s{
 314:/development/eAPI/eapidk-code/apps/EApiValidateAPI/linux/../EApiValidateAPI.c ****     const uint8_t   Address     ; /* Address */
 315:/development/eAPI/eapidk-code/apps/EApiValidateAPI/linux/../EApiValidateAPI.c ****     void *    WBufPtr     ; /* Write Buffer Pointer */
 316:/development/eAPI/eapidk-code/apps/EApiValidateAPI/linux/../EApiValidateAPI.c ****     const uint32_t  WByteCnt    ; /* Write Byte Count  */
 317:/development/eAPI/eapidk-code/apps/EApiValidateAPI/linux/../EApiValidateAPI.c ****     void *    RBufPtr     ; /* Read  Buffer Pointer */
 318:/development/eAPI/eapidk-code/apps/EApiValidateAPI/linux/../EApiValidateAPI.c ****     const uint32_t  RBufPtrLen  ; /* Read  Buffer Length */
 319:/development/eAPI/eapidk-code/apps/EApiValidateAPI/linux/../EApiValidateAPI.c ****     const uint32_t  RByteCnt    ; /* Read  Byte Count  */
 320:/development/eAPI/eapidk-code/apps/EApiValidateAPI/linux/../EApiValidateAPI.c ****     const EApiStatus_t  StatusCode1 ; /* Allowed Return Value 1 */
 321:/development/eAPI/eapidk-code/apps/EApiValidateAPI/linux/../EApiValidateAPI.c ****     const EApiStatus_t  StatusCode2 ; /* Allowed Return Value 2 */
 322:/development/eAPI/eapidk-code/apps/EApiValidateAPI/linux/../EApiValidateAPI.c ****     const EApiStatus_t  StatusCode3 ; /* Allowed Return Value 3 */
 323:/development/eAPI/eapidk-code/apps/EApiValidateAPI/linux/../EApiValidateAPI.c **** }EApiI2CLLInterfaceValidate_t;
 324:/development/eAPI/eapidk-code/apps/EApiValidateAPI/linux/../EApiValidateAPI.c **** const EApiI2CLLInterfaceValidate_t EApiI2CLLValidate[]={
 325:/development/eAPI/eapidk-code/apps/EApiValidateAPI/linux/../EApiValidateAPI.c ****     {0xF8, NULL  ,   0, NULL  ,                 0 ,   0, EAPI_STATUS_INVALID_PARAMETER, EAPI_STATUS
 326:/development/eAPI/eapidk-code/apps/EApiValidateAPI/linux/../EApiValidateAPI.c ****     {0xF8, NULL  ,  10, NULL  ,                 0 ,   0, EAPI_STATUS_INVALID_PARAMETER, EAPI_STATUS
 327:/development/eAPI/eapidk-code/apps/EApiValidateAPI/linux/../EApiValidateAPI.c ****     {0xF8, NULL  ,   0, NULL  ,                10 ,   0, EAPI_STATUS_INVALID_PARAMETER, EAPI_STATUS
 328:/development/eAPI/eapidk-code/apps/EApiValidateAPI/linux/../EApiValidateAPI.c ****     {0xF8, NULL  ,   0, NULL  ,                 0 ,  10, EAPI_STATUS_INVALID_PARAMETER, EAPI_STATUS
 329:/development/eAPI/eapidk-code/apps/EApiValidateAPI/linux/../EApiValidateAPI.c ****     {0xF8, NULL  ,   0, NULL  ,                 0 ,  10, EAPI_STATUS_INVALID_PARAMETER, EAPI_STATUS
 330:/development/eAPI/eapidk-code/apps/EApiValidateAPI/linux/../EApiValidateAPI.c ****     {0xF8, NULL  ,   0, NULL  ,                10 ,  20, EAPI_STATUS_INVALID_PARAMETER, EAPI_STATUS
 331:/development/eAPI/eapidk-code/apps/EApiValidateAPI/linux/../EApiValidateAPI.c ****     {0xF8, NULL  ,   0, Buffer,                10 ,  20, EAPI_STATUS_NOT_FOUND        , EAPI_STATUS
 332:/development/eAPI/eapidk-code/apps/EApiValidateAPI/linux/../EApiValidateAPI.c ****     {0xF8, Buffer,   0, NULL  ,                 0 ,   0, EAPI_STATUS_INVALID_PARAMETER, EAPI_STATUS
 333:/development/eAPI/eapidk-code/apps/EApiValidateAPI/linux/../EApiValidateAPI.c ****     {0xF8, Buffer,  10, NULL  ,                 0 ,   0, EAPI_STATUS_NOT_FOUND        , EAPI_STATUS
 334:/development/eAPI/eapidk-code/apps/EApiValidateAPI/linux/../EApiValidateAPI.c ****     {0xF8, NULL  ,   0, Buffer, ARRAY_SIZE(Buffer),  10, EAPI_STATUS_NOT_FOUND        , EAPI_STATUS
 335:/development/eAPI/eapidk-code/apps/EApiValidateAPI/linux/../EApiValidateAPI.c **** };
 336:/development/eAPI/eapidk-code/apps/EApiValidateAPI/linux/../EApiValidateAPI.c **** 
 337:/development/eAPI/eapidk-code/apps/EApiValidateAPI/linux/../EApiValidateAPI.c **** typedef struct EApiI2CHLInterfaceValidate_s{
 338:/development/eAPI/eapidk-code/apps/EApiValidateAPI/linux/../EApiValidateAPI.c ****     const uint32_t          Address     ; /* Address */
 339:/development/eAPI/eapidk-code/apps/EApiValidateAPI/linux/../EApiValidateAPI.c ****     const uint32_t          Offset      ; /* Address */
 340:/development/eAPI/eapidk-code/apps/EApiValidateAPI/linux/../EApiValidateAPI.c ****     void  *                 BufPtr      ; /* Buffer Pointer */
 341:/development/eAPI/eapidk-code/apps/EApiValidateAPI/linux/../EApiValidateAPI.c ****     const uint32_t          BufPtrLen   ; /* Buffer Length */
 342:/development/eAPI/eapidk-code/apps/EApiValidateAPI/linux/../EApiValidateAPI.c ****     const uint32_t          ByteCnt     ; /* Byte Count  */
 343:/development/eAPI/eapidk-code/apps/EApiValidateAPI/linux/../EApiValidateAPI.c ****     const EApiStatus_t  StatusCode1 ; /* Allowed Return Value 1 */
 344:/development/eAPI/eapidk-code/apps/EApiValidateAPI/linux/../EApiValidateAPI.c ****     const EApiStatus_t  StatusCode2 ; /* Allowed Return Value 2 */
 345:/development/eAPI/eapidk-code/apps/EApiValidateAPI/linux/../EApiValidateAPI.c ****     const EApiStatus_t  StatusCode3 ; /* Allowed Return Value 3 */
 346:/development/eAPI/eapidk-code/apps/EApiValidateAPI/linux/../EApiValidateAPI.c **** }EApiI2CHLInterfaceValidate_t;
GAS LISTING /tmp/ccW7zoDa.s 			page 26


 347:/development/eAPI/eapidk-code/apps/EApiValidateAPI/linux/../EApiValidateAPI.c **** const EApiI2CHLInterfaceValidate_t EApiI2CHLReadValidate[]={
 348:/development/eAPI/eapidk-code/apps/EApiValidateAPI/linux/../EApiValidateAPI.c ****     {0xF8, 0x00, Buffer, ARRAY_SIZE(Buffer),  10, EAPI_STATUS_NOT_FOUND        , EAPI_STATUS_UNSUPP
 349:/development/eAPI/eapidk-code/apps/EApiValidateAPI/linux/../EApiValidateAPI.c ****     {0xF8, 0x00, NULL  , ARRAY_SIZE(Buffer),  10, EAPI_STATUS_INVALID_PARAMETER, EAPI_STATUS_INVALI
 350:/development/eAPI/eapidk-code/apps/EApiValidateAPI/linux/../EApiValidateAPI.c ****     {0xF8, 0x00, Buffer,             0x0000,  20, EAPI_STATUS_INVALID_PARAMETER, EAPI_STATUS_INVALI
 351:/development/eAPI/eapidk-code/apps/EApiValidateAPI/linux/../EApiValidateAPI.c ****     {0xF8, 0x00, Buffer, ARRAY_SIZE(Buffer),   0, EAPI_STATUS_INVALID_PARAMETER, EAPI_STATUS_INVALI
 352:/development/eAPI/eapidk-code/apps/EApiValidateAPI/linux/../EApiValidateAPI.c ****     {0xF8, 0x00, Buffer,             0x0010,  20, EAPI_STATUS_UNSUPPORTED      , EAPI_STATUS_MORE_D
 353:/development/eAPI/eapidk-code/apps/EApiValidateAPI/linux/../EApiValidateAPI.c ****     {0xF8, 0x00, Buffer, ARRAY_SIZE(Buffer),  10, EAPI_STATUS_NOT_FOUND        , EAPI_STATUS_UNSUPP
 354:/development/eAPI/eapidk-code/apps/EApiValidateAPI/linux/../EApiValidateAPI.c **** };
 355:/development/eAPI/eapidk-code/apps/EApiValidateAPI/linux/../EApiValidateAPI.c **** const EApiI2CHLInterfaceValidate_t EApiI2CHLWriteValidate[]={
 356:/development/eAPI/eapidk-code/apps/EApiValidateAPI/linux/../EApiValidateAPI.c ****     {0xF8, 0x00, Buffer,            0x0000 ,  10, EAPI_STATUS_NOT_FOUND        , EAPI_STATUS_UNSUPP
 357:/development/eAPI/eapidk-code/apps/EApiValidateAPI/linux/../EApiValidateAPI.c ****     {0xF8, 0x00, NULL  ,            0x0000 ,  10, EAPI_STATUS_INVALID_PARAMETER, EAPI_STATUS_INVALI
 358:/development/eAPI/eapidk-code/apps/EApiValidateAPI/linux/../EApiValidateAPI.c ****     {0xF8, 0x00, Buffer,            0x0000 ,   0, EAPI_STATUS_INVALID_PARAMETER, EAPI_STATUS_INVALI
 359:/development/eAPI/eapidk-code/apps/EApiValidateAPI/linux/../EApiValidateAPI.c **** };
 360:/development/eAPI/eapidk-code/apps/EApiValidateAPI/linux/../EApiValidateAPI.c **** 
 361:/development/eAPI/eapidk-code/apps/EApiValidateAPI/linux/../EApiValidateAPI.c **** typedef struct EApiI2CCapValidate_s{
 362:/development/eAPI/eapidk-code/apps/EApiValidateAPI/linux/../EApiValidateAPI.c ****     uint32_t         *pValue      ; /* Value Pointer*/
 363:/development/eAPI/eapidk-code/apps/EApiValidateAPI/linux/../EApiValidateAPI.c ****     const EApiStatus_t  StatusCode1 ; /* Allowed Return Value 1 */
 364:/development/eAPI/eapidk-code/apps/EApiValidateAPI/linux/../EApiValidateAPI.c ****     const EApiStatus_t  StatusCode2 ; /* Allowed Return Value 2 */
 365:/development/eAPI/eapidk-code/apps/EApiValidateAPI/linux/../EApiValidateAPI.c ****     const EApiStatus_t  StatusCode3 ; /* Allowed Return Value 3 */
 366:/development/eAPI/eapidk-code/apps/EApiValidateAPI/linux/../EApiValidateAPI.c **** }EApiI2CCapValidate_t;
 367:/development/eAPI/eapidk-code/apps/EApiValidateAPI/linux/../EApiValidateAPI.c **** uint32_t I2CMaxClk=0;
 368:/development/eAPI/eapidk-code/apps/EApiValidateAPI/linux/../EApiValidateAPI.c **** const EApiI2CCapValidate_t EApiI2CInterfaceValidate[]={
 369:/development/eAPI/eapidk-code/apps/EApiValidateAPI/linux/../EApiValidateAPI.c ****     {&I2CMaxClk, EAPI_STATUS_SUCCESS          , EAPI_STATUS_UNSUPPORTED       , EAPI_STATUS_UNSUPPO
 370:/development/eAPI/eapidk-code/apps/EApiValidateAPI/linux/../EApiValidateAPI.c ****     {NULL      , EAPI_STATUS_INVALID_PARAMETER, EAPI_STATUS_INVALID_PARAMETER , EAPI_STATUS_INVALID
 371:/development/eAPI/eapidk-code/apps/EApiValidateAPI/linux/../EApiValidateAPI.c **** };
 372:/development/eAPI/eapidk-code/apps/EApiValidateAPI/linux/../EApiValidateAPI.c **** typedef struct EApiI2CType_s{
 373:/development/eAPI/eapidk-code/apps/EApiValidateAPI/linux/../EApiValidateAPI.c ****     const EApiId_t      Id  ;
 374:/development/eAPI/eapidk-code/apps/EApiValidateAPI/linux/../EApiValidateAPI.c ****     const TCHAR *const  Desc;
 375:/development/eAPI/eapidk-code/apps/EApiValidateAPI/linux/../EApiValidateAPI.c **** }EApiI2CType_t;
 376:/development/eAPI/eapidk-code/apps/EApiValidateAPI/linux/../EApiValidateAPI.c **** 
 377:/development/eAPI/eapidk-code/apps/EApiValidateAPI/linux/../EApiValidateAPI.c **** const I2CDeviceDesc_t I2CDevices[]={
 378:/development/eAPI/eapidk-code/apps/EApiValidateAPI/linux/../EApiValidateAPI.c ****     /*           Max                           Write           */
 379:/development/eAPI/eapidk-code/apps/EApiValidateAPI/linux/../EApiValidateAPI.c ****     /* Encoded  Write    Index/Cmd Type        Recover  Device */
 380:/development/eAPI/eapidk-code/apps/EApiValidateAPI/linux/../EApiValidateAPI.c ****     /* Address  Block   Standard/Extended      Time ms  Length */
 381:/development/eAPI/eapidk-code/apps/EApiValidateAPI/linux/../EApiValidateAPI.c ****     {0x00A0,    16 , EApiAPI2CExtIndex,       5, 0x0100},
 382:/development/eAPI/eapidk-code/apps/EApiValidateAPI/linux/../EApiValidateAPI.c ****     {0x00A2,    256, EApiAPI2CExtIndex,       5, 0x0100},
 383:/development/eAPI/eapidk-code/apps/EApiValidateAPI/linux/../EApiValidateAPI.c ****     {0x00A6,    16 , EApiAPI2CStdIndex,       5, 0x0100},
 384:/development/eAPI/eapidk-code/apps/EApiValidateAPI/linux/../EApiValidateAPI.c ****     {0x00AE,    16 , EApiAPI2CExtIndex,       5, 0x0100},
 385:/development/eAPI/eapidk-code/apps/EApiValidateAPI/linux/../EApiValidateAPI.c ****     {0xF255,    256, EApiAPI2CExtIndex,       5, 0x0100},
 386:/development/eAPI/eapidk-code/apps/EApiValidateAPI/linux/../EApiValidateAPI.c **** };
 387:/development/eAPI/eapidk-code/apps/EApiValidateAPI/linux/../EApiValidateAPI.c **** const EApiI2CType_t EApiI2CBuses[]={
 388:/development/eAPI/eapidk-code/apps/EApiValidateAPI/linux/../EApiValidateAPI.c ****     {EAPI_ID_I2C_EXTERNAL, TEXT("External I2C"  )},
 389:/development/eAPI/eapidk-code/apps/EApiValidateAPI/linux/../EApiValidateAPI.c ****     {EAPI_ID_I2C_LVDS_1  , TEXT("LVDS 1 I2C/DDC")},
 390:/development/eAPI/eapidk-code/apps/EApiValidateAPI/linux/../EApiValidateAPI.c ****     {EAPI_ID_I2C_LVDS_2  , TEXT("LVDS 2 I2C/DDC")},
 391:/development/eAPI/eapidk-code/apps/EApiValidateAPI/linux/../EApiValidateAPI.c ****     {0x00000F00          , TEXT("Unsupported"   )},
 392:/development/eAPI/eapidk-code/apps/EApiValidateAPI/linux/../EApiValidateAPI.c **** };
 393:/development/eAPI/eapidk-code/apps/EApiValidateAPI/linux/../EApiValidateAPI.c **** void printHex(
 394:/development/eAPI/eapidk-code/apps/EApiValidateAPI/linux/../EApiValidateAPI.c ****         __IN FILE*  OutStream,
 395:/development/eAPI/eapidk-code/apps/EApiValidateAPI/linux/../EApiValidateAPI.c ****         __IN void * pBuffer  ,
 396:/development/eAPI/eapidk-code/apps/EApiValidateAPI/linux/../EApiValidateAPI.c ****         __IN size_t ByteCount
 397:/development/eAPI/eapidk-code/apps/EApiValidateAPI/linux/../EApiValidateAPI.c ****         )
 398:/development/eAPI/eapidk-code/apps/EApiValidateAPI/linux/../EApiValidateAPI.c **** {
 808              		.loc 1 398 0
 809              		.cfi_startproc
 810 03c3 55       		pushq	%rbp
 811              		.cfi_def_cfa_offset 16
 812              		.cfi_offset 6, -16
GAS LISTING /tmp/ccW7zoDa.s 			page 27


 813 03c4 4889E5   		movq	%rsp, %rbp
 814              		.cfi_def_cfa_register 6
 815 03c7 4883EC20 		subq	$32, %rsp
 816 03cb 48897DF8 		movq	%rdi, -8(%rbp)
 817 03cf 488975F0 		movq	%rsi, -16(%rbp)
 818 03d3 488955E8 		movq	%rdx, -24(%rbp)
 399:/development/eAPI/eapidk-code/apps/EApiValidateAPI/linux/../EApiValidateAPI.c ****     for(; ByteCount --; ){
 819              		.loc 1 399 0
 820 03d7 EB25     		jmp	.L22
 821              	.L23:
 400:/development/eAPI/eapidk-code/apps/EApiValidateAPI/linux/../EApiValidateAPI.c ****         EAPI_fprintf(OutStream, TEXT("%02")TEXT(PRIX8), *((uint8_t*)pBuffer));
 822              		.loc 1 400 0
 823 03d9 488B45F0 		movq	-16(%rbp), %rax
 824 03dd 0FB600   		movzbl	(%rax), %eax
 825 03e0 0FB6D0   		movzbl	%al, %edx
 826 03e3 488B45F8 		movq	-8(%rbp), %rax
 827 03e7 BE000000 		movl	$.LC36, %esi
 827      00
 828 03ec 4889C7   		movq	%rax, %rdi
 829 03ef B8000000 		movl	$0, %eax
 829      00
 830 03f4 E8000000 		call	fprintf
 830      00
 401:/development/eAPI/eapidk-code/apps/EApiValidateAPI/linux/../EApiValidateAPI.c ****         pBuffer=((uint8_t*)pBuffer)+1;
 831              		.loc 1 401 0
 832 03f9 488345F0 		addq	$1, -16(%rbp)
 832      01
 833              	.L22:
 399:/development/eAPI/eapidk-code/apps/EApiValidateAPI/linux/../EApiValidateAPI.c ****     for(; ByteCount --; ){
 834              		.loc 1 399 0
 835 03fe 488B45E8 		movq	-24(%rbp), %rax
 836 0402 488D50FF 		leaq	-1(%rax), %rdx
 837 0406 488955E8 		movq	%rdx, -24(%rbp)
 838 040a 4885C0   		testq	%rax, %rax
 839 040d 75CA     		jne	.L23
 402:/development/eAPI/eapidk-code/apps/EApiValidateAPI/linux/../EApiValidateAPI.c ****     }
 403:/development/eAPI/eapidk-code/apps/EApiValidateAPI/linux/../EApiValidateAPI.c **** }
 840              		.loc 1 403 0
 841 040f 90       		nop
 842 0410 C9       		leave
 843              		.cfi_def_cfa 7, 8
 844 0411 C3       		ret
 845              		.cfi_endproc
 846              	.LFE5:
 848              		.section	.rodata
 849              	.LC37:
 850 08a5 25782020 		.string	"%x  "
 850      00
 851              	.LC38:
 852 08aa 52657979 		.string	"Reyyyy in ke error e "
 852      79792069 
 852      6E206B65 
 852      20657272 
 852      6F722065 
 853              	.LC39:
 854 08c0 52657979 		.string	"Reyyyy that is wunderbar"
 854      79792074 
GAS LISTING /tmp/ccW7zoDa.s 			page 28


 854      68617420 
 854      69732077 
 854      756E6465 
 855              	.LC40:
 856 08d9 52657979 		.string	"Reyyyy that is an error"
 856      79792074 
 856      68617420 
 856      69732061 
 856      6E206572 
 857              		.text
 858              		.globl	EApiValidateI2CApi
 860              	EApiValidateI2CApi:
 861              	.LFB6:
 404:/development/eAPI/eapidk-code/apps/EApiValidateAPI/linux/../EApiValidateAPI.c **** void EApiValidateI2CApi (void)
 405:/development/eAPI/eapidk-code/apps/EApiValidateAPI/linux/../EApiValidateAPI.c **** {
 862              		.loc 1 405 0
 863              		.cfi_startproc
 864 0412 55       		pushq	%rbp
 865              		.cfi_def_cfa_offset 16
 866              		.cfi_offset 6, -16
 867 0413 4889E5   		movq	%rsp, %rbp
 868              		.cfi_def_cfa_register 6
 869 0416 4881ECB0 		subq	$176, %rsp
 869      000000
 870              		.loc 1 405 0
 871 041d 64488B04 		movq	%fs:40, %rax
 871      25280000 
 871      00
 872 0426 488945F8 		movq	%rax, -8(%rbp)
 873 042a 31C0     		xorl	%eax, %eax
 406:/development/eAPI/eapidk-code/apps/EApiValidateAPI/linux/../EApiValidateAPI.c ****     //  TCHAR TmpStrBuf[0x0800];
 407:/development/eAPI/eapidk-code/apps/EApiValidateAPI/linux/../EApiValidateAPI.c ****     EApiStatus_t StatusCode;
 408:/development/eAPI/eapidk-code/apps/EApiValidateAPI/linux/../EApiValidateAPI.c ****     unsigned i,i2;
 409:/development/eAPI/eapidk-code/apps/EApiValidateAPI/linux/../EApiValidateAPI.c **** 
 410:/development/eAPI/eapidk-code/apps/EApiValidateAPI/linux/../EApiValidateAPI.c **** 
 411:/development/eAPI/eapidk-code/apps/EApiValidateAPI/linux/../EApiValidateAPI.c **** 
 412:/development/eAPI/eapidk-code/apps/EApiValidateAPI/linux/../EApiValidateAPI.c ****     //____________________________________________
 413:/development/eAPI/eapidk-code/apps/EApiValidateAPI/linux/../EApiValidateAPI.c **** 
 414:/development/eAPI/eapidk-code/apps/EApiValidateAPI/linux/../EApiValidateAPI.c ****     uint8_t prBuffer1[64];
 415:/development/eAPI/eapidk-code/apps/EApiValidateAPI/linux/../EApiValidateAPI.c ****     StatusCode=EApiI2CReadTransfer(
 874              		.loc 1 415 0
 875 042c 488D45B0 		leaq	-80(%rbp), %rax
 876 0430 41B94000 		movl	$64, %r9d
 876      0000
 877 0436 41B84000 		movl	$64, %r8d
 877      0000
 878 043c 4889C1   		movq	%rax, %rcx
 879 043f BA000000 		movl	$-2147483648, %edx
 879      80
 880 0444 BE500000 		movl	$80, %esi
 880      00
 881 0449 BF0B0000 		movl	$11, %edi
 881      00
 882 044e E8000000 		call	EApiI2CReadTransfer
 882      00
 883 0453 898578FF 		movl	%eax, -136(%rbp)
 883      FFFF
GAS LISTING /tmp/ccW7zoDa.s 			page 29


 416:/development/eAPI/eapidk-code/apps/EApiValidateAPI/linux/../EApiValidateAPI.c ****                 11,
 417:/development/eAPI/eapidk-code/apps/EApiValidateAPI/linux/../EApiValidateAPI.c ****                 0x50,
 418:/development/eAPI/eapidk-code/apps/EApiValidateAPI/linux/../EApiValidateAPI.c ****                 EAPI_I2C_ENC_EXT_CMD(0x00),
 419:/development/eAPI/eapidk-code/apps/EApiValidateAPI/linux/../EApiValidateAPI.c ****                 prBuffer1,
 420:/development/eAPI/eapidk-code/apps/EApiValidateAPI/linux/../EApiValidateAPI.c ****                 64,
 421:/development/eAPI/eapidk-code/apps/EApiValidateAPI/linux/../EApiValidateAPI.c ****                 64
 422:/development/eAPI/eapidk-code/apps/EApiValidateAPI/linux/../EApiValidateAPI.c ****                 );
 423:/development/eAPI/eapidk-code/apps/EApiValidateAPI/linux/../EApiValidateAPI.c ****     if(EAPI_TEST_SUCCESS(StatusCode))
 884              		.loc 1 423 0
 885 0459 83BD78FF 		cmpl	$0, -136(%rbp)
 885      FFFF00
 886 0460 0F858A00 		jne	.L25
 886      0000
 887              	.LBB3:
 424:/development/eAPI/eapidk-code/apps/EApiValidateAPI/linux/../EApiValidateAPI.c ****     {
 425:/development/eAPI/eapidk-code/apps/EApiValidateAPI/linux/../EApiValidateAPI.c ****         int k =0;
 888              		.loc 1 425 0
 889 0466 C7855CFF 		movl	$0, -164(%rbp)
 889      FFFF0000 
 889      0000
 890              	.LBB4:
 426:/development/eAPI/eapidk-code/apps/EApiValidateAPI/linux/../EApiValidateAPI.c ****         for (int i =0 ; i < 64 ; i++){
 891              		.loc 1 426 0
 892 0470 C78560FF 		movl	$0, -160(%rbp)
 892      FFFF0000 
 892      0000
 893 047a EB5F     		jmp	.L26
 894              	.L29:
 427:/development/eAPI/eapidk-code/apps/EApiValidateAPI/linux/../EApiValidateAPI.c ****             if((k % 16) == 0)
 895              		.loc 1 427 0
 896 047c 8B855CFF 		movl	-164(%rbp), %eax
 896      FFFF
 897 0482 83E00F   		andl	$15, %eax
 898 0485 85C0     		testl	%eax, %eax
 899 0487 750C     		jne	.L27
 428:/development/eAPI/eapidk-code/apps/EApiValidateAPI/linux/../EApiValidateAPI.c ****                 printf("\n");
 900              		.loc 1 428 0
 901 0489 BF0A0000 		movl	$10, %edi
 901      00
 902 048e E8000000 		call	putchar
 902      00
 903 0493 EB17     		jmp	.L28
 904              	.L27:
 429:/development/eAPI/eapidk-code/apps/EApiValidateAPI/linux/../EApiValidateAPI.c ****             else if ( (k % 8) == 0)
 905              		.loc 1 429 0
 906 0495 8B855CFF 		movl	-164(%rbp), %eax
 906      FFFF
 907 049b 83E007   		andl	$7, %eax
 908 049e 85C0     		testl	%eax, %eax
 909 04a0 750A     		jne	.L28
 430:/development/eAPI/eapidk-code/apps/EApiValidateAPI/linux/../EApiValidateAPI.c ****                 printf(" ");
 910              		.loc 1 430 0
 911 04a2 BF200000 		movl	$32, %edi
 911      00
 912 04a7 E8000000 		call	putchar
 912      00
 913              	.L28:
GAS LISTING /tmp/ccW7zoDa.s 			page 30


 431:/development/eAPI/eapidk-code/apps/EApiValidateAPI/linux/../EApiValidateAPI.c ****             k++;
 914              		.loc 1 431 0 discriminator 2
 915 04ac 83855CFF 		addl	$1, -164(%rbp)
 915      FFFF01
 432:/development/eAPI/eapidk-code/apps/EApiValidateAPI/linux/../EApiValidateAPI.c **** 
 433:/development/eAPI/eapidk-code/apps/EApiValidateAPI/linux/../EApiValidateAPI.c ****             printf("%x  ",prBuffer1[i]);
 916              		.loc 1 433 0 discriminator 2
 917 04b3 8B8560FF 		movl	-160(%rbp), %eax
 917      FFFF
 918 04b9 4898     		cltq
 919 04bb 0FB64405 		movzbl	-80(%rbp,%rax), %eax
 919      B0
 920 04c0 0FB6C0   		movzbl	%al, %eax
 921 04c3 89C6     		movl	%eax, %esi
 922 04c5 BF000000 		movl	$.LC37, %edi
 922      00
 923 04ca B8000000 		movl	$0, %eax
 923      00
 924 04cf E8000000 		call	printf
 924      00
 426:/development/eAPI/eapidk-code/apps/EApiValidateAPI/linux/../EApiValidateAPI.c ****             if((k % 16) == 0)
 925              		.loc 1 426 0 discriminator 2
 926 04d4 838560FF 		addl	$1, -160(%rbp)
 926      FFFF01
 927              	.L26:
 426:/development/eAPI/eapidk-code/apps/EApiValidateAPI/linux/../EApiValidateAPI.c ****             if((k % 16) == 0)
 928              		.loc 1 426 0 is_stmt 0 discriminator 1
 929 04db 83BD60FF 		cmpl	$63, -160(%rbp)
 929      FFFF3F
 930 04e2 7E98     		jle	.L29
 931              	.LBE4:
 434:/development/eAPI/eapidk-code/apps/EApiValidateAPI/linux/../EApiValidateAPI.c ****         }
 435:/development/eAPI/eapidk-code/apps/EApiValidateAPI/linux/../EApiValidateAPI.c **** 
 436:/development/eAPI/eapidk-code/apps/EApiValidateAPI/linux/../EApiValidateAPI.c ****         printf("\n");
 932              		.loc 1 436 0 is_stmt 1
 933 04e4 BF0A0000 		movl	$10, %edi
 933      00
 934 04e9 E8000000 		call	putchar
 934      00
 935              	.LBE3:
 936 04ee EB0A     		jmp	.L30
 937              	.L25:
 437:/development/eAPI/eapidk-code/apps/EApiValidateAPI/linux/../EApiValidateAPI.c ****     }
 438:/development/eAPI/eapidk-code/apps/EApiValidateAPI/linux/../EApiValidateAPI.c ****     else
 439:/development/eAPI/eapidk-code/apps/EApiValidateAPI/linux/../EApiValidateAPI.c ****         printf("Reyyyy in ke error e \n");
 938              		.loc 1 439 0
 939 04f0 BF000000 		movl	$.LC38, %edi
 939      00
 940 04f5 E8000000 		call	puts
 940      00
 941              	.L30:
 942              	.LBB5:
 440:/development/eAPI/eapidk-code/apps/EApiValidateAPI/linux/../EApiValidateAPI.c **** 
 441:/development/eAPI/eapidk-code/apps/EApiValidateAPI/linux/../EApiValidateAPI.c ****     //____________________________________________
 442:/development/eAPI/eapidk-code/apps/EApiValidateAPI/linux/../EApiValidateAPI.c **** 
 443:/development/eAPI/eapidk-code/apps/EApiValidateAPI/linux/../EApiValidateAPI.c **** 
 444:/development/eAPI/eapidk-code/apps/EApiValidateAPI/linux/../EApiValidateAPI.c ****     uint8_t prBuffer2[1];
GAS LISTING /tmp/ccW7zoDa.s 			page 31


 445:/development/eAPI/eapidk-code/apps/EApiValidateAPI/linux/../EApiValidateAPI.c ****     for(int j =0 ; j < 8; j++){
 943              		.loc 1 445 0
 944 04fa C78564FF 		movl	$0, -156(%rbp)
 944      FFFF0000 
 944      0000
 945 0504 E99C0000 		jmp	.L31
 945      00
 946              	.L36:
 446:/development/eAPI/eapidk-code/apps/EApiValidateAPI/linux/../EApiValidateAPI.c ****         StatusCode=EApiI2CReadTransfer(
 947              		.loc 1 446 0
 948 0509 8B8564FF 		movl	-156(%rbp), %eax
 948      FFFF
 949 050f 0FB6C0   		movzbl	%al, %eax
 950 0512 488D957F 		leaq	-129(%rbp), %rdx
 950      FFFFFF
 951 0519 41B90100 		movl	$1, %r9d
 951      0000
 952 051f 41B80100 		movl	$1, %r8d
 952      0000
 953 0525 4889D1   		movq	%rdx, %rcx
 954 0528 89C2     		movl	%eax, %edx
 955 052a BE270000 		movl	$39, %esi
 955      00
 956 052f BF0B0000 		movl	$11, %edi
 956      00
 957 0534 E8000000 		call	EApiI2CReadTransfer
 957      00
 958 0539 898578FF 		movl	%eax, -136(%rbp)
 958      FFFF
 447:/development/eAPI/eapidk-code/apps/EApiValidateAPI/linux/../EApiValidateAPI.c ****                     11,
 448:/development/eAPI/eapidk-code/apps/EApiValidateAPI/linux/../EApiValidateAPI.c ****                     0x27,
 449:/development/eAPI/eapidk-code/apps/EApiValidateAPI/linux/../EApiValidateAPI.c ****                     EAPI_I2C_ENC_STD_CMD(j),
 450:/development/eAPI/eapidk-code/apps/EApiValidateAPI/linux/../EApiValidateAPI.c ****                     prBuffer2,
 451:/development/eAPI/eapidk-code/apps/EApiValidateAPI/linux/../EApiValidateAPI.c ****                     1,
 452:/development/eAPI/eapidk-code/apps/EApiValidateAPI/linux/../EApiValidateAPI.c ****                     1
 453:/development/eAPI/eapidk-code/apps/EApiValidateAPI/linux/../EApiValidateAPI.c ****                     );
 454:/development/eAPI/eapidk-code/apps/EApiValidateAPI/linux/../EApiValidateAPI.c ****         if(EAPI_TEST_SUCCESS(StatusCode))
 959              		.loc 1 454 0
 960 053f 83BD78FF 		cmpl	$0, -136(%rbp)
 960      FFFF00
 961 0546 754C     		jne	.L32
 962              	.LBB6:
 455:/development/eAPI/eapidk-code/apps/EApiValidateAPI/linux/../EApiValidateAPI.c ****         {
 456:/development/eAPI/eapidk-code/apps/EApiValidateAPI/linux/../EApiValidateAPI.c ****             for (int i =0 ; i < 1 ; i++)
 963              		.loc 1 456 0
 964 0548 C78568FF 		movl	$0, -152(%rbp)
 964      FFFF0000 
 964      0000
 965 0552 EB2B     		jmp	.L33
 966              	.L34:
 457:/development/eAPI/eapidk-code/apps/EApiValidateAPI/linux/../EApiValidateAPI.c ****                 printf("%x  ",prBuffer2[i]);
 967              		.loc 1 457 0 discriminator 3
 968 0554 8B8568FF 		movl	-152(%rbp), %eax
 968      FFFF
 969 055a 4898     		cltq
 970 055c 0FB68405 		movzbl	-129(%rbp,%rax), %eax
 970      7FFFFFFF 
GAS LISTING /tmp/ccW7zoDa.s 			page 32


 971 0564 0FB6C0   		movzbl	%al, %eax
 972 0567 89C6     		movl	%eax, %esi
 973 0569 BF000000 		movl	$.LC37, %edi
 973      00
 974 056e B8000000 		movl	$0, %eax
 974      00
 975 0573 E8000000 		call	printf
 975      00
 456:/development/eAPI/eapidk-code/apps/EApiValidateAPI/linux/../EApiValidateAPI.c ****                 printf("%x  ",prBuffer2[i]);
 976              		.loc 1 456 0 discriminator 3
 977 0578 838568FF 		addl	$1, -152(%rbp)
 977      FFFF01
 978              	.L33:
 456:/development/eAPI/eapidk-code/apps/EApiValidateAPI/linux/../EApiValidateAPI.c ****                 printf("%x  ",prBuffer2[i]);
 979              		.loc 1 456 0 is_stmt 0 discriminator 1
 980 057f 83BD68FF 		cmpl	$0, -152(%rbp)
 980      FFFF00
 981 0586 7ECC     		jle	.L34
 982              	.LBE6:
 458:/development/eAPI/eapidk-code/apps/EApiValidateAPI/linux/../EApiValidateAPI.c **** 
 459:/development/eAPI/eapidk-code/apps/EApiValidateAPI/linux/../EApiValidateAPI.c ****             printf("\n");
 983              		.loc 1 459 0 is_stmt 1
 984 0588 BF0A0000 		movl	$10, %edi
 984      00
 985 058d E8000000 		call	putchar
 985      00
 986 0592 EB0A     		jmp	.L35
 987              	.L32:
 460:/development/eAPI/eapidk-code/apps/EApiValidateAPI/linux/../EApiValidateAPI.c ****         }
 461:/development/eAPI/eapidk-code/apps/EApiValidateAPI/linux/../EApiValidateAPI.c ****         else
 462:/development/eAPI/eapidk-code/apps/EApiValidateAPI/linux/../EApiValidateAPI.c ****             printf("Reyyyy in ke error e \n");
 988              		.loc 1 462 0
 989 0594 BF000000 		movl	$.LC38, %edi
 989      00
 990 0599 E8000000 		call	puts
 990      00
 991              	.L35:
 445:/development/eAPI/eapidk-code/apps/EApiValidateAPI/linux/../EApiValidateAPI.c ****         StatusCode=EApiI2CReadTransfer(
 992              		.loc 1 445 0 discriminator 2
 993 059e 838564FF 		addl	$1, -156(%rbp)
 993      FFFF01
 994              	.L31:
 445:/development/eAPI/eapidk-code/apps/EApiValidateAPI/linux/../EApiValidateAPI.c ****         StatusCode=EApiI2CReadTransfer(
 995              		.loc 1 445 0 is_stmt 0 discriminator 1
 996 05a5 83BD64FF 		cmpl	$7, -156(%rbp)
 996      FFFF07
 997 05ac 0F8E57FF 		jle	.L36
 997      FFFF
 998              	.LBE5:
 999              	.LBB7:
 463:/development/eAPI/eapidk-code/apps/EApiValidateAPI/linux/../EApiValidateAPI.c ****     }
 464:/development/eAPI/eapidk-code/apps/EApiValidateAPI/linux/../EApiValidateAPI.c **** 
 465:/development/eAPI/eapidk-code/apps/EApiValidateAPI/linux/../EApiValidateAPI.c ****     //____________________________________________
 466:/development/eAPI/eapidk-code/apps/EApiValidateAPI/linux/../EApiValidateAPI.c **** 
 467:/development/eAPI/eapidk-code/apps/EApiValidateAPI/linux/../EApiValidateAPI.c ****     uint8_t pBuffer3[10];
 468:/development/eAPI/eapidk-code/apps/EApiValidateAPI/linux/../EApiValidateAPI.c ****     for(int j=0; j< 10; j++)
 1000              		.loc 1 468 0 is_stmt 1
GAS LISTING /tmp/ccW7zoDa.s 			page 33


 1001 05b2 C7856CFF 		movl	$0, -148(%rbp)
 1001      FFFF0000 
 1001      0000
 1002 05bc EB1B     		jmp	.L37
 1003              	.L38:
 469:/development/eAPI/eapidk-code/apps/EApiValidateAPI/linux/../EApiValidateAPI.c ****         pBuffer3[j]=j;
 1004              		.loc 1 469 0 discriminator 3
 1005 05be 8B856CFF 		movl	-148(%rbp), %eax
 1005      FFFF
 1006 05c4 89C2     		movl	%eax, %edx
 1007 05c6 8B856CFF 		movl	-148(%rbp), %eax
 1007      FFFF
 1008 05cc 4898     		cltq
 1009 05ce 88540580 		movb	%dl, -128(%rbp,%rax)
 468:/development/eAPI/eapidk-code/apps/EApiValidateAPI/linux/../EApiValidateAPI.c ****         pBuffer3[j]=j;
 1010              		.loc 1 468 0 discriminator 3
 1011 05d2 83856CFF 		addl	$1, -148(%rbp)
 1011      FFFF01
 1012              	.L37:
 468:/development/eAPI/eapidk-code/apps/EApiValidateAPI/linux/../EApiValidateAPI.c ****         pBuffer3[j]=j;
 1013              		.loc 1 468 0 is_stmt 0 discriminator 1
 1014 05d9 83BD6CFF 		cmpl	$9, -148(%rbp)
 1014      FFFF09
 1015 05e0 7EDC     		jle	.L38
 1016              	.LBE7:
 1017              	.LBB8:
 470:/development/eAPI/eapidk-code/apps/EApiValidateAPI/linux/../EApiValidateAPI.c **** 
 471:/development/eAPI/eapidk-code/apps/EApiValidateAPI/linux/../EApiValidateAPI.c ****     for(int j=0; j < 10; j++)
 1018              		.loc 1 471 0 is_stmt 1
 1019 05e2 C78570FF 		movl	$0, -144(%rbp)
 1019      FFFF0000 
 1019      0000
 1020 05ec EB62     		jmp	.L39
 1021              	.L42:
 472:/development/eAPI/eapidk-code/apps/EApiValidateAPI/linux/../EApiValidateAPI.c ****     {
 473:/development/eAPI/eapidk-code/apps/EApiValidateAPI/linux/../EApiValidateAPI.c ****         StatusCode=EApiI2CWriteTransfer(
 474:/development/eAPI/eapidk-code/apps/EApiValidateAPI/linux/../EApiValidateAPI.c ****                     11,
 475:/development/eAPI/eapidk-code/apps/EApiValidateAPI/linux/../EApiValidateAPI.c ****                     0x27,
 476:/development/eAPI/eapidk-code/apps/EApiValidateAPI/linux/../EApiValidateAPI.c ****                     EAPI_I2C_ENC_STD_CMD(2),
 477:/development/eAPI/eapidk-code/apps/EApiValidateAPI/linux/../EApiValidateAPI.c ****                     &pBuffer3[j],
 1022              		.loc 1 477 0
 1023 05ee 488D5580 		leaq	-128(%rbp), %rdx
 1024 05f2 8B8570FF 		movl	-144(%rbp), %eax
 1024      FFFF
 1025 05f8 4898     		cltq
 1026 05fa 4801D0   		addq	%rdx, %rax
 473:/development/eAPI/eapidk-code/apps/EApiValidateAPI/linux/../EApiValidateAPI.c ****                     11,
 1027              		.loc 1 473 0
 1028 05fd 41B80100 		movl	$1, %r8d
 1028      0000
 1029 0603 4889C1   		movq	%rax, %rcx
 1030 0606 BA020000 		movl	$2, %edx
 1030      00
 1031 060b BE270000 		movl	$39, %esi
 1031      00
 1032 0610 BF0B0000 		movl	$11, %edi
 1032      00
GAS LISTING /tmp/ccW7zoDa.s 			page 34


 1033 0615 E8000000 		call	EApiI2CWriteTransfer
 1033      00
 1034 061a 898578FF 		movl	%eax, -136(%rbp)
 1034      FFFF
 478:/development/eAPI/eapidk-code/apps/EApiValidateAPI/linux/../EApiValidateAPI.c ****                     1
 479:/development/eAPI/eapidk-code/apps/EApiValidateAPI/linux/../EApiValidateAPI.c ****                     );
 480:/development/eAPI/eapidk-code/apps/EApiValidateAPI/linux/../EApiValidateAPI.c ****         if(EAPI_TEST_SUCCESS(StatusCode))
 1035              		.loc 1 480 0
 1036 0620 83BD78FF 		cmpl	$0, -136(%rbp)
 1036      FFFF00
 1037 0627 750C     		jne	.L40
 481:/development/eAPI/eapidk-code/apps/EApiValidateAPI/linux/../EApiValidateAPI.c ****             printf("Reyyyy that is wunderbar\n");
 1038              		.loc 1 481 0
 1039 0629 BF000000 		movl	$.LC39, %edi
 1039      00
 1040 062e E8000000 		call	puts
 1040      00
 1041 0633 EB0A     		jmp	.L41
 1042              	.L40:
 482:/development/eAPI/eapidk-code/apps/EApiValidateAPI/linux/../EApiValidateAPI.c ****         else
 483:/development/eAPI/eapidk-code/apps/EApiValidateAPI/linux/../EApiValidateAPI.c ****             printf("Reyyyy that is an error\n");
 1043              		.loc 1 483 0
 1044 0635 BF000000 		movl	$.LC40, %edi
 1044      00
 1045 063a E8000000 		call	puts
 1045      00
 1046              	.L41:
 484:/development/eAPI/eapidk-code/apps/EApiValidateAPI/linux/../EApiValidateAPI.c **** 
 485:/development/eAPI/eapidk-code/apps/EApiValidateAPI/linux/../EApiValidateAPI.c ****         sleep(5);
 1047              		.loc 1 485 0 discriminator 2
 1048 063f BF050000 		movl	$5, %edi
 1048      00
 1049 0644 E8000000 		call	sleep
 1049      00
 471:/development/eAPI/eapidk-code/apps/EApiValidateAPI/linux/../EApiValidateAPI.c ****     {
 1050              		.loc 1 471 0 discriminator 2
 1051 0649 838570FF 		addl	$1, -144(%rbp)
 1051      FFFF01
 1052              	.L39:
 471:/development/eAPI/eapidk-code/apps/EApiValidateAPI/linux/../EApiValidateAPI.c ****     {
 1053              		.loc 1 471 0 is_stmt 0 discriminator 1
 1054 0650 83BD70FF 		cmpl	$9, -144(%rbp)
 1054      FFFF09
 1055 0657 7E95     		jle	.L42
 1056              	.LBE8:
 486:/development/eAPI/eapidk-code/apps/EApiValidateAPI/linux/../EApiValidateAPI.c ****     }
 487:/development/eAPI/eapidk-code/apps/EApiValidateAPI/linux/../EApiValidateAPI.c **** 
 488:/development/eAPI/eapidk-code/apps/EApiValidateAPI/linux/../EApiValidateAPI.c ****     //____________________________________________
 489:/development/eAPI/eapidk-code/apps/EApiValidateAPI/linux/../EApiValidateAPI.c **** 
 490:/development/eAPI/eapidk-code/apps/EApiValidateAPI/linux/../EApiValidateAPI.c ****     uint8_t pBuffer4[32];
 491:/development/eAPI/eapidk-code/apps/EApiValidateAPI/linux/../EApiValidateAPI.c ****     //  for(int j=0; j< 64; j+=4)
 492:/development/eAPI/eapidk-code/apps/EApiValidateAPI/linux/../EApiValidateAPI.c ****     {
 493:/development/eAPI/eapidk-code/apps/EApiValidateAPI/linux/../EApiValidateAPI.c ****         pBuffer4[0]=0x00;
 1057              		.loc 1 493 0 is_stmt 1
 1058 0659 C6459000 		movb	$0, -112(%rbp)
 494:/development/eAPI/eapidk-code/apps/EApiValidateAPI/linux/../EApiValidateAPI.c ****         pBuffer4[1]=0x33;
 1059              		.loc 1 494 0
GAS LISTING /tmp/ccW7zoDa.s 			page 35


 1060 065d C6459133 		movb	$51, -111(%rbp)
 495:/development/eAPI/eapidk-code/apps/EApiValidateAPI/linux/../EApiValidateAPI.c ****         pBuffer4[2]=0x50;
 1061              		.loc 1 495 0
 1062 0661 C6459250 		movb	$80, -110(%rbp)
 496:/development/eAPI/eapidk-code/apps/EApiValidateAPI/linux/../EApiValidateAPI.c ****         pBuffer4[3]=0x10;
 1063              		.loc 1 496 0
 1064 0665 C6459310 		movb	$16, -109(%rbp)
 497:/development/eAPI/eapidk-code/apps/EApiValidateAPI/linux/../EApiValidateAPI.c ****         pBuffer4[4]=0x09;
 1065              		.loc 1 497 0
 1066 0669 C6459409 		movb	$9, -108(%rbp)
 498:/development/eAPI/eapidk-code/apps/EApiValidateAPI/linux/../EApiValidateAPI.c ****         pBuffer4[5]=0x74;
 1067              		.loc 1 498 0
 1068 066d C6459574 		movb	$116, -107(%rbp)
 499:/development/eAPI/eapidk-code/apps/EApiValidateAPI/linux/../EApiValidateAPI.c ****         pBuffer4[6]=0x63;
 1069              		.loc 1 499 0
 1070 0671 C6459663 		movb	$99, -106(%rbp)
 500:/development/eAPI/eapidk-code/apps/EApiValidateAPI/linux/../EApiValidateAPI.c ****         pBuffer4[7]=0x6f;
 1071              		.loc 1 500 0
 1072 0675 C645976F 		movb	$111, -105(%rbp)
 501:/development/eAPI/eapidk-code/apps/EApiValidateAPI/linux/../EApiValidateAPI.c ****         pBuffer4[8]=0x4d;
 1073              		.loc 1 501 0
 1074 0679 C645984D 		movb	$77, -104(%rbp)
 502:/development/eAPI/eapidk-code/apps/EApiValidateAPI/linux/../EApiValidateAPI.c ****         pBuffer4[9]=0x30;
 1075              		.loc 1 502 0
 1076 067d C6459930 		movb	$48, -103(%rbp)
 503:/development/eAPI/eapidk-code/apps/EApiValidateAPI/linux/../EApiValidateAPI.c ****         pBuffer4[10]=0x11;
 1077              		.loc 1 503 0
 1078 0681 C6459A11 		movb	$17, -102(%rbp)
 504:/development/eAPI/eapidk-code/apps/EApiValidateAPI/linux/../EApiValidateAPI.c ****         pBuffer4[11]=0xaf;
 1079              		.loc 1 504 0
 1080 0685 C6459BAF 		movb	$-81, -101(%rbp)
 505:/development/eAPI/eapidk-code/apps/EApiValidateAPI/linux/../EApiValidateAPI.c ****         pBuffer4[12]=0x00;
 1081              		.loc 1 505 0
 1082 0689 C6459C00 		movb	$0, -100(%rbp)
 506:/development/eAPI/eapidk-code/apps/EApiValidateAPI/linux/../EApiValidateAPI.c ****         pBuffer4[13]=0x00;
 1083              		.loc 1 506 0
 1084 068d C6459D00 		movb	$0, -99(%rbp)
 507:/development/eAPI/eapidk-code/apps/EApiValidateAPI/linux/../EApiValidateAPI.c ****         pBuffer4[14]=0x00;
 1085              		.loc 1 507 0
 1086 0691 C6459E00 		movb	$0, -98(%rbp)
 508:/development/eAPI/eapidk-code/apps/EApiValidateAPI/linux/../EApiValidateAPI.c **** 
 509:/development/eAPI/eapidk-code/apps/EApiValidateAPI/linux/../EApiValidateAPI.c ****         pBuffer4[15]=0x01;
 1087              		.loc 1 509 0
 1088 0695 C6459F01 		movb	$1, -97(%rbp)
 510:/development/eAPI/eapidk-code/apps/EApiValidateAPI/linux/../EApiValidateAPI.c ****         pBuffer4[16]=0x06;
 1089              		.loc 1 510 0
 1090 0699 C645A006 		movb	$6, -96(%rbp)
 511:/development/eAPI/eapidk-code/apps/EApiValidateAPI/linux/../EApiValidateAPI.c ****         pBuffer4[17]=0x21;
 1091              		.loc 1 511 0
 1092 069d C645A121 		movb	$33, -95(%rbp)
 512:/development/eAPI/eapidk-code/apps/EApiValidateAPI/linux/../EApiValidateAPI.c ****         pBuffer4[18]=0xd0;
 1093              		.loc 1 512 0
 1094 06a1 C645A2D0 		movb	$-48, -94(%rbp)
 513:/development/eAPI/eapidk-code/apps/EApiValidateAPI/linux/../EApiValidateAPI.c ****         pBuffer4[19]=0x00;
 1095              		.loc 1 513 0
 1096 06a5 C645A300 		movb	$0, -93(%rbp)
 514:/development/eAPI/eapidk-code/apps/EApiValidateAPI/linux/../EApiValidateAPI.c ****         pBuffer4[20]=0x20;
GAS LISTING /tmp/ccW7zoDa.s 			page 36


 1097              		.loc 1 514 0
 1098 06a9 C645A420 		movb	$32, -92(%rbp)
 515:/development/eAPI/eapidk-code/apps/EApiValidateAPI/linux/../EApiValidateAPI.c ****         pBuffer4[21]=0x02;
 1099              		.loc 1 515 0
 1100 06ad C645A502 		movb	$2, -91(%rbp)
 516:/development/eAPI/eapidk-code/apps/EApiValidateAPI/linux/../EApiValidateAPI.c ****         pBuffer4[22]=0x0f;
 1101              		.loc 1 516 0
 1102 06b1 C645A60F 		movb	$15, -90(%rbp)
 517:/development/eAPI/eapidk-code/apps/EApiValidateAPI/linux/../EApiValidateAPI.c ****         pBuffer4[23]=0xe0;
 1103              		.loc 1 517 0
 1104 06b5 C645A7E0 		movb	$-32, -89(%rbp)
 518:/development/eAPI/eapidk-code/apps/EApiValidateAPI/linux/../EApiValidateAPI.c ****         pBuffer4[24]=0x00;
 1105              		.loc 1 518 0
 1106 06b9 C645A800 		movb	$0, -88(%rbp)
 519:/development/eAPI/eapidk-code/apps/EApiValidateAPI/linux/../EApiValidateAPI.c ****         pBuffer4[25]=0x01;
 1107              		.loc 1 519 0
 1108 06bd C645A901 		movb	$1, -87(%rbp)
 520:/development/eAPI/eapidk-code/apps/EApiValidateAPI/linux/../EApiValidateAPI.c ****         pBuffer4[26]=0x02;
 1109              		.loc 1 520 0
 1110 06c1 C645AA02 		movb	$2, -86(%rbp)
 521:/development/eAPI/eapidk-code/apps/EApiValidateAPI/linux/../EApiValidateAPI.c ****         pBuffer4[27]=0x03;
 1111              		.loc 1 521 0
 1112 06c5 C645AB03 		movb	$3, -85(%rbp)
 522:/development/eAPI/eapidk-code/apps/EApiValidateAPI/linux/../EApiValidateAPI.c ****         pBuffer4[28]=0x04;
 1113              		.loc 1 522 0
 1114 06c9 C645AC04 		movb	$4, -84(%rbp)
 523:/development/eAPI/eapidk-code/apps/EApiValidateAPI/linux/../EApiValidateAPI.c ****         pBuffer4[29]=0x00;
 1115              		.loc 1 523 0
 1116 06cd C645AD00 		movb	$0, -83(%rbp)
 524:/development/eAPI/eapidk-code/apps/EApiValidateAPI/linux/../EApiValidateAPI.c ****         pBuffer4[30]=0x08;
 1117              		.loc 1 524 0
 1118 06d1 C645AE08 		movb	$8, -82(%rbp)
 525:/development/eAPI/eapidk-code/apps/EApiValidateAPI/linux/../EApiValidateAPI.c ****         pBuffer4[31]=0x00;
 1119              		.loc 1 525 0
 1120 06d5 C645AF00 		movb	$0, -81(%rbp)
 1121              	.LBB9:
 526:/development/eAPI/eapidk-code/apps/EApiValidateAPI/linux/../EApiValidateAPI.c **** 
 527:/development/eAPI/eapidk-code/apps/EApiValidateAPI/linux/../EApiValidateAPI.c **** 
 528:/development/eAPI/eapidk-code/apps/EApiValidateAPI/linux/../EApiValidateAPI.c ****     }
 529:/development/eAPI/eapidk-code/apps/EApiValidateAPI/linux/../EApiValidateAPI.c **** 
 530:/development/eAPI/eapidk-code/apps/EApiValidateAPI/linux/../EApiValidateAPI.c ****     for(int j=0 ; j < 32 ; j++)
 1122              		.loc 1 530 0
 1123 06d9 C78574FF 		movl	$0, -140(%rbp)
 1123      FFFF0000 
 1123      0000
 1124 06e3 EB6D     		jmp	.L43
 1125              	.L46:
 531:/development/eAPI/eapidk-code/apps/EApiValidateAPI/linux/../EApiValidateAPI.c ****     {
 532:/development/eAPI/eapidk-code/apps/EApiValidateAPI/linux/../EApiValidateAPI.c ****         StatusCode=EApiI2CWriteTransfer(
 533:/development/eAPI/eapidk-code/apps/EApiValidateAPI/linux/../EApiValidateAPI.c ****                     11,
 534:/development/eAPI/eapidk-code/apps/EApiValidateAPI/linux/../EApiValidateAPI.c ****                     0x50,
 535:/development/eAPI/eapidk-code/apps/EApiValidateAPI/linux/../EApiValidateAPI.c ****                     EAPI_I2C_ENC_EXT_CMD(0+j),
 536:/development/eAPI/eapidk-code/apps/EApiValidateAPI/linux/../EApiValidateAPI.c ****                     &pBuffer4[j],
 1126              		.loc 1 536 0
 1127 06e5 488D5590 		leaq	-112(%rbp), %rdx
 1128 06e9 8B8574FF 		movl	-140(%rbp), %eax
 1128      FFFF
GAS LISTING /tmp/ccW7zoDa.s 			page 37


 1129 06ef 4898     		cltq
 1130 06f1 4801C2   		addq	%rax, %rdx
 532:/development/eAPI/eapidk-code/apps/EApiValidateAPI/linux/../EApiValidateAPI.c ****                     11,
 1131              		.loc 1 532 0
 1132 06f4 8B8574FF 		movl	-140(%rbp), %eax
 1132      FFFF
 1133 06fa 0FB7C0   		movzwl	%ax, %eax
 1134 06fd 0D000000 		orl	$-2147483648, %eax
 1134      80
 1135 0702 41B80100 		movl	$1, %r8d
 1135      0000
 1136 0708 4889D1   		movq	%rdx, %rcx
 1137 070b 89C2     		movl	%eax, %edx
 1138 070d BE500000 		movl	$80, %esi
 1138      00
 1139 0712 BF0B0000 		movl	$11, %edi
 1139      00
 1140 0717 E8000000 		call	EApiI2CWriteTransfer
 1140      00
 1141 071c 898578FF 		movl	%eax, -136(%rbp)
 1141      FFFF
 537:/development/eAPI/eapidk-code/apps/EApiValidateAPI/linux/../EApiValidateAPI.c ****                     1
 538:/development/eAPI/eapidk-code/apps/EApiValidateAPI/linux/../EApiValidateAPI.c ****                     );
 539:/development/eAPI/eapidk-code/apps/EApiValidateAPI/linux/../EApiValidateAPI.c ****         if(EAPI_TEST_SUCCESS(StatusCode))
 1142              		.loc 1 539 0
 1143 0722 83BD78FF 		cmpl	$0, -136(%rbp)
 1143      FFFF00
 1144 0729 750C     		jne	.L44
 540:/development/eAPI/eapidk-code/apps/EApiValidateAPI/linux/../EApiValidateAPI.c ****             printf("Reyyyy that is wunderbar\n");
 1145              		.loc 1 540 0
 1146 072b BF000000 		movl	$.LC39, %edi
 1146      00
 1147 0730 E8000000 		call	puts
 1147      00
 1148 0735 EB0A     		jmp	.L45
 1149              	.L44:
 541:/development/eAPI/eapidk-code/apps/EApiValidateAPI/linux/../EApiValidateAPI.c ****         else
 542:/development/eAPI/eapidk-code/apps/EApiValidateAPI/linux/../EApiValidateAPI.c ****             printf("Reyyyy that is an error\n");
 1150              		.loc 1 542 0
 1151 0737 BF000000 		movl	$.LC40, %edi
 1151      00
 1152 073c E8000000 		call	puts
 1152      00
 1153              	.L45:
 543:/development/eAPI/eapidk-code/apps/EApiValidateAPI/linux/../EApiValidateAPI.c ****         sleep(1);
 1154              		.loc 1 543 0 discriminator 2
 1155 0741 BF010000 		movl	$1, %edi
 1155      00
 1156 0746 E8000000 		call	sleep
 1156      00
 530:/development/eAPI/eapidk-code/apps/EApiValidateAPI/linux/../EApiValidateAPI.c ****     {
 1157              		.loc 1 530 0 discriminator 2
 1158 074b 838574FF 		addl	$1, -140(%rbp)
 1158      FFFF01
 1159              	.L43:
 530:/development/eAPI/eapidk-code/apps/EApiValidateAPI/linux/../EApiValidateAPI.c ****     {
 1160              		.loc 1 530 0 is_stmt 0 discriminator 1
GAS LISTING /tmp/ccW7zoDa.s 			page 38


 1161 0752 83BD74FF 		cmpl	$31, -140(%rbp)
 1161      FFFF1F
 1162 0759 7E8A     		jle	.L46
 1163              	.LBE9:
 544:/development/eAPI/eapidk-code/apps/EApiValidateAPI/linux/../EApiValidateAPI.c **** 
 545:/development/eAPI/eapidk-code/apps/EApiValidateAPI/linux/../EApiValidateAPI.c ****     }
 546:/development/eAPI/eapidk-code/apps/EApiValidateAPI/linux/../EApiValidateAPI.c ****     return ;
 1164              		.loc 1 546 0 is_stmt 1
 1165 075b 90       		nop
 547:/development/eAPI/eapidk-code/apps/EApiValidateAPI/linux/../EApiValidateAPI.c **** 
 548:/development/eAPI/eapidk-code/apps/EApiValidateAPI/linux/../EApiValidateAPI.c **** 
 549:/development/eAPI/eapidk-code/apps/EApiValidateAPI/linux/../EApiValidateAPI.c **** 
 550:/development/eAPI/eapidk-code/apps/EApiValidateAPI/linux/../EApiValidateAPI.c **** 
 551:/development/eAPI/eapidk-code/apps/EApiValidateAPI/linux/../EApiValidateAPI.c **** 
 552:/development/eAPI/eapidk-code/apps/EApiValidateAPI/linux/../EApiValidateAPI.c ****     /*
 553:/development/eAPI/eapidk-code/apps/EApiValidateAPI/linux/../EApiValidateAPI.c ****    * More Rigorous Interfaces Verification
 554:/development/eAPI/eapidk-code/apps/EApiValidateAPI/linux/../EApiValidateAPI.c ****    */
 555:/development/eAPI/eapidk-code/apps/EApiValidateAPI/linux/../EApiValidateAPI.c ****     memset(Buffer, 0x00, ARRAY_SIZE(Buffer));
 556:/development/eAPI/eapidk-code/apps/EApiValidateAPI/linux/../EApiValidateAPI.c ****     for(i=0;i<10;i++) /* Iterated thought Ids */
 557:/development/eAPI/eapidk-code/apps/EApiValidateAPI/linux/../EApiValidateAPI.c ****     {
 558:/development/eAPI/eapidk-code/apps/EApiValidateAPI/linux/../EApiValidateAPI.c ****         for(i2=0;i2<ARRAY_SIZE(EApiI2CLLValidate);i2++) /* Iterated thought test cases */
 559:/development/eAPI/eapidk-code/apps/EApiValidateAPI/linux/../EApiValidateAPI.c ****         {
 560:/development/eAPI/eapidk-code/apps/EApiValidateAPI/linux/../EApiValidateAPI.c ****             StatusCode=EApiI2CWriteReadRaw(
 561:/development/eAPI/eapidk-code/apps/EApiValidateAPI/linux/../EApiValidateAPI.c ****                         i                               ,
 562:/development/eAPI/eapidk-code/apps/EApiValidateAPI/linux/../EApiValidateAPI.c ****                         EApiI2CLLValidate[i2].Address   ,
 563:/development/eAPI/eapidk-code/apps/EApiValidateAPI/linux/../EApiValidateAPI.c ****                         EApiI2CLLValidate[i2].WBufPtr   ,
 564:/development/eAPI/eapidk-code/apps/EApiValidateAPI/linux/../EApiValidateAPI.c ****                         EApiI2CLLValidate[i2].WByteCnt  ,
 565:/development/eAPI/eapidk-code/apps/EApiValidateAPI/linux/../EApiValidateAPI.c ****                         EApiI2CLLValidate[i2].RBufPtr   ,
 566:/development/eAPI/eapidk-code/apps/EApiValidateAPI/linux/../EApiValidateAPI.c ****                         EApiI2CLLValidate[i2].RBufPtrLen,
 567:/development/eAPI/eapidk-code/apps/EApiValidateAPI/linux/../EApiValidateAPI.c ****                         EApiI2CLLValidate[i2].RByteCnt
 568:/development/eAPI/eapidk-code/apps/EApiValidateAPI/linux/../EApiValidateAPI.c ****                         );
 569:/development/eAPI/eapidk-code/apps/EApiValidateAPI/linux/../EApiValidateAPI.c ****             EAPI_LOG_RETURN_VALUE(EApiI2CWriteReadRaw, EApiI2CLLValidate);
 570:/development/eAPI/eapidk-code/apps/EApiValidateAPI/linux/../EApiValidateAPI.c ****         }
 571:/development/eAPI/eapidk-code/apps/EApiValidateAPI/linux/../EApiValidateAPI.c ****     }
 572:/development/eAPI/eapidk-code/apps/EApiValidateAPI/linux/../EApiValidateAPI.c ****     for(i=0;i<10;i++) /* Iterated thought Ids */
 573:/development/eAPI/eapidk-code/apps/EApiValidateAPI/linux/../EApiValidateAPI.c ****     {
 574:/development/eAPI/eapidk-code/apps/EApiValidateAPI/linux/../EApiValidateAPI.c ****         for(i2=0;i2<ARRAY_SIZE(EApiI2CHLReadValidate);i2++) /* Iterated thought test cases */
 575:/development/eAPI/eapidk-code/apps/EApiValidateAPI/linux/../EApiValidateAPI.c ****         {
 576:/development/eAPI/eapidk-code/apps/EApiValidateAPI/linux/../EApiValidateAPI.c ****             StatusCode=EApiI2CReadTransfer(
 577:/development/eAPI/eapidk-code/apps/EApiValidateAPI/linux/../EApiValidateAPI.c ****                         i                                   ,
 578:/development/eAPI/eapidk-code/apps/EApiValidateAPI/linux/../EApiValidateAPI.c ****                         EApiI2CHLReadValidate[i2].Address   ,
 579:/development/eAPI/eapidk-code/apps/EApiValidateAPI/linux/../EApiValidateAPI.c ****                         EApiI2CHLReadValidate[i2].Offset    ,
 580:/development/eAPI/eapidk-code/apps/EApiValidateAPI/linux/../EApiValidateAPI.c ****                         EApiI2CHLReadValidate[i2].BufPtr    ,
 581:/development/eAPI/eapidk-code/apps/EApiValidateAPI/linux/../EApiValidateAPI.c ****                         EApiI2CHLReadValidate[i2].BufPtrLen ,
 582:/development/eAPI/eapidk-code/apps/EApiValidateAPI/linux/../EApiValidateAPI.c ****                         EApiI2CHLReadValidate[i2].ByteCnt
 583:/development/eAPI/eapidk-code/apps/EApiValidateAPI/linux/../EApiValidateAPI.c ****                         );
 584:/development/eAPI/eapidk-code/apps/EApiValidateAPI/linux/../EApiValidateAPI.c ****             EAPI_LOG_RETURN_VALUE(EApiI2CReadTransfer, EApiI2CHLReadValidate);
 585:/development/eAPI/eapidk-code/apps/EApiValidateAPI/linux/../EApiValidateAPI.c ****         }
 586:/development/eAPI/eapidk-code/apps/EApiValidateAPI/linux/../EApiValidateAPI.c ****     }
 587:/development/eAPI/eapidk-code/apps/EApiValidateAPI/linux/../EApiValidateAPI.c ****     for(i=0;i<10;i++) /* Iterated thought Ids */
 588:/development/eAPI/eapidk-code/apps/EApiValidateAPI/linux/../EApiValidateAPI.c ****     {
 589:/development/eAPI/eapidk-code/apps/EApiValidateAPI/linux/../EApiValidateAPI.c ****         for(i2=0;i2<ARRAY_SIZE(EApiI2CHLWriteValidate);i2++) /* Iterated thought test cases */
 590:/development/eAPI/eapidk-code/apps/EApiValidateAPI/linux/../EApiValidateAPI.c ****         {
 591:/development/eAPI/eapidk-code/apps/EApiValidateAPI/linux/../EApiValidateAPI.c ****             StatusCode=EApiI2CWriteTransfer(
 592:/development/eAPI/eapidk-code/apps/EApiValidateAPI/linux/../EApiValidateAPI.c ****                         i                                   ,
 593:/development/eAPI/eapidk-code/apps/EApiValidateAPI/linux/../EApiValidateAPI.c ****                         EApiI2CHLWriteValidate[i2].Address  ,
 594:/development/eAPI/eapidk-code/apps/EApiValidateAPI/linux/../EApiValidateAPI.c ****                         EApiI2CHLWriteValidate[i2].Offset   ,
GAS LISTING /tmp/ccW7zoDa.s 			page 39


 595:/development/eAPI/eapidk-code/apps/EApiValidateAPI/linux/../EApiValidateAPI.c ****                         EApiI2CHLWriteValidate[i2].BufPtr   ,
 596:/development/eAPI/eapidk-code/apps/EApiValidateAPI/linux/../EApiValidateAPI.c ****                         EApiI2CHLWriteValidate[i2].ByteCnt
 597:/development/eAPI/eapidk-code/apps/EApiValidateAPI/linux/../EApiValidateAPI.c ****                         );
 598:/development/eAPI/eapidk-code/apps/EApiValidateAPI/linux/../EApiValidateAPI.c ****             EAPI_LOG_RETURN_VALUE(EApiI2CWriteTransfer, EApiI2CHLWriteValidate);
 599:/development/eAPI/eapidk-code/apps/EApiValidateAPI/linux/../EApiValidateAPI.c ****         }
 600:/development/eAPI/eapidk-code/apps/EApiValidateAPI/linux/../EApiValidateAPI.c ****     }
 601:/development/eAPI/eapidk-code/apps/EApiValidateAPI/linux/../EApiValidateAPI.c ****     for(i=0;i<10;i++) /* Iterated thought Ids */
 602:/development/eAPI/eapidk-code/apps/EApiValidateAPI/linux/../EApiValidateAPI.c ****     {
 603:/development/eAPI/eapidk-code/apps/EApiValidateAPI/linux/../EApiValidateAPI.c ****         for(i2=0;i2<ARRAY_SIZE(EApiI2CInterfaceValidate);i2++) /* Iterated thought test cases */
 604:/development/eAPI/eapidk-code/apps/EApiValidateAPI/linux/../EApiValidateAPI.c ****         {
 605:/development/eAPI/eapidk-code/apps/EApiValidateAPI/linux/../EApiValidateAPI.c ****             StatusCode=EApiI2CGetBusCap(i, EApiI2CInterfaceValidate[i2].pValue);
 606:/development/eAPI/eapidk-code/apps/EApiValidateAPI/linux/../EApiValidateAPI.c ****             EAPI_LOG_RETURN_VALUE(EApiI2CGetBusCap, EApiI2CInterfaceValidate);
 607:/development/eAPI/eapidk-code/apps/EApiValidateAPI/linux/../EApiValidateAPI.c ****         }
 608:/development/eAPI/eapidk-code/apps/EApiValidateAPI/linux/../EApiValidateAPI.c ****     }
 609:/development/eAPI/eapidk-code/apps/EApiValidateAPI/linux/../EApiValidateAPI.c ****     return ;
 610:/development/eAPI/eapidk-code/apps/EApiValidateAPI/linux/../EApiValidateAPI.c **** }
 1166              		.loc 1 610 0
 1167 075c 488B45F8 		movq	-8(%rbp), %rax
 1168 0760 64483304 		xorq	%fs:40, %rax
 1168      25280000 
 1168      00
 1169 0769 7405     		je	.L48
 1170 076b E8000000 		call	__stack_chk_fail
 1170      00
 1171              	.L48:
 1172 0770 C9       		leave
 1173              		.cfi_def_cfa 7, 8
 1174 0771 C3       		ret
 1175              		.cfi_endproc
 1176              	.LFE6:
 1178              		.globl	EApiStorageDevices
 1179              		.section	.rodata
 1180              	.LC41:
 1181 08f1 5374616E 		.string	"Standard Storage"
 1181      64617264 
 1181      2053746F 
 1181      72616765 
 1181      00
 1182              	.LC42:
 1183 0902 44756D6D 		.string	"Dummy PICMG Storage"
 1183      79205049 
 1183      434D4720 
 1183      53746F72 
 1183      61676500 
 1184 0916 00000000 		.align 32
 1184      00000000 
 1184      0000
 1187              	EApiStorageDevices:
 1188 0920 00000000 		.long	0
 1189 0924 00000000 		.zero	4
 1190 0928 00000000 		.quad	.LC41
 1190      00000000 
 1191 0930 20000000 		.long	32
 1192 0934 00000000 		.zero	4
 1193 0938 001074FA 		.long	-93057024
 1194 093c 00000000 		.zero	4
 1195 0940 00000000 		.quad	.LC42
GAS LISTING /tmp/ccW7zoDa.s 			page 40


 1195      00000000 
 1196 0948 80000000 		.long	128
 1197 094c 00000000 		.zero	4
 1198 0950 000F0000 		.long	3840
 1199 0954 00000000 		.zero	4
 1200 0958 00000000 		.quad	.LC35
 1200      00000000 
 1201 0960 20000000 		.long	32
 1202 0964 00000000 		.zero	4
 1203              		.globl	StorageValidate
 1204 0968 00000000 		.align 32
 1204      00000000 
 1204      00000000 
 1204      00000000 
 1204      00000000 
 1207              	StorageValidate:
 1208 0980 00000000 		.long	0
 1209 0984 00000000 		.zero	4
 1210 0988 00000000 		.quad	Buffer
 1210      00000000 
 1211 0990 00040000 		.long	1024
 1212 0994 0A000000 		.long	10
 1213 0998 00000000 		.long	0
 1214 099c FFFCFFFF 		.long	-769
 1215 09a0 FFFCFFFF 		.long	-769
 1216 09a4 00000000 		.zero	4
 1217 09a8 00000000 		.long	0
 1218 09ac 00000000 		.zero	4
 1219 09b0 00000000 		.quad	0
 1219      00000000 
 1220 09b8 00040000 		.long	1024
 1221 09bc 64000000 		.long	100
 1222 09c0 FFFEFFFF 		.long	-257
 1223 09c4 FFFEFFFF 		.long	-257
 1224 09c8 FFFEFFFF 		.long	-257
 1225 09cc 00000000 		.zero	4
 1226 09d0 21000000 		.long	33
 1227 09d4 00000000 		.zero	4
 1228 09d8 00000000 		.quad	Buffer
 1228      00000000 
 1229 09e0 00000000 		.long	0
 1230 09e4 14000000 		.long	20
 1231 09e8 FFFEFFFF 		.long	-257
 1232 09ec FDFEFFFF 		.long	-259
 1233 09f0 FFFCFFFF 		.long	-769
 1234 09f4 00000000 		.zero	4
 1235 09f8 21000000 		.long	33
 1236 09fc 00000000 		.zero	4
 1237 0a00 00000000 		.quad	Buffer
 1237      00000000 
 1238 0a08 10000000 		.long	16
 1239 0a0c 14000000 		.long	20
 1240 0a10 FDFEFFFF 		.long	-259
 1241 0a14 00000000 		.long	0
 1242 0a18 FFFCFFFF 		.long	-769
 1243 0a1c 00000000 		.zero	4
 1244 0a20 21000000 		.long	33
GAS LISTING /tmp/ccW7zoDa.s 			page 41


 1245 0a24 00000000 		.zero	4
 1246 0a28 00000000 		.quad	Buffer
 1246      00000000 
 1247 0a30 00040000 		.long	1024
 1248 0a34 00000000 		.long	0
 1249 0a38 FFFEFFFF 		.long	-257
 1250 0a3c FFFEFFFF 		.long	-257
 1251 0a40 FFFCFFFF 		.long	-769
 1252 0a44 00000000 		.zero	4
 1253 0a48 01000000 		.long	1
 1254 0a4c 00000000 		.zero	4
 1255 0a50 00000000 		.quad	Buffer
 1255      00000000 
 1256 0a58 00040000 		.long	1024
 1257 0a5c 0A000000 		.long	10
 1258 0a60 00000000 		.long	0
 1259 0a64 FFFCFFFF 		.long	-769
 1260 0a68 FFFCFFFF 		.long	-769
 1261 0a6c 00000000 		.zero	4
 1262              		.comm	StorageSize,4,4
 1263              		.comm	BlockLength,4,4
 1264              		.globl	StorageCapValidate
 1265 0a70 00000000 		.align 32
 1265      00000000 
 1265      00000000 
 1265      00000000 
 1268              	StorageCapValidate:
 1269 0a80 00000000 		.quad	StorageSize
 1269      00000000 
 1270 0a88 00000000 		.quad	BlockLength
 1270      00000000 
 1271 0a90 00000000 		.long	0
 1272 0a94 FFFCFFFF 		.long	-769
 1273 0a98 FFFCFFFF 		.long	-769
 1274 0a9c 00000000 		.zero	4
 1275 0aa0 00000000 		.quad	StorageSize
 1275      00000000 
 1276 0aa8 00000000 		.quad	0
 1276      00000000 
 1277 0ab0 00000000 		.long	0
 1278 0ab4 FFFCFFFF 		.long	-769
 1279 0ab8 FFFCFFFF 		.long	-769
 1280 0abc 00000000 		.zero	4
 1281 0ac0 00000000 		.quad	0
 1281      00000000 
 1282 0ac8 00000000 		.quad	BlockLength
 1282      00000000 
 1283 0ad0 00000000 		.long	0
 1284 0ad4 FFFCFFFF 		.long	-769
 1285 0ad8 FFFCFFFF 		.long	-769
 1286 0adc 00000000 		.zero	4
 1287 0ae0 00000000 		.quad	0
 1287      00000000 
 1288 0ae8 00000000 		.quad	0
 1288      00000000 
 1289 0af0 FFFEFFFF 		.long	-257
 1290 0af4 FFFEFFFF 		.long	-257
GAS LISTING /tmp/ccW7zoDa.s 			page 42


 1291 0af8 FFFEFFFF 		.long	-257
 1292 0afc 00000000 		.zero	4
 1293              	.LC43:
 1294 0b00 252D3330 		.string	"%-30s : "
 1294      73203A20 
 1294      00
 1295              	.LC44:
 1296 0b09 252D3330 		.string	"%-30s : %02X %s\n"
 1296      73203A20 
 1296      25303258 
 1296      2025730A 
 1296      00
 1297              	.LC45:
 1298 0b1a 45417069 		.string	"EApiStorageAreaRead"
 1298      53746F72 
 1298      61676541 
 1298      72656152 
 1298      65616400 
 1299 0b2e 0000     		.align 8
 1300              	.LC46:
 1301 0b30 2F646576 		.string	"/development/eAPI/eapidk-code/apps/EApiValidateAPI/linux/../EApiValidateAPI.c"
 1301      656C6F70 
 1301      6D656E74 
 1301      2F654150 
 1301      492F6561 
 1302              	.LC47:
 1303 0b7e 20202025 		.string	"   %2d    %2d    [%s]\n"
 1303      32642020 
 1303      20202532 
 1303      64202020 
 1303      205B2573 
 1304              	.LC48:
 1305 0b95 45417069 		.string	"EApiStorageAreaWrite"
 1305      53746F72 
 1305      61676541 
 1305      72656157 
 1305      72697465 
 1306              	.LC49:
 1307 0baa 45417069 		.string	"EApiStorageCap"
 1307      53746F72 
 1307      61676543 
 1307      617000
 1308              		.text
 1309              		.globl	EApiValidateStorageApi
 1311              	EApiValidateStorageApi:
 1312              	.LFB7:
 611:/development/eAPI/eapidk-code/apps/EApiValidateAPI/linux/../EApiValidateAPI.c **** /*
 612:/development/eAPI/eapidk-code/apps/EApiValidateAPI/linux/../EApiValidateAPI.c ****  * Test Storage Function
 613:/development/eAPI/eapidk-code/apps/EApiValidateAPI/linux/../EApiValidateAPI.c ****  *
 614:/development/eAPI/eapidk-code/apps/EApiValidateAPI/linux/../EApiValidateAPI.c ****  */
 615:/development/eAPI/eapidk-code/apps/EApiValidateAPI/linux/../EApiValidateAPI.c **** 
 616:/development/eAPI/eapidk-code/apps/EApiValidateAPI/linux/../EApiValidateAPI.c **** typedef struct EApiStorageType_s{
 617:/development/eAPI/eapidk-code/apps/EApiValidateAPI/linux/../EApiValidateAPI.c ****     const EApiId_t  Id     ;
 618:/development/eAPI/eapidk-code/apps/EApiValidateAPI/linux/../EApiValidateAPI.c ****     const TCHAR *const   Desc   ;
 619:/development/eAPI/eapidk-code/apps/EApiValidateAPI/linux/../EApiValidateAPI.c ****     const uint32_t  Length ;
 620:/development/eAPI/eapidk-code/apps/EApiValidateAPI/linux/../EApiValidateAPI.c **** }EApiStorageType_t;
 621:/development/eAPI/eapidk-code/apps/EApiValidateAPI/linux/../EApiValidateAPI.c **** 
GAS LISTING /tmp/ccW7zoDa.s 			page 43


 622:/development/eAPI/eapidk-code/apps/EApiValidateAPI/linux/../EApiValidateAPI.c **** const EApiStorageType_t EApiStorageDevices[]={
 623:/development/eAPI/eapidk-code/apps/EApiValidateAPI/linux/../EApiValidateAPI.c ****     {EAPI_ID_STORAGE_STD        , TEXT("Standard Storage"   ), 0x20},
 624:/development/eAPI/eapidk-code/apps/EApiValidateAPI/linux/../EApiValidateAPI.c ****     {EAPI_PMG_ID_STORAGE_SAMPLE , TEXT("Dummy PICMG Storage"), 0x80},
 625:/development/eAPI/eapidk-code/apps/EApiValidateAPI/linux/../EApiValidateAPI.c ****     {0x00000F00                 , TEXT("Unsupported"        ), 0x20},
 626:/development/eAPI/eapidk-code/apps/EApiValidateAPI/linux/../EApiValidateAPI.c **** };
 627:/development/eAPI/eapidk-code/apps/EApiValidateAPI/linux/../EApiValidateAPI.c **** 
 628:/development/eAPI/eapidk-code/apps/EApiValidateAPI/linux/../EApiValidateAPI.c **** typedef struct EApiStorageValidate_s{
 629:/development/eAPI/eapidk-code/apps/EApiValidateAPI/linux/../EApiValidateAPI.c ****     const uint32_t  Offset      ; /* Read Offset */
 630:/development/eAPI/eapidk-code/apps/EApiValidateAPI/linux/../EApiValidateAPI.c ****     void *    BufPtr      ; /* Buffer Pointer */
 631:/development/eAPI/eapidk-code/apps/EApiValidateAPI/linux/../EApiValidateAPI.c ****     const uint32_t  BufPtrLen   ; /* Buffer Length */
 632:/development/eAPI/eapidk-code/apps/EApiValidateAPI/linux/../EApiValidateAPI.c ****     const uint32_t  ByteCnt     ; /* Byte Count  */
 633:/development/eAPI/eapidk-code/apps/EApiValidateAPI/linux/../EApiValidateAPI.c ****     const EApiStatus_t  StatusCode1 ; /* Allowed Return Value 1 */
 634:/development/eAPI/eapidk-code/apps/EApiValidateAPI/linux/../EApiValidateAPI.c ****     const EApiStatus_t  StatusCode2 ; /* Allowed Return Value 2 */
 635:/development/eAPI/eapidk-code/apps/EApiValidateAPI/linux/../EApiValidateAPI.c ****     const EApiStatus_t  StatusCode3 ; /* Allowed Return Value 3 */
 636:/development/eAPI/eapidk-code/apps/EApiValidateAPI/linux/../EApiValidateAPI.c **** }EApiStorageValidate_t;
 637:/development/eAPI/eapidk-code/apps/EApiValidateAPI/linux/../EApiValidateAPI.c **** const EApiStorageValidate_t StorageValidate[]={
 638:/development/eAPI/eapidk-code/apps/EApiValidateAPI/linux/../EApiValidateAPI.c ****     {0x0000, Buffer, ARRAY_SIZE(Buffer),  10, EAPI_STATUS_SUCCESS             , EAPI_STATUS_UNSUPPO
 639:/development/eAPI/eapidk-code/apps/EApiValidateAPI/linux/../EApiValidateAPI.c ****     {0x0000, NULL  , ARRAY_SIZE(Buffer), 100, EAPI_STATUS_INVALID_PARAMETER   , EAPI_STATUS_INVALID
 640:/development/eAPI/eapidk-code/apps/EApiValidateAPI/linux/../EApiValidateAPI.c ****     {0x0021, Buffer,            0x0000 ,  20, EAPI_STATUS_INVALID_PARAMETER   , EAPI_STATUS_INVALID
 641:/development/eAPI/eapidk-code/apps/EApiValidateAPI/linux/../EApiValidateAPI.c ****     {0x0021, Buffer,            0x0010 ,  20, EAPI_STATUS_INVALID_BLOCK_LENGTH, EAPI_STATUS_SUCCESS
 642:/development/eAPI/eapidk-code/apps/EApiValidateAPI/linux/../EApiValidateAPI.c ****     {0x0021, Buffer, ARRAY_SIZE(Buffer),   0, EAPI_STATUS_INVALID_PARAMETER   , EAPI_STATUS_INVALID
 643:/development/eAPI/eapidk-code/apps/EApiValidateAPI/linux/../EApiValidateAPI.c ****     {0x0001, Buffer, ARRAY_SIZE(Buffer),  10, EAPI_STATUS_SUCCESS             , EAPI_STATUS_UNSUPPO
 644:/development/eAPI/eapidk-code/apps/EApiValidateAPI/linux/../EApiValidateAPI.c **** };
 645:/development/eAPI/eapidk-code/apps/EApiValidateAPI/linux/../EApiValidateAPI.c **** typedef struct EApiStorageCapValidate_s{
 646:/development/eAPI/eapidk-code/apps/EApiValidateAPI/linux/../EApiValidateAPI.c ****     uint32_t *pStorgeSize ; /* Read Offset */
 647:/development/eAPI/eapidk-code/apps/EApiValidateAPI/linux/../EApiValidateAPI.c ****     uint32_t *pBlockLen   ; /* Buffer Pointer */
 648:/development/eAPI/eapidk-code/apps/EApiValidateAPI/linux/../EApiValidateAPI.c ****     const EApiStatus_t  StatusCode1 ; /* Allowed Return Value 1 */
 649:/development/eAPI/eapidk-code/apps/EApiValidateAPI/linux/../EApiValidateAPI.c ****     const EApiStatus_t  StatusCode2 ; /* Allowed Return Value 2 */
 650:/development/eAPI/eapidk-code/apps/EApiValidateAPI/linux/../EApiValidateAPI.c ****     const EApiStatus_t  StatusCode3 ; /* Allowed Return Value 3 */
 651:/development/eAPI/eapidk-code/apps/EApiValidateAPI/linux/../EApiValidateAPI.c **** }EApiStorageCapValidate_t;
 652:/development/eAPI/eapidk-code/apps/EApiValidateAPI/linux/../EApiValidateAPI.c **** uint32_t StorageSize;
 653:/development/eAPI/eapidk-code/apps/EApiValidateAPI/linux/../EApiValidateAPI.c **** uint32_t BlockLength;
 654:/development/eAPI/eapidk-code/apps/EApiValidateAPI/linux/../EApiValidateAPI.c **** const EApiStorageCapValidate_t StorageCapValidate[]={
 655:/development/eAPI/eapidk-code/apps/EApiValidateAPI/linux/../EApiValidateAPI.c ****     {&StorageSize, &BlockLength, EAPI_STATUS_SUCCESS          , EAPI_STATUS_UNSUPPORTED       , EAP
 656:/development/eAPI/eapidk-code/apps/EApiValidateAPI/linux/../EApiValidateAPI.c ****     {&StorageSize, NULL        , EAPI_STATUS_SUCCESS          , EAPI_STATUS_UNSUPPORTED       , EAP
 657:/development/eAPI/eapidk-code/apps/EApiValidateAPI/linux/../EApiValidateAPI.c ****     {NULL        , &BlockLength, EAPI_STATUS_SUCCESS          , EAPI_STATUS_UNSUPPORTED       , EAP
 658:/development/eAPI/eapidk-code/apps/EApiValidateAPI/linux/../EApiValidateAPI.c ****     {NULL        , NULL        , EAPI_STATUS_INVALID_PARAMETER, EAPI_STATUS_INVALID_PARAMETER , EAP
 659:/development/eAPI/eapidk-code/apps/EApiValidateAPI/linux/../EApiValidateAPI.c **** };
 660:/development/eAPI/eapidk-code/apps/EApiValidateAPI/linux/../EApiValidateAPI.c **** void EApiValidateStorageApi(void)
 661:/development/eAPI/eapidk-code/apps/EApiValidateAPI/linux/../EApiValidateAPI.c **** {
 1313              		.loc 1 661 0
 1314              		.cfi_startproc
 1315 0772 55       		pushq	%rbp
 1316              		.cfi_def_cfa_offset 16
 1317              		.cfi_offset 6, -16
 1318 0773 4889E5   		movq	%rsp, %rbp
 1319              		.cfi_def_cfa_register 6
 1320 0776 4881EC20 		subq	$1056, %rsp
 1320      040000
 1321              		.loc 1 661 0
 1322 077d 64488B04 		movq	%fs:40, %rax
 1322      25280000 
 1322      00
 1323 0786 488945F8 		movq	%rax, -8(%rbp)
 1324 078a 31C0     		xorl	%eax, %eax
 662:/development/eAPI/eapidk-code/apps/EApiValidateAPI/linux/../EApiValidateAPI.c ****     TCHAR TmpStrBuf[1024];
 663:/development/eAPI/eapidk-code/apps/EApiValidateAPI/linux/../EApiValidateAPI.c ****     unsigned i,i2;
GAS LISTING /tmp/ccW7zoDa.s 			page 44


 664:/development/eAPI/eapidk-code/apps/EApiValidateAPI/linux/../EApiValidateAPI.c ****     EApiStatus_t StatusCode;
 665:/development/eAPI/eapidk-code/apps/EApiValidateAPI/linux/../EApiValidateAPI.c **** 
 666:/development/eAPI/eapidk-code/apps/EApiValidateAPI/linux/../EApiValidateAPI.c ****     for(i=0;i<ARRAY_SIZE(EApiStorageDevices);i++){
 1325              		.loc 1 666 0
 1326 078c C785E4FB 		movl	$0, -1052(%rbp)
 1326      FFFF0000 
 1326      0000
 1327 0796 E9480200 		jmp	.L50
 1327      00
 1328              	.L55:
 667:/development/eAPI/eapidk-code/apps/EApiValidateAPI/linux/../EApiValidateAPI.c ****         StatusCode=EApiStorageAreaRead(
 1329              		.loc 1 667 0
 1330 079b 8B95E4FB 		movl	-1052(%rbp), %edx
 1330      FFFF
 1331 07a1 4889D0   		movq	%rdx, %rax
 1332 07a4 4801C0   		addq	%rax, %rax
 1333 07a7 4801D0   		addq	%rdx, %rax
 1334 07aa 48C1E003 		salq	$3, %rax
 1335 07ae 48050000 		addq	$EApiStorageDevices+16, %rax
 1335      0000
 1336 07b4 8B08     		movl	(%rax), %ecx
 1337 07b6 8B95E4FB 		movl	-1052(%rbp), %edx
 1337      FFFF
 1338 07bc 4889D0   		movq	%rdx, %rax
 1339 07bf 4801C0   		addq	%rax, %rax
 1340 07c2 4801D0   		addq	%rdx, %rax
 1341 07c5 48C1E003 		salq	$3, %rax
 1342 07c9 48050000 		addq	$EApiStorageDevices, %rax
 1342      0000
 1343 07cf 8B00     		movl	(%rax), %eax
 1344 07d1 488D95F0 		leaq	-1040(%rbp), %rdx
 1344      FBFFFF
 1345 07d8 4189C8   		movl	%ecx, %r8d
 1346 07db B9000400 		movl	$1024, %ecx
 1346      00
 1347 07e0 BE000000 		movl	$0, %esi
 1347      00
 1348 07e5 89C7     		movl	%eax, %edi
 1349 07e7 E8000000 		call	EApiStorageAreaRead
 1349      00
 1350 07ec 8985ECFB 		movl	%eax, -1044(%rbp)
 1350      FFFF
 668:/development/eAPI/eapidk-code/apps/EApiValidateAPI/linux/../EApiValidateAPI.c ****                     EApiStorageDevices[i].Id,
 669:/development/eAPI/eapidk-code/apps/EApiValidateAPI/linux/../EApiValidateAPI.c ****                     0,
 670:/development/eAPI/eapidk-code/apps/EApiValidateAPI/linux/../EApiValidateAPI.c ****                     TmpStrBuf,
 671:/development/eAPI/eapidk-code/apps/EApiValidateAPI/linux/../EApiValidateAPI.c ****                     ARRAY_SIZE(TmpStrBuf) , /* For Debug Purposes */
 672:/development/eAPI/eapidk-code/apps/EApiValidateAPI/linux/../EApiValidateAPI.c ****                     EApiStorageDevices[i].Length
 673:/development/eAPI/eapidk-code/apps/EApiValidateAPI/linux/../EApiValidateAPI.c ****                     );
 674:/development/eAPI/eapidk-code/apps/EApiValidateAPI/linux/../EApiValidateAPI.c ****         if(EAPI_TEST_SUCCESS(StatusCode))
 1351              		.loc 1 674 0
 1352 07f2 83BDECFB 		cmpl	$0, -1044(%rbp)
 1352      FFFF00
 1353 07f9 0F858C01 		jne	.L51
 1353      0000
 675:/development/eAPI/eapidk-code/apps/EApiValidateAPI/linux/../EApiValidateAPI.c ****         {
 676:/development/eAPI/eapidk-code/apps/EApiValidateAPI/linux/../EApiValidateAPI.c ****             EAPI_MSG_OUT(
 1354              		.loc 1 676 0
GAS LISTING /tmp/ccW7zoDa.s 			page 45


 1355 07ff 8B95E4FB 		movl	-1052(%rbp), %edx
 1355      FFFF
 1356 0805 4889D0   		movq	%rdx, %rax
 1357 0808 4801C0   		addq	%rax, %rax
 1358 080b 4801D0   		addq	%rdx, %rax
 1359 080e 48C1E003 		salq	$3, %rax
 1360 0812 48050000 		addq	$EApiStorageDevices+8, %rax
 1360      0000
 1361 0818 488B00   		movq	(%rax), %rax
 1362 081b 4889C6   		movq	%rax, %rsi
 1363 081e BF000000 		movl	$.LC43, %edi
 1363      00
 1364 0823 B8000000 		movl	$0, %eax
 1364      00
 1365 0828 E8000000 		call	printf
 1365      00
 677:/development/eAPI/eapidk-code/apps/EApiValidateAPI/linux/../EApiValidateAPI.c ****                         TEXT("%-30s : "),
 678:/development/eAPI/eapidk-code/apps/EApiValidateAPI/linux/../EApiValidateAPI.c ****                         EApiStorageDevices[i].Desc
 679:/development/eAPI/eapidk-code/apps/EApiValidateAPI/linux/../EApiValidateAPI.c ****                         );
 680:/development/eAPI/eapidk-code/apps/EApiValidateAPI/linux/../EApiValidateAPI.c ****             printHex(stdout, TmpStrBuf, 16);
 1366              		.loc 1 680 0
 1367 082d 488B0500 		movq	stdout(%rip), %rax
 1367      000000
 1368 0834 488D8DF0 		leaq	-1040(%rbp), %rcx
 1368      FBFFFF
 1369 083b BA100000 		movl	$16, %edx
 1369      00
 1370 0840 4889CE   		movq	%rcx, %rsi
 1371 0843 4889C7   		movq	%rax, %rdi
 1372 0846 E8000000 		call	printHex
 1372      00
 681:/development/eAPI/eapidk-code/apps/EApiValidateAPI/linux/../EApiValidateAPI.c ****             EAPI_MSG_OUT(TEXT("\n"));
 1373              		.loc 1 681 0
 1374 084b BF0A0000 		movl	$10, %edi
 1374      00
 1375 0850 E8000000 		call	putchar
 1375      00
 682:/development/eAPI/eapidk-code/apps/EApiValidateAPI/linux/../EApiValidateAPI.c **** #if DESTRUCTIVE_ALLOWED
 683:/development/eAPI/eapidk-code/apps/EApiValidateAPI/linux/../EApiValidateAPI.c ****             StatusCode=EApiAHWriteStorage(
 684:/development/eAPI/eapidk-code/apps/EApiValidateAPI/linux/../EApiValidateAPI.c ****                         EApiStorageDevices[i].Id      ,
 685:/development/eAPI/eapidk-code/apps/EApiValidateAPI/linux/../EApiValidateAPI.c ****                         13                            ,
 686:/development/eAPI/eapidk-code/apps/EApiValidateAPI/linux/../EApiValidateAPI.c ****                         TmpStrBuf                     ,
 687:/development/eAPI/eapidk-code/apps/EApiValidateAPI/linux/../EApiValidateAPI.c ****                         EApiStorageDevices[i].Length/5
 1376              		.loc 1 687 0
 1377 0855 8B95E4FB 		movl	-1052(%rbp), %edx
 1377      FFFF
 1378 085b 4889D0   		movq	%rdx, %rax
 1379 085e 4801C0   		addq	%rax, %rax
 1380 0861 4801D0   		addq	%rdx, %rax
 1381 0864 48C1E003 		salq	$3, %rax
 1382 0868 48050000 		addq	$EApiStorageDevices+16, %rax
 1382      0000
 1383 086e 8B00     		movl	(%rax), %eax
 683:/development/eAPI/eapidk-code/apps/EApiValidateAPI/linux/../EApiValidateAPI.c ****                         EApiStorageDevices[i].Id      ,
 1384              		.loc 1 683 0
 1385 0870 BACDCCCC 		movl	$-858993459, %edx
 1385      CC
GAS LISTING /tmp/ccW7zoDa.s 			page 46


 1386 0875 F7E2     		mull	%edx
 1387 0877 89D1     		movl	%edx, %ecx
 1388 0879 C1E902   		shrl	$2, %ecx
 1389 087c 8B95E4FB 		movl	-1052(%rbp), %edx
 1389      FFFF
 1390 0882 4889D0   		movq	%rdx, %rax
 1391 0885 4801C0   		addq	%rax, %rax
 1392 0888 4801D0   		addq	%rdx, %rax
 1393 088b 48C1E003 		salq	$3, %rax
 1394 088f 48050000 		addq	$EApiStorageDevices, %rax
 1394      0000
 1395 0895 8B00     		movl	(%rax), %eax
 1396 0897 488D95F0 		leaq	-1040(%rbp), %rdx
 1396      FBFFFF
 1397 089e BE0D0000 		movl	$13, %esi
 1397      00
 1398 08a3 89C7     		movl	%eax, %edi
 1399 08a5 E8000000 		call	EApiAHWriteStorage
 1399      00
 1400 08aa 8985ECFB 		movl	%eax, -1044(%rbp)
 1400      FFFF
 688:/development/eAPI/eapidk-code/apps/EApiValidateAPI/linux/../EApiValidateAPI.c ****                         );
 689:/development/eAPI/eapidk-code/apps/EApiValidateAPI/linux/../EApiValidateAPI.c ****             if(EAPI_TEST_SUCCESS(StatusCode))
 1401              		.loc 1 689 0
 1402 08b0 83BDECFB 		cmpl	$0, -1044(%rbp)
 1402      FFFF00
 1403 08b7 755B     		jne	.L52
 690:/development/eAPI/eapidk-code/apps/EApiValidateAPI/linux/../EApiValidateAPI.c ****             {
 691:/development/eAPI/eapidk-code/apps/EApiValidateAPI/linux/../EApiValidateAPI.c ****                 EAPI_MSG_OUT(
 1404              		.loc 1 691 0
 1405 08b9 8B95E4FB 		movl	-1052(%rbp), %edx
 1405      FFFF
 1406 08bf 4889D0   		movq	%rdx, %rax
 1407 08c2 4801C0   		addq	%rax, %rax
 1408 08c5 4801D0   		addq	%rdx, %rax
 1409 08c8 48C1E003 		salq	$3, %rax
 1410 08cc 48050000 		addq	$EApiStorageDevices+8, %rax
 1410      0000
 1411 08d2 488B00   		movq	(%rax), %rax
 1412 08d5 4889C6   		movq	%rax, %rsi
 1413 08d8 BF000000 		movl	$.LC43, %edi
 1413      00
 1414 08dd B8000000 		movl	$0, %eax
 1414      00
 1415 08e2 E8000000 		call	printf
 1415      00
 692:/development/eAPI/eapidk-code/apps/EApiValidateAPI/linux/../EApiValidateAPI.c ****                             TEXT("%-30s : "),
 693:/development/eAPI/eapidk-code/apps/EApiValidateAPI/linux/../EApiValidateAPI.c ****                             EApiStorageDevices[i].Desc
 694:/development/eAPI/eapidk-code/apps/EApiValidateAPI/linux/../EApiValidateAPI.c ****                             );
 695:/development/eAPI/eapidk-code/apps/EApiValidateAPI/linux/../EApiValidateAPI.c ****                 printHex(stdout, TmpStrBuf, 16);
 1416              		.loc 1 695 0
 1417 08e7 488B0500 		movq	stdout(%rip), %rax
 1417      000000
 1418 08ee 488D8DF0 		leaq	-1040(%rbp), %rcx
 1418      FBFFFF
 1419 08f5 BA100000 		movl	$16, %edx
 1419      00
GAS LISTING /tmp/ccW7zoDa.s 			page 47


 1420 08fa 4889CE   		movq	%rcx, %rsi
 1421 08fd 4889C7   		movq	%rax, %rdi
 1422 0900 E8000000 		call	printHex
 1422      00
 696:/development/eAPI/eapidk-code/apps/EApiValidateAPI/linux/../EApiValidateAPI.c ****                 EAPI_MSG_OUT(TEXT("\n"));
 1423              		.loc 1 696 0
 1424 0905 BF0A0000 		movl	$10, %edi
 1424      00
 1425 090a E8000000 		call	putchar
 1425      00
 1426 090f E9C80000 		jmp	.L54
 1426      00
 1427              	.L52:
 697:/development/eAPI/eapidk-code/apps/EApiValidateAPI/linux/../EApiValidateAPI.c ****             }
 698:/development/eAPI/eapidk-code/apps/EApiValidateAPI/linux/../EApiValidateAPI.c ****             else
 699:/development/eAPI/eapidk-code/apps/EApiValidateAPI/linux/../EApiValidateAPI.c ****             {
 700:/development/eAPI/eapidk-code/apps/EApiValidateAPI/linux/../EApiValidateAPI.c ****                 EApiAHCreateErrorString(StatusCode, TmpStrBuf, ARRAY_SIZE(TmpStrBuf));
 1428              		.loc 1 700 0
 1429 0914 488D8DF0 		leaq	-1040(%rbp), %rcx
 1429      FBFFFF
 1430 091b 8B85ECFB 		movl	-1044(%rbp), %eax
 1430      FFFF
 1431 0921 BA000400 		movl	$1024, %edx
 1431      00
 1432 0926 4889CE   		movq	%rcx, %rsi
 1433 0929 89C7     		movl	%eax, %edi
 1434 092b E8000000 		call	EApiAHCreateErrorString
 1434      00
 701:/development/eAPI/eapidk-code/apps/EApiValidateAPI/linux/../EApiValidateAPI.c ****                 EAPI_MSG_OUT(
 702:/development/eAPI/eapidk-code/apps/EApiValidateAPI/linux/../EApiValidateAPI.c ****                             TEXT("%-30s : %02")TEXT(PRIX8)TEXT(" %s\n")      ,
 703:/development/eAPI/eapidk-code/apps/EApiValidateAPI/linux/../EApiValidateAPI.c ****                             EApiStorageDevices[i].Desc,
 704:/development/eAPI/eapidk-code/apps/EApiValidateAPI/linux/../EApiValidateAPI.c ****                             I2CDevices[i].DeviceAddr  ,
 1435              		.loc 1 704 0
 1436 0930 8B95E4FB 		movl	-1052(%rbp), %edx
 1436      FFFF
 1437 0936 4889D0   		movq	%rdx, %rax
 1438 0939 4801C0   		addq	%rax, %rax
 1439 093c 4801D0   		addq	%rdx, %rax
 1440 093f 48C1E002 		salq	$2, %rax
 1441 0943 48050000 		addq	$I2CDevices, %rax
 1441      0000
 1442 0949 0FB700   		movzwl	(%rax), %eax
 701:/development/eAPI/eapidk-code/apps/EApiValidateAPI/linux/../EApiValidateAPI.c ****                 EAPI_MSG_OUT(
 1443              		.loc 1 701 0
 1444 094c 0FB7F0   		movzwl	%ax, %esi
 1445 094f 8B95E4FB 		movl	-1052(%rbp), %edx
 1445      FFFF
 1446 0955 4889D0   		movq	%rdx, %rax
 1447 0958 4801C0   		addq	%rax, %rax
 1448 095b 4801D0   		addq	%rdx, %rax
 1449 095e 48C1E003 		salq	$3, %rax
 1450 0962 48050000 		addq	$EApiStorageDevices+8, %rax
 1450      0000
 1451 0968 488B00   		movq	(%rax), %rax
 1452 096b 488D95F0 		leaq	-1040(%rbp), %rdx
 1452      FBFFFF
 1453 0972 4889D1   		movq	%rdx, %rcx
GAS LISTING /tmp/ccW7zoDa.s 			page 48


 1454 0975 89F2     		movl	%esi, %edx
 1455 0977 4889C6   		movq	%rax, %rsi
 1456 097a BF000000 		movl	$.LC44, %edi
 1456      00
 1457 097f B8000000 		movl	$0, %eax
 1457      00
 1458 0984 E8000000 		call	printf
 1458      00
 1459 0989 EB51     		jmp	.L54
 1460              	.L51:
 705:/development/eAPI/eapidk-code/apps/EApiValidateAPI/linux/../EApiValidateAPI.c ****                             TmpStrBuf
 706:/development/eAPI/eapidk-code/apps/EApiValidateAPI/linux/../EApiValidateAPI.c ****                             );
 707:/development/eAPI/eapidk-code/apps/EApiValidateAPI/linux/../EApiValidateAPI.c ****             }
 708:/development/eAPI/eapidk-code/apps/EApiValidateAPI/linux/../EApiValidateAPI.c **** #endif
 709:/development/eAPI/eapidk-code/apps/EApiValidateAPI/linux/../EApiValidateAPI.c ****         }
 710:/development/eAPI/eapidk-code/apps/EApiValidateAPI/linux/../EApiValidateAPI.c ****         else
 711:/development/eAPI/eapidk-code/apps/EApiValidateAPI/linux/../EApiValidateAPI.c ****         {
 712:/development/eAPI/eapidk-code/apps/EApiValidateAPI/linux/../EApiValidateAPI.c ****             EApiAHCreateErrorString(StatusCode, TmpStrBuf, ARRAY_SIZE(TmpStrBuf));
 1461              		.loc 1 712 0
 1462 098b 488D8DF0 		leaq	-1040(%rbp), %rcx
 1462      FBFFFF
 1463 0992 8B85ECFB 		movl	-1044(%rbp), %eax
 1463      FFFF
 1464 0998 BA000400 		movl	$1024, %edx
 1464      00
 1465 099d 4889CE   		movq	%rcx, %rsi
 1466 09a0 89C7     		movl	%eax, %edi
 1467 09a2 E8000000 		call	EApiAHCreateErrorString
 1467      00
 713:/development/eAPI/eapidk-code/apps/EApiValidateAPI/linux/../EApiValidateAPI.c ****             EAPI_MSG_OUT(TEXT("%-30s : %s\n"), EApiStorageDevices[i].Desc, TmpStrBuf);
 1468              		.loc 1 713 0
 1469 09a7 8B95E4FB 		movl	-1052(%rbp), %edx
 1469      FFFF
 1470 09ad 4889D0   		movq	%rdx, %rax
 1471 09b0 4801C0   		addq	%rax, %rax
 1472 09b3 4801D0   		addq	%rdx, %rax
 1473 09b6 48C1E003 		salq	$3, %rax
 1474 09ba 48050000 		addq	$EApiStorageDevices+8, %rax
 1474      0000
 1475 09c0 488B00   		movq	(%rax), %rax
 1476 09c3 488D95F0 		leaq	-1040(%rbp), %rdx
 1476      FBFFFF
 1477 09ca 4889C6   		movq	%rax, %rsi
 1478 09cd BF000000 		movl	$.LC13, %edi
 1478      00
 1479 09d2 B8000000 		movl	$0, %eax
 1479      00
 1480 09d7 E8000000 		call	printf
 1480      00
 1481              	.L54:
 666:/development/eAPI/eapidk-code/apps/EApiValidateAPI/linux/../EApiValidateAPI.c ****         StatusCode=EApiStorageAreaRead(
 1482              		.loc 1 666 0 discriminator 2
 1483 09dc 8385E4FB 		addl	$1, -1052(%rbp)
 1483      FFFF01
 1484              	.L50:
 666:/development/eAPI/eapidk-code/apps/EApiValidateAPI/linux/../EApiValidateAPI.c ****         StatusCode=EApiStorageAreaRead(
 1485              		.loc 1 666 0 is_stmt 0 discriminator 1
GAS LISTING /tmp/ccW7zoDa.s 			page 49


 1486 09e3 83BDE4FB 		cmpl	$2, -1052(%rbp)
 1486      FFFF02
 1487 09ea 0F86ABFD 		jbe	.L55
 1487      FFFF
 714:/development/eAPI/eapidk-code/apps/EApiValidateAPI/linux/../EApiValidateAPI.c ****         }
 715:/development/eAPI/eapidk-code/apps/EApiValidateAPI/linux/../EApiValidateAPI.c ****     }
 716:/development/eAPI/eapidk-code/apps/EApiValidateAPI/linux/../EApiValidateAPI.c ****     /*
 717:/development/eAPI/eapidk-code/apps/EApiValidateAPI/linux/../EApiValidateAPI.c ****    * More Rigorous Interfaces Verification
 718:/development/eAPI/eapidk-code/apps/EApiValidateAPI/linux/../EApiValidateAPI.c ****    */
 719:/development/eAPI/eapidk-code/apps/EApiValidateAPI/linux/../EApiValidateAPI.c ****     for(i=0;i<10;i++) /* Iterate thought Ids */
 1488              		.loc 1 719 0 is_stmt 1
 1489 09f0 C785E4FB 		movl	$0, -1052(%rbp)
 1489      FFFF0000 
 1489      0000
 1490 09fa E9B50200 		jmp	.L56
 1490      00
 1491              	.L65:
 720:/development/eAPI/eapidk-code/apps/EApiValidateAPI/linux/../EApiValidateAPI.c ****     {
 721:/development/eAPI/eapidk-code/apps/EApiValidateAPI/linux/../EApiValidateAPI.c ****         for(i2=0;i2<ARRAY_SIZE(StorageValidate);i2++) /* Iterated thought test cases */
 1492              		.loc 1 721 0
 1493 09ff C785E8FB 		movl	$0, -1048(%rbp)
 1493      FFFF0000 
 1493      0000
 1494 0a09 E9920200 		jmp	.L57
 1494      00
 1495              	.L64:
 722:/development/eAPI/eapidk-code/apps/EApiValidateAPI/linux/../EApiValidateAPI.c ****         {
 723:/development/eAPI/eapidk-code/apps/EApiValidateAPI/linux/../EApiValidateAPI.c ****             StatusCode=EApiStorageAreaRead(
 1496              		.loc 1 723 0
 1497 0a0e 8B95E8FB 		movl	-1048(%rbp), %edx
 1497      FFFF
 1498 0a14 4889D0   		movq	%rdx, %rax
 1499 0a17 48C1E002 		salq	$2, %rax
 1500 0a1b 4801D0   		addq	%rdx, %rax
 1501 0a1e 48C1E003 		salq	$3, %rax
 1502 0a22 48050000 		addq	$StorageValidate+20, %rax
 1502      0000
 1503 0a28 448B00   		movl	(%rax), %r8d
 1504 0a2b 8B95E8FB 		movl	-1048(%rbp), %edx
 1504      FFFF
 1505 0a31 4889D0   		movq	%rdx, %rax
 1506 0a34 48C1E002 		salq	$2, %rax
 1507 0a38 4801D0   		addq	%rdx, %rax
 1508 0a3b 48C1E003 		salq	$3, %rax
 1509 0a3f 48050000 		addq	$StorageValidate+16, %rax
 1509      0000
 1510 0a45 8B08     		movl	(%rax), %ecx
 1511 0a47 8B95E8FB 		movl	-1048(%rbp), %edx
 1511      FFFF
 1512 0a4d 4889D0   		movq	%rdx, %rax
 1513 0a50 48C1E002 		salq	$2, %rax
 1514 0a54 4801D0   		addq	%rdx, %rax
 1515 0a57 48C1E003 		salq	$3, %rax
 1516 0a5b 48050000 		addq	$StorageValidate+8, %rax
 1516      0000
 1517 0a61 488B38   		movq	(%rax), %rdi
 1518 0a64 8B95E8FB 		movl	-1048(%rbp), %edx
GAS LISTING /tmp/ccW7zoDa.s 			page 50


 1518      FFFF
 1519 0a6a 4889D0   		movq	%rdx, %rax
 1520 0a6d 48C1E002 		salq	$2, %rax
 1521 0a71 4801D0   		addq	%rdx, %rax
 1522 0a74 48C1E003 		salq	$3, %rax
 1523 0a78 48050000 		addq	$StorageValidate, %rax
 1523      0000
 1524 0a7e 8B30     		movl	(%rax), %esi
 1525 0a80 8B85E4FB 		movl	-1052(%rbp), %eax
 1525      FFFF
 1526 0a86 4889FA   		movq	%rdi, %rdx
 1527 0a89 89C7     		movl	%eax, %edi
 1528 0a8b E8000000 		call	EApiStorageAreaRead
 1528      00
 1529 0a90 8985ECFB 		movl	%eax, -1044(%rbp)
 1529      FFFF
 724:/development/eAPI/eapidk-code/apps/EApiValidateAPI/linux/../EApiValidateAPI.c ****                         i                             ,
 725:/development/eAPI/eapidk-code/apps/EApiValidateAPI/linux/../EApiValidateAPI.c ****                         StorageValidate[i2].Offset    ,
 726:/development/eAPI/eapidk-code/apps/EApiValidateAPI/linux/../EApiValidateAPI.c ****                         StorageValidate[i2].BufPtr    ,
 727:/development/eAPI/eapidk-code/apps/EApiValidateAPI/linux/../EApiValidateAPI.c ****                         StorageValidate[i2].BufPtrLen ,
 728:/development/eAPI/eapidk-code/apps/EApiValidateAPI/linux/../EApiValidateAPI.c ****                         StorageValidate[i2].ByteCnt
 729:/development/eAPI/eapidk-code/apps/EApiValidateAPI/linux/../EApiValidateAPI.c ****                         );
 730:/development/eAPI/eapidk-code/apps/EApiValidateAPI/linux/../EApiValidateAPI.c ****             EAPI_LOG_RETURN_VALUE(EApiStorageAreaRead, StorageValidate);
 1530              		.loc 1 730 0
 1531 0a96 8B95E8FB 		movl	-1048(%rbp), %edx
 1531      FFFF
 1532 0a9c 4889D0   		movq	%rdx, %rax
 1533 0a9f 48C1E002 		salq	$2, %rax
 1534 0aa3 4801D0   		addq	%rdx, %rax
 1535 0aa6 48C1E003 		salq	$3, %rax
 1536 0aaa 48050000 		addq	$StorageValidate+24, %rax
 1536      0000
 1537 0ab0 8B00     		movl	(%rax), %eax
 1538 0ab2 3B85ECFB 		cmpl	-1044(%rbp), %eax
 1538      FFFF
 1539 0ab8 7448     		je	.L58
 1540              		.loc 1 730 0 is_stmt 0 discriminator 2
 1541 0aba 8B95E8FB 		movl	-1048(%rbp), %edx
 1541      FFFF
 1542 0ac0 4889D0   		movq	%rdx, %rax
 1543 0ac3 48C1E002 		salq	$2, %rax
 1544 0ac7 4801D0   		addq	%rdx, %rax
 1545 0aca 48C1E003 		salq	$3, %rax
 1546 0ace 48050000 		addq	$StorageValidate+28, %rax
 1546      0000
 1547 0ad4 8B00     		movl	(%rax), %eax
 1548 0ad6 3B85ECFB 		cmpl	-1044(%rbp), %eax
 1548      FFFF
 1549 0adc 7424     		je	.L58
 1550              		.loc 1 730 0 discriminator 4
 1551 0ade 8B95E8FB 		movl	-1048(%rbp), %edx
 1551      FFFF
 1552 0ae4 4889D0   		movq	%rdx, %rax
 1553 0ae7 48C1E002 		salq	$2, %rax
 1554 0aeb 4801D0   		addq	%rdx, %rax
 1555 0aee 48C1E003 		salq	$3, %rax
 1556 0af2 48050000 		addq	$StorageValidate+32, %rax
GAS LISTING /tmp/ccW7zoDa.s 			page 51


 1556      0000
 1557 0af8 8B00     		movl	(%rax), %eax
 1558 0afa 3B85ECFB 		cmpl	-1044(%rbp), %eax
 1558      FFFF
 1559 0b00 7507     		jne	.L59
 1560              	.L58:
 1561              		.loc 1 730 0 discriminator 5
 1562 0b02 B8010000 		movl	$1, %eax
 1562      00
 1563 0b07 EB05     		jmp	.L60
 1564              	.L59:
 1565              		.loc 1 730 0 discriminator 6
 1566 0b09 B8000000 		movl	$0, %eax
 1566      00
 1567              	.L60:
 1568              		.loc 1 730 0 discriminator 8
 1569 0b0e 4898     		cltq
 1570 0b10 488B14C5 		movq	FailPass(,%rax,8), %rdx
 1570      00000000 
 1571 0b18 488B0500 		movq	LogStream(%rip), %rax
 1571      000000
 1572 0b1f 8B8DECFB 		movl	-1044(%rbp), %ecx
 1572      FFFF
 1573 0b25 52       		pushq	%rdx
 1574 0b26 8B95E8FB 		movl	-1048(%rbp), %edx
 1574      FFFF
 1575 0b2c 52       		pushq	%rdx
 1576 0b2d 8B95E4FB 		movl	-1052(%rbp), %edx
 1576      FFFF
 1577 0b33 52       		pushq	%rdx
 1578 0b34 68000000 		pushq	$.LC47
 1578      00
 1579 0b39 4189C9   		movl	%ecx, %r9d
 1580 0b3c 41B8DA02 		movl	$730, %r8d
 1580      0000
 1581 0b42 B9000000 		movl	$.LC45, %ecx
 1581      00
 1582 0b47 BA000000 		movl	$.LC46, %edx
 1582      00
 1583 0b4c BE4C0000 		movl	$76, %esi
 1583      00
 1584 0b51 4889C7   		movq	%rax, %rdi
 1585 0b54 B8000000 		movl	$0, %eax
 1585      00
 1586 0b59 E8000000 		call	siFFormattedMessage_SC
 1586      00
 1587 0b5e 4883C420 		addq	$32, %rsp
 731:/development/eAPI/eapidk-code/apps/EApiValidateAPI/linux/../EApiValidateAPI.c **** #if DESTRUCTIVE_ALLOWED
 732:/development/eAPI/eapidk-code/apps/EApiValidateAPI/linux/../EApiValidateAPI.c ****             StatusCode=EApiStorageAreaWrite(
 1588              		.loc 1 732 0 is_stmt 1 discriminator 8
 1589 0b62 8B95E8FB 		movl	-1048(%rbp), %edx
 1589      FFFF
 1590 0b68 4889D0   		movq	%rdx, %rax
 1591 0b6b 48C1E002 		salq	$2, %rax
 1592 0b6f 4801D0   		addq	%rdx, %rax
 1593 0b72 48C1E003 		salq	$3, %rax
 1594 0b76 48050000 		addq	$StorageValidate+20, %rax
GAS LISTING /tmp/ccW7zoDa.s 			page 52


 1594      0000
 1595 0b7c 8B08     		movl	(%rax), %ecx
 1596 0b7e 8B95E8FB 		movl	-1048(%rbp), %edx
 1596      FFFF
 1597 0b84 4889D0   		movq	%rdx, %rax
 1598 0b87 48C1E002 		salq	$2, %rax
 1599 0b8b 4801D0   		addq	%rdx, %rax
 1600 0b8e 48C1E003 		salq	$3, %rax
 1601 0b92 48050000 		addq	$StorageValidate+8, %rax
 1601      0000
 1602 0b98 488B38   		movq	(%rax), %rdi
 1603 0b9b 8B95E8FB 		movl	-1048(%rbp), %edx
 1603      FFFF
 1604 0ba1 4889D0   		movq	%rdx, %rax
 1605 0ba4 48C1E002 		salq	$2, %rax
 1606 0ba8 4801D0   		addq	%rdx, %rax
 1607 0bab 48C1E003 		salq	$3, %rax
 1608 0baf 48050000 		addq	$StorageValidate, %rax
 1608      0000
 1609 0bb5 8B30     		movl	(%rax), %esi
 1610 0bb7 8B85E4FB 		movl	-1052(%rbp), %eax
 1610      FFFF
 1611 0bbd 4889FA   		movq	%rdi, %rdx
 1612 0bc0 89C7     		movl	%eax, %edi
 1613 0bc2 E8000000 		call	EApiStorageAreaWrite
 1613      00
 1614 0bc7 8985ECFB 		movl	%eax, -1044(%rbp)
 1614      FFFF
 733:/development/eAPI/eapidk-code/apps/EApiValidateAPI/linux/../EApiValidateAPI.c ****                         i                           ,
 734:/development/eAPI/eapidk-code/apps/EApiValidateAPI/linux/../EApiValidateAPI.c ****                         StorageValidate[i2].Offset  ,
 735:/development/eAPI/eapidk-code/apps/EApiValidateAPI/linux/../EApiValidateAPI.c ****                         StorageValidate[i2].BufPtr  ,
 736:/development/eAPI/eapidk-code/apps/EApiValidateAPI/linux/../EApiValidateAPI.c ****                         StorageValidate[i2].ByteCnt
 737:/development/eAPI/eapidk-code/apps/EApiValidateAPI/linux/../EApiValidateAPI.c ****                         );
 738:/development/eAPI/eapidk-code/apps/EApiValidateAPI/linux/../EApiValidateAPI.c ****             EAPI_LOG_RETURN_VALUE(EApiStorageAreaWrite, StorageValidate);
 1615              		.loc 1 738 0 discriminator 8
 1616 0bcd 8B95E8FB 		movl	-1048(%rbp), %edx
 1616      FFFF
 1617 0bd3 4889D0   		movq	%rdx, %rax
 1618 0bd6 48C1E002 		salq	$2, %rax
 1619 0bda 4801D0   		addq	%rdx, %rax
 1620 0bdd 48C1E003 		salq	$3, %rax
 1621 0be1 48050000 		addq	$StorageValidate+24, %rax
 1621      0000
 1622 0be7 8B00     		movl	(%rax), %eax
 1623 0be9 3B85ECFB 		cmpl	-1044(%rbp), %eax
 1623      FFFF
 1624 0bef 7448     		je	.L61
 1625              		.loc 1 738 0 is_stmt 0 discriminator 2
 1626 0bf1 8B95E8FB 		movl	-1048(%rbp), %edx
 1626      FFFF
 1627 0bf7 4889D0   		movq	%rdx, %rax
 1628 0bfa 48C1E002 		salq	$2, %rax
 1629 0bfe 4801D0   		addq	%rdx, %rax
 1630 0c01 48C1E003 		salq	$3, %rax
 1631 0c05 48050000 		addq	$StorageValidate+28, %rax
 1631      0000
 1632 0c0b 8B00     		movl	(%rax), %eax
GAS LISTING /tmp/ccW7zoDa.s 			page 53


 1633 0c0d 3B85ECFB 		cmpl	-1044(%rbp), %eax
 1633      FFFF
 1634 0c13 7424     		je	.L61
 1635              		.loc 1 738 0 discriminator 4
 1636 0c15 8B95E8FB 		movl	-1048(%rbp), %edx
 1636      FFFF
 1637 0c1b 4889D0   		movq	%rdx, %rax
 1638 0c1e 48C1E002 		salq	$2, %rax
 1639 0c22 4801D0   		addq	%rdx, %rax
 1640 0c25 48C1E003 		salq	$3, %rax
 1641 0c29 48050000 		addq	$StorageValidate+32, %rax
 1641      0000
 1642 0c2f 8B00     		movl	(%rax), %eax
 1643 0c31 3B85ECFB 		cmpl	-1044(%rbp), %eax
 1643      FFFF
 1644 0c37 7507     		jne	.L62
 1645              	.L61:
 1646              		.loc 1 738 0 discriminator 5
 1647 0c39 B8010000 		movl	$1, %eax
 1647      00
 1648 0c3e EB05     		jmp	.L63
 1649              	.L62:
 1650              		.loc 1 738 0 discriminator 6
 1651 0c40 B8000000 		movl	$0, %eax
 1651      00
 1652              	.L63:
 1653              		.loc 1 738 0 discriminator 8
 1654 0c45 4898     		cltq
 1655 0c47 488B14C5 		movq	FailPass(,%rax,8), %rdx
 1655      00000000 
 1656 0c4f 488B0500 		movq	LogStream(%rip), %rax
 1656      000000
 1657 0c56 8B8DECFB 		movl	-1044(%rbp), %ecx
 1657      FFFF
 1658 0c5c 52       		pushq	%rdx
 1659 0c5d 8B95E8FB 		movl	-1048(%rbp), %edx
 1659      FFFF
 1660 0c63 52       		pushq	%rdx
 1661 0c64 8B95E4FB 		movl	-1052(%rbp), %edx
 1661      FFFF
 1662 0c6a 52       		pushq	%rdx
 1663 0c6b 68000000 		pushq	$.LC47
 1663      00
 1664 0c70 4189C9   		movl	%ecx, %r9d
 1665 0c73 41B8E202 		movl	$738, %r8d
 1665      0000
 1666 0c79 B9000000 		movl	$.LC48, %ecx
 1666      00
 1667 0c7e BA000000 		movl	$.LC46, %edx
 1667      00
 1668 0c83 BE4C0000 		movl	$76, %esi
 1668      00
 1669 0c88 4889C7   		movq	%rax, %rdi
 1670 0c8b B8000000 		movl	$0, %eax
 1670      00
 1671 0c90 E8000000 		call	siFFormattedMessage_SC
 1671      00
GAS LISTING /tmp/ccW7zoDa.s 			page 54


 1672 0c95 4883C420 		addq	$32, %rsp
 721:/development/eAPI/eapidk-code/apps/EApiValidateAPI/linux/../EApiValidateAPI.c ****         {
 1673              		.loc 1 721 0 is_stmt 1 discriminator 8
 1674 0c99 8385E8FB 		addl	$1, -1048(%rbp)
 1674      FFFF01
 1675              	.L57:
 721:/development/eAPI/eapidk-code/apps/EApiValidateAPI/linux/../EApiValidateAPI.c ****         {
 1676              		.loc 1 721 0 is_stmt 0 discriminator 2
 1677 0ca0 83BDE8FB 		cmpl	$5, -1048(%rbp)
 1677      FFFF05
 1678 0ca7 0F8661FD 		jbe	.L64
 1678      FFFF
 719:/development/eAPI/eapidk-code/apps/EApiValidateAPI/linux/../EApiValidateAPI.c ****     {
 1679              		.loc 1 719 0 is_stmt 1 discriminator 2
 1680 0cad 8385E4FB 		addl	$1, -1052(%rbp)
 1680      FFFF01
 1681              	.L56:
 719:/development/eAPI/eapidk-code/apps/EApiValidateAPI/linux/../EApiValidateAPI.c ****     {
 1682              		.loc 1 719 0 is_stmt 0 discriminator 1
 1683 0cb4 83BDE4FB 		cmpl	$9, -1052(%rbp)
 1683      FFFF09
 1684 0cbb 0F863EFD 		jbe	.L65
 1684      FFFF
 739:/development/eAPI/eapidk-code/apps/EApiValidateAPI/linux/../EApiValidateAPI.c **** #endif
 740:/development/eAPI/eapidk-code/apps/EApiValidateAPI/linux/../EApiValidateAPI.c ****         }
 741:/development/eAPI/eapidk-code/apps/EApiValidateAPI/linux/../EApiValidateAPI.c ****     }
 742:/development/eAPI/eapidk-code/apps/EApiValidateAPI/linux/../EApiValidateAPI.c ****     for(i=0;i<10;i++) /* Iterated thought Ids */
 1685              		.loc 1 742 0 is_stmt 1
 1686 0cc1 C785E4FB 		movl	$0, -1052(%rbp)
 1686      FFFF0000 
 1686      0000
 1687 0ccb E9140100 		jmp	.L66
 1687      00
 1688              	.L72:
 743:/development/eAPI/eapidk-code/apps/EApiValidateAPI/linux/../EApiValidateAPI.c ****     {
 744:/development/eAPI/eapidk-code/apps/EApiValidateAPI/linux/../EApiValidateAPI.c ****         for(i2=0;i2<ARRAY_SIZE(StorageCapValidate);i2++) /* Iterated thought test cases */
 1689              		.loc 1 744 0
 1690 0cd0 C785E8FB 		movl	$0, -1048(%rbp)
 1690      FFFF0000 
 1690      0000
 1691 0cda E9F10000 		jmp	.L67
 1691      00
 1692              	.L71:
 745:/development/eAPI/eapidk-code/apps/EApiValidateAPI/linux/../EApiValidateAPI.c ****         {
 746:/development/eAPI/eapidk-code/apps/EApiValidateAPI/linux/../EApiValidateAPI.c ****             StatusCode=EApiStorageCap(
 1693              		.loc 1 746 0
 1694 0cdf 8B85E8FB 		movl	-1048(%rbp), %eax
 1694      FFFF
 1695 0ce5 48C1E005 		salq	$5, %rax
 1696 0ce9 48050000 		addq	$StorageCapValidate+8, %rax
 1696      0000
 1697 0cef 488B10   		movq	(%rax), %rdx
 1698 0cf2 8B85E8FB 		movl	-1048(%rbp), %eax
 1698      FFFF
 1699 0cf8 48C1E005 		salq	$5, %rax
 1700 0cfc 48050000 		addq	$StorageCapValidate, %rax
 1700      0000
GAS LISTING /tmp/ccW7zoDa.s 			page 55


 1701 0d02 488B08   		movq	(%rax), %rcx
 1702 0d05 8B85E4FB 		movl	-1052(%rbp), %eax
 1702      FFFF
 1703 0d0b 4889CE   		movq	%rcx, %rsi
 1704 0d0e 89C7     		movl	%eax, %edi
 1705 0d10 E8000000 		call	EApiStorageCap
 1705      00
 1706 0d15 8985ECFB 		movl	%eax, -1044(%rbp)
 1706      FFFF
 747:/development/eAPI/eapidk-code/apps/EApiValidateAPI/linux/../EApiValidateAPI.c ****                         i                                 ,
 748:/development/eAPI/eapidk-code/apps/EApiValidateAPI/linux/../EApiValidateAPI.c ****                         StorageCapValidate[i2].pStorgeSize,
 749:/development/eAPI/eapidk-code/apps/EApiValidateAPI/linux/../EApiValidateAPI.c ****                         StorageCapValidate[i2].pBlockLen
 750:/development/eAPI/eapidk-code/apps/EApiValidateAPI/linux/../EApiValidateAPI.c ****                         );
 751:/development/eAPI/eapidk-code/apps/EApiValidateAPI/linux/../EApiValidateAPI.c ****             EAPI_LOG_RETURN_VALUE(EApiStorageCap, StorageCapValidate);
 1707              		.loc 1 751 0
 1708 0d1b 8B85E8FB 		movl	-1048(%rbp), %eax
 1708      FFFF
 1709 0d21 48C1E005 		salq	$5, %rax
 1710 0d25 48050000 		addq	$StorageCapValidate+16, %rax
 1710      0000
 1711 0d2b 8B00     		movl	(%rax), %eax
 1712 0d2d 3B85ECFB 		cmpl	-1044(%rbp), %eax
 1712      FFFF
 1713 0d33 7434     		je	.L68
 1714              		.loc 1 751 0 is_stmt 0 discriminator 2
 1715 0d35 8B85E8FB 		movl	-1048(%rbp), %eax
 1715      FFFF
 1716 0d3b 48C1E005 		salq	$5, %rax
 1717 0d3f 48050000 		addq	$StorageCapValidate+20, %rax
 1717      0000
 1718 0d45 8B00     		movl	(%rax), %eax
 1719 0d47 3B85ECFB 		cmpl	-1044(%rbp), %eax
 1719      FFFF
 1720 0d4d 741A     		je	.L68
 1721              		.loc 1 751 0 discriminator 4
 1722 0d4f 8B85E8FB 		movl	-1048(%rbp), %eax
 1722      FFFF
 1723 0d55 48C1E005 		salq	$5, %rax
 1724 0d59 48050000 		addq	$StorageCapValidate+24, %rax
 1724      0000
 1725 0d5f 8B00     		movl	(%rax), %eax
 1726 0d61 3B85ECFB 		cmpl	-1044(%rbp), %eax
 1726      FFFF
 1727 0d67 7507     		jne	.L69
 1728              	.L68:
 1729              		.loc 1 751 0 discriminator 5
 1730 0d69 B8010000 		movl	$1, %eax
 1730      00
 1731 0d6e EB05     		jmp	.L70
 1732              	.L69:
 1733              		.loc 1 751 0 discriminator 6
 1734 0d70 B8000000 		movl	$0, %eax
 1734      00
 1735              	.L70:
 1736              		.loc 1 751 0 discriminator 8
 1737 0d75 4898     		cltq
 1738 0d77 488B14C5 		movq	FailPass(,%rax,8), %rdx
GAS LISTING /tmp/ccW7zoDa.s 			page 56


 1738      00000000 
 1739 0d7f 488B0500 		movq	LogStream(%rip), %rax
 1739      000000
 1740 0d86 8B8DECFB 		movl	-1044(%rbp), %ecx
 1740      FFFF
 1741 0d8c 52       		pushq	%rdx
 1742 0d8d 8B95E8FB 		movl	-1048(%rbp), %edx
 1742      FFFF
 1743 0d93 52       		pushq	%rdx
 1744 0d94 8B95E4FB 		movl	-1052(%rbp), %edx
 1744      FFFF
 1745 0d9a 52       		pushq	%rdx
 1746 0d9b 68000000 		pushq	$.LC47
 1746      00
 1747 0da0 4189C9   		movl	%ecx, %r9d
 1748 0da3 41B8EF02 		movl	$751, %r8d
 1748      0000
 1749 0da9 B9000000 		movl	$.LC49, %ecx
 1749      00
 1750 0dae BA000000 		movl	$.LC46, %edx
 1750      00
 1751 0db3 BE4C0000 		movl	$76, %esi
 1751      00
 1752 0db8 4889C7   		movq	%rax, %rdi
 1753 0dbb B8000000 		movl	$0, %eax
 1753      00
 1754 0dc0 E8000000 		call	siFFormattedMessage_SC
 1754      00
 1755 0dc5 4883C420 		addq	$32, %rsp
 744:/development/eAPI/eapidk-code/apps/EApiValidateAPI/linux/../EApiValidateAPI.c ****         {
 1756              		.loc 1 744 0 is_stmt 1 discriminator 8
 1757 0dc9 8385E8FB 		addl	$1, -1048(%rbp)
 1757      FFFF01
 1758              	.L67:
 744:/development/eAPI/eapidk-code/apps/EApiValidateAPI/linux/../EApiValidateAPI.c ****         {
 1759              		.loc 1 744 0 is_stmt 0 discriminator 2
 1760 0dd0 83BDE8FB 		cmpl	$3, -1048(%rbp)
 1760      FFFF03
 1761 0dd7 0F8602FF 		jbe	.L71
 1761      FFFF
 742:/development/eAPI/eapidk-code/apps/EApiValidateAPI/linux/../EApiValidateAPI.c ****     {
 1762              		.loc 1 742 0 is_stmt 1 discriminator 2
 1763 0ddd 8385E4FB 		addl	$1, -1052(%rbp)
 1763      FFFF01
 1764              	.L66:
 742:/development/eAPI/eapidk-code/apps/EApiValidateAPI/linux/../EApiValidateAPI.c ****     {
 1765              		.loc 1 742 0 is_stmt 0 discriminator 1
 1766 0de4 83BDE4FB 		cmpl	$9, -1052(%rbp)
 1766      FFFF09
 1767 0deb 0F86DFFE 		jbe	.L72
 1767      FFFF
 752:/development/eAPI/eapidk-code/apps/EApiValidateAPI/linux/../EApiValidateAPI.c ****         }
 753:/development/eAPI/eapidk-code/apps/EApiValidateAPI/linux/../EApiValidateAPI.c ****     }
 754:/development/eAPI/eapidk-code/apps/EApiValidateAPI/linux/../EApiValidateAPI.c ****     return ;
 1768              		.loc 1 754 0 is_stmt 1
 1769 0df1 90       		nop
 755:/development/eAPI/eapidk-code/apps/EApiValidateAPI/linux/../EApiValidateAPI.c **** }
GAS LISTING /tmp/ccW7zoDa.s 			page 57


 1770              		.loc 1 755 0
 1771 0df2 488B45F8 		movq	-8(%rbp), %rax
 1772 0df6 64483304 		xorq	%fs:40, %rax
 1772      25280000 
 1772      00
 1773 0dff 7405     		je	.L74
 1774 0e01 E8000000 		call	__stack_chk_fail
 1774      00
 1775              	.L74:
 1776 0e06 C9       		leave
 1777              		.cfi_def_cfa 7, 8
 1778 0e07 C3       		ret
 1779              		.cfi_endproc
 1780              	.LFE7:
 1782              		.comm	GpioInputs,4,4
 1783              		.comm	GpioOutputs,4,4
 1784              		.globl	EApiGpioterfaceValidate
 1785              		.section	.rodata
 1786 0bb9 00000000 		.align 32
 1786      000000
 1789              	EApiGpioterfaceValidate:
 1790 0bc0 00000000 		.quad	GpioInputs
 1790      00000000 
 1791 0bc8 00000000 		.quad	GpioOutputs
 1791      00000000 
 1792 0bd0 00000000 		.long	0
 1793 0bd4 FFFCFFFF 		.long	-769
 1794 0bd8 FFFCFFFF 		.long	-769
 1795 0bdc 00000000 		.zero	4
 1796 0be0 00000000 		.quad	GpioInputs
 1796      00000000 
 1797 0be8 00000000 		.quad	0
 1797      00000000 
 1798 0bf0 00000000 		.long	0
 1799 0bf4 FFFCFFFF 		.long	-769
 1800 0bf8 FFFCFFFF 		.long	-769
 1801 0bfc 00000000 		.zero	4
 1802 0c00 00000000 		.quad	0
 1802      00000000 
 1803 0c08 00000000 		.quad	GpioOutputs
 1803      00000000 
 1804 0c10 00000000 		.long	0
 1805 0c14 FFFCFFFF 		.long	-769
 1806 0c18 FFFCFFFF 		.long	-769
 1807 0c1c 00000000 		.zero	4
 1808 0c20 00000000 		.quad	0
 1808      00000000 
 1809 0c28 00000000 		.quad	0
 1809      00000000 
 1810 0c30 FFFEFFFF 		.long	-257
 1811 0c34 FFFEFFFF 		.long	-257
 1812 0c38 FFFEFFFF 		.long	-257
 1813 0c3c 00000000 		.zero	4
 1814              		.globl	EApiGpioDevices
 1815              	.LC50:
 1816 0c40 4750494F 		.string	"GPIO Bank0"
 1816      2042616E 
GAS LISTING /tmp/ccW7zoDa.s 			page 58


 1816      6B3000
 1817              	.LC51:
 1818 0c4b 4750494F 		.string	"GPIO GPIO0"
 1818      20475049 
 1818      4F3000
 1819              	.LC52:
 1820 0c56 4750494F 		.string	"GPIO GPIO1"
 1820      20475049 
 1820      4F3100
 1821              	.LC53:
 1822 0c61 4750494F 		.string	"GPIO GPIO2"
 1822      20475049 
 1822      4F3200
 1823              	.LC54:
 1824 0c6c 4750494F 		.string	"GPIO GPIO3"
 1824      20475049 
 1824      4F3300
 1825              	.LC55:
 1826 0c77 4750494F 		.string	"GPIO GPIO4"
 1826      20475049 
 1826      4F3400
 1827              	.LC56:
 1828 0c82 4750494F 		.string	"GPIO GPIO5"
 1828      20475049 
 1828      4F3500
 1829              	.LC57:
 1830 0c8d 4750494F 		.string	"GPIO GPIO6"
 1830      20475049 
 1830      4F3600
 1831              	.LC58:
 1832 0c98 4750494F 		.string	"GPIO GPIO7"
 1832      20475049 
 1832      4F3700
 1833              	.LC59:
 1834 0ca3 4750494F 		.string	"GPIO GPIO8"
 1834      20475049 
 1834      4F3800
 1835              	.LC60:
 1836 0cae 4750494F 		.string	"GPIO GPIO9"
 1836      20475049 
 1836      4F3900
 1837 0cb9 00000000 		.align 32
 1837      000000
 1840              	EApiGpioDevices:
 1841 0cc0 00000100 		.long	65536
 1842 0cc4 00000000 		.zero	4
 1843 0cc8 00000000 		.quad	.LC50
 1843      00000000 
 1844 0cd0 00000000 		.long	0
 1845 0cd4 00000000 		.zero	4
 1846 0cd8 00000000 		.quad	.LC51
 1846      00000000 
 1847 0ce0 01000000 		.long	1
 1848 0ce4 00000000 		.zero	4
 1849 0ce8 00000000 		.quad	.LC52
 1849      00000000 
 1850 0cf0 02000000 		.long	2
GAS LISTING /tmp/ccW7zoDa.s 			page 59


 1851 0cf4 00000000 		.zero	4
 1852 0cf8 00000000 		.quad	.LC53
 1852      00000000 
 1853 0d00 03000000 		.long	3
 1854 0d04 00000000 		.zero	4
 1855 0d08 00000000 		.quad	.LC54
 1855      00000000 
 1856 0d10 04000000 		.long	4
 1857 0d14 00000000 		.zero	4
 1858 0d18 00000000 		.quad	.LC55
 1858      00000000 
 1859 0d20 05000000 		.long	5
 1860 0d24 00000000 		.zero	4
 1861 0d28 00000000 		.quad	.LC56
 1861      00000000 
 1862 0d30 06000000 		.long	6
 1863 0d34 00000000 		.zero	4
 1864 0d38 00000000 		.quad	.LC57
 1864      00000000 
 1865 0d40 07000000 		.long	7
 1866 0d44 00000000 		.zero	4
 1867 0d48 00000000 		.quad	.LC58
 1867      00000000 
 1868 0d50 08000000 		.long	8
 1869 0d54 00000000 		.zero	4
 1870 0d58 00000000 		.quad	.LC59
 1870      00000000 
 1871 0d60 09000000 		.long	9
 1872 0d64 00000000 		.zero	4
 1873 0d68 00000000 		.quad	.LC60
 1873      00000000 
 1874 0d70 000F0000 		.long	3840
 1875 0d74 00000000 		.zero	4
 1876 0d78 00000000 		.quad	.LC35
 1876      00000000 
 1877              	.LC61:
 1878 0d80 45417069 		.string	"EApiGPIOGetDirectionCaps"
 1878      4750494F 
 1878      47657444 
 1878      69726563 
 1878      74696F6E 
 1879              	.LC62:
 1880 0d99 252D3135 		.string	"%-15s %-25s : %s\n"
 1880      7320252D 
 1880      32357320 
 1880      3A202573 
 1880      0A00
 1881 0dab 00000000 		.align 8
 1881      00
 1882              	.LC63:
 1883 0db0 252D3135 		.string	"%-15s %-25s : Inputs   =%08X Outputs=%08X\n"
 1883      7320252D 
 1883      32357320 
 1883      3A20496E 
 1883      70757473 
 1884              	.LC64:
 1885 0ddb 45417069 		.string	"EApiGPIOGetDirection"
GAS LISTING /tmp/ccW7zoDa.s 			page 60


 1885      4750494F 
 1885      47657444 
 1885      69726563 
 1885      74696F6E 
 1886              	.LC65:
 1887 0df0 252D3135 		.string	"%-15s %-25s : Direction=%08X\n"
 1887      7320252D 
 1887      32357320 
 1887      3A204469 
 1887      72656374 
 1888              	.LC66:
 1889 0e0e 45417069 		.string	"EApiGPIOGetLevel"
 1889      4750494F 
 1889      4765744C 
 1889      6576656C 
 1889      00
 1890              	.LC67:
 1891 0e1f 252D3135 		.string	"%-15s %-25s : Level    =%08X\n"
 1891      7320252D 
 1891      32357320 
 1891      3A204C65 
 1891      76656C20 
 1892              	.LC68:
 1893 0e3d 45417069 		.string	"EApiGPIOSetDirection"
 1893      4750494F 
 1893      53657444 
 1893      69726563 
 1893      74696F6E 
 1894              	.LC69:
 1895 0e52 45417069 		.string	"EApiGPIOSetLevel"
 1895      4750494F 
 1895      5365744C 
 1895      6576656C 
 1895      00
 1896              		.text
 1897              		.globl	EApiValidateGPIOApi
 1899              	EApiValidateGPIOApi:
 1900              	.LFB8:
 756:/development/eAPI/eapidk-code/apps/EApiValidateAPI/linux/../EApiValidateAPI.c **** 
 757:/development/eAPI/eapidk-code/apps/EApiValidateAPI/linux/../EApiValidateAPI.c **** /*
 758:/development/eAPI/eapidk-code/apps/EApiValidateAPI/linux/../EApiValidateAPI.c ****  * Test GPIO Function
 759:/development/eAPI/eapidk-code/apps/EApiValidateAPI/linux/../EApiValidateAPI.c ****  *
 760:/development/eAPI/eapidk-code/apps/EApiValidateAPI/linux/../EApiValidateAPI.c ****  */
 761:/development/eAPI/eapidk-code/apps/EApiValidateAPI/linux/../EApiValidateAPI.c **** 
 762:/development/eAPI/eapidk-code/apps/EApiValidateAPI/linux/../EApiValidateAPI.c **** typedef struct EApiGpioValidate_s{
 763:/development/eAPI/eapidk-code/apps/EApiValidateAPI/linux/../EApiValidateAPI.c ****     uint32_t *pInputs     ; /* Value Pointer*/
 764:/development/eAPI/eapidk-code/apps/EApiValidateAPI/linux/../EApiValidateAPI.c ****     uint32_t *pOutputs    ; /* Value Pointer*/
 765:/development/eAPI/eapidk-code/apps/EApiValidateAPI/linux/../EApiValidateAPI.c ****     const EApiStatus_t  StatusCode1 ; /* Allowed Return Value 1 */
 766:/development/eAPI/eapidk-code/apps/EApiValidateAPI/linux/../EApiValidateAPI.c ****     const EApiStatus_t  StatusCode2 ; /* Allowed Return Value 2 */
 767:/development/eAPI/eapidk-code/apps/EApiValidateAPI/linux/../EApiValidateAPI.c ****     const EApiStatus_t  StatusCode3 ; /* Allowed Return Value 3 */
 768:/development/eAPI/eapidk-code/apps/EApiValidateAPI/linux/../EApiValidateAPI.c **** }EApiGpioValidate_t;
 769:/development/eAPI/eapidk-code/apps/EApiValidateAPI/linux/../EApiValidateAPI.c **** uint32_t GpioInputs;
 770:/development/eAPI/eapidk-code/apps/EApiValidateAPI/linux/../EApiValidateAPI.c **** uint32_t GpioOutputs;
 771:/development/eAPI/eapidk-code/apps/EApiValidateAPI/linux/../EApiValidateAPI.c **** const EApiGpioValidate_t EApiGpioterfaceValidate[]={
 772:/development/eAPI/eapidk-code/apps/EApiValidateAPI/linux/../EApiValidateAPI.c ****     {&GpioInputs, &GpioOutputs, EAPI_STATUS_SUCCESS          , EAPI_STATUS_UNSUPPORTED       , EAPI
 773:/development/eAPI/eapidk-code/apps/EApiValidateAPI/linux/../EApiValidateAPI.c ****     {&GpioInputs, NULL        , EAPI_STATUS_SUCCESS          , EAPI_STATUS_UNSUPPORTED       , EAPI
 774:/development/eAPI/eapidk-code/apps/EApiValidateAPI/linux/../EApiValidateAPI.c ****     {NULL       , &GpioOutputs, EAPI_STATUS_SUCCESS          , EAPI_STATUS_UNSUPPORTED       , EAPI
GAS LISTING /tmp/ccW7zoDa.s 			page 61


 775:/development/eAPI/eapidk-code/apps/EApiValidateAPI/linux/../EApiValidateAPI.c ****     {NULL       , NULL        , EAPI_STATUS_INVALID_PARAMETER, EAPI_STATUS_INVALID_PARAMETER , EAPI
 776:/development/eAPI/eapidk-code/apps/EApiValidateAPI/linux/../EApiValidateAPI.c **** };
 777:/development/eAPI/eapidk-code/apps/EApiValidateAPI/linux/../EApiValidateAPI.c **** 
 778:/development/eAPI/eapidk-code/apps/EApiValidateAPI/linux/../EApiValidateAPI.c **** typedef struct EApiGpioType_s{
 779:/development/eAPI/eapidk-code/apps/EApiValidateAPI/linux/../EApiValidateAPI.c ****     const EApiId_t  Id     ;
 780:/development/eAPI/eapidk-code/apps/EApiValidateAPI/linux/../EApiValidateAPI.c ****     const TCHAR *const   Desc   ;
 781:/development/eAPI/eapidk-code/apps/EApiValidateAPI/linux/../EApiValidateAPI.c **** }EApiGpioType_t;
 782:/development/eAPI/eapidk-code/apps/EApiValidateAPI/linux/../EApiValidateAPI.c **** 
 783:/development/eAPI/eapidk-code/apps/EApiValidateAPI/linux/../EApiValidateAPI.c **** const EApiGpioType_t EApiGpioDevices[]={
 784:/development/eAPI/eapidk-code/apps/EApiValidateAPI/linux/../EApiValidateAPI.c ****     {EAPI_ID_GPIO_BANK00   , TEXT("GPIO Bank0"      )},
 785:/development/eAPI/eapidk-code/apps/EApiValidateAPI/linux/../EApiValidateAPI.c ****     {EAPI_GPIO_GPIO_ID(0)  , TEXT("GPIO GPIO0"      )},
 786:/development/eAPI/eapidk-code/apps/EApiValidateAPI/linux/../EApiValidateAPI.c ****     {EAPI_GPIO_GPIO_ID(1)  , TEXT("GPIO GPIO1"      )},
 787:/development/eAPI/eapidk-code/apps/EApiValidateAPI/linux/../EApiValidateAPI.c ****     {EAPI_GPIO_GPIO_ID(2)  , TEXT("GPIO GPIO2"      )},
 788:/development/eAPI/eapidk-code/apps/EApiValidateAPI/linux/../EApiValidateAPI.c ****     {EAPI_GPIO_GPIO_ID(3)  , TEXT("GPIO GPIO3"      )},
 789:/development/eAPI/eapidk-code/apps/EApiValidateAPI/linux/../EApiValidateAPI.c ****     {EAPI_GPIO_GPIO_ID(4)  , TEXT("GPIO GPIO4"      )},
 790:/development/eAPI/eapidk-code/apps/EApiValidateAPI/linux/../EApiValidateAPI.c ****     {EAPI_GPIO_GPIO_ID(5)  , TEXT("GPIO GPIO5"      )},
 791:/development/eAPI/eapidk-code/apps/EApiValidateAPI/linux/../EApiValidateAPI.c ****     {EAPI_GPIO_GPIO_ID(6)  , TEXT("GPIO GPIO6"      )},
 792:/development/eAPI/eapidk-code/apps/EApiValidateAPI/linux/../EApiValidateAPI.c ****     {EAPI_GPIO_GPIO_ID(7)  , TEXT("GPIO GPIO7"      )},
 793:/development/eAPI/eapidk-code/apps/EApiValidateAPI/linux/../EApiValidateAPI.c ****     {EAPI_GPIO_GPIO_ID(8)  , TEXT("GPIO GPIO8"      )},
 794:/development/eAPI/eapidk-code/apps/EApiValidateAPI/linux/../EApiValidateAPI.c ****     {EAPI_GPIO_GPIO_ID(9)  , TEXT("GPIO GPIO9"      )},
 795:/development/eAPI/eapidk-code/apps/EApiValidateAPI/linux/../EApiValidateAPI.c ****     {0x00000F00            , TEXT("Unsupported"     )},
 796:/development/eAPI/eapidk-code/apps/EApiValidateAPI/linux/../EApiValidateAPI.c **** };
 797:/development/eAPI/eapidk-code/apps/EApiValidateAPI/linux/../EApiValidateAPI.c **** 
 798:/development/eAPI/eapidk-code/apps/EApiValidateAPI/linux/../EApiValidateAPI.c **** 
 799:/development/eAPI/eapidk-code/apps/EApiValidateAPI/linux/../EApiValidateAPI.c **** void EApiValidateGPIOApi(void)
 800:/development/eAPI/eapidk-code/apps/EApiValidateAPI/linux/../EApiValidateAPI.c **** {
 1901              		.loc 1 800 0
 1902              		.cfi_startproc
 1903 0e08 55       		pushq	%rbp
 1904              		.cfi_def_cfa_offset 16
 1905              		.cfi_offset 6, -16
 1906 0e09 4889E5   		movq	%rsp, %rbp
 1907              		.cfi_def_cfa_register 6
 1908 0e0c 4881EC30 		subq	$1072, %rsp
 1908      040000
 1909              		.loc 1 800 0
 1910 0e13 64488B04 		movq	%fs:40, %rax
 1910      25280000 
 1910      00
 1911 0e1c 488945F8 		movq	%rax, -8(%rbp)
 1912 0e20 31C0     		xorl	%eax, %eax
 801:/development/eAPI/eapidk-code/apps/EApiValidateAPI/linux/../EApiValidateAPI.c ****     TCHAR TmpStrBuf[1024];
 802:/development/eAPI/eapidk-code/apps/EApiValidateAPI/linux/../EApiValidateAPI.c ****     unsigned i,i2;
 803:/development/eAPI/eapidk-code/apps/EApiValidateAPI/linux/../EApiValidateAPI.c ****     uint32_t Direction;
 804:/development/eAPI/eapidk-code/apps/EApiValidateAPI/linux/../EApiValidateAPI.c ****     uint32_t Level;
 805:/development/eAPI/eapidk-code/apps/EApiValidateAPI/linux/../EApiValidateAPI.c ****     uint32_t Inputs;
 806:/development/eAPI/eapidk-code/apps/EApiValidateAPI/linux/../EApiValidateAPI.c ****     uint32_t Outputs;
 807:/development/eAPI/eapidk-code/apps/EApiValidateAPI/linux/../EApiValidateAPI.c ****     EApiStatus_t StatusCode;
 808:/development/eAPI/eapidk-code/apps/EApiValidateAPI/linux/../EApiValidateAPI.c ****     for(i=0;i<ARRAY_SIZE(EApiGpioDevices);i++){
 1913              		.loc 1 808 0
 1914 0e22 C785E4FB 		movl	$0, -1052(%rbp)
 1914      FFFF0000 
 1914      0000
 1915 0e2c E90E0500 		jmp	.L76
 1915      00
 1916              	.L85:
 809:/development/eAPI/eapidk-code/apps/EApiValidateAPI/linux/../EApiValidateAPI.c ****         /*       *((int*)NULL)=0; */
GAS LISTING /tmp/ccW7zoDa.s 			page 62


 810:/development/eAPI/eapidk-code/apps/EApiValidateAPI/linux/../EApiValidateAPI.c ****         StatusCode=EApiGPIOGetDirectionCaps(EApiGpioDevices[i].Id, &Inputs, &Outputs);
 1917              		.loc 1 810 0
 1918 0e31 8B85E4FB 		movl	-1052(%rbp), %eax
 1918      FFFF
 1919 0e37 48C1E004 		salq	$4, %rax
 1920 0e3b 48050000 		addq	$EApiGpioDevices, %rax
 1920      0000
 1921 0e41 8B00     		movl	(%rax), %eax
 1922 0e43 488D95E0 		leaq	-1056(%rbp), %rdx
 1922      FBFFFF
 1923 0e4a 488D8DDC 		leaq	-1060(%rbp), %rcx
 1923      FBFFFF
 1924 0e51 4889CE   		movq	%rcx, %rsi
 1925 0e54 89C7     		movl	%eax, %edi
 1926 0e56 E8000000 		call	EApiGPIOGetDirectionCaps
 1926      00
 1927 0e5b 8985ECFB 		movl	%eax, -1044(%rbp)
 1927      FFFF
 811:/development/eAPI/eapidk-code/apps/EApiValidateAPI/linux/../EApiValidateAPI.c ****         if(!EAPI_TEST_SUCCESS(StatusCode))
 1928              		.loc 1 811 0
 1929 0e61 83BDECFB 		cmpl	$0, -1044(%rbp)
 1929      FFFF00
 1930 0e68 7455     		je	.L77
 812:/development/eAPI/eapidk-code/apps/EApiValidateAPI/linux/../EApiValidateAPI.c ****         {
 813:/development/eAPI/eapidk-code/apps/EApiValidateAPI/linux/../EApiValidateAPI.c ****             EApiAHCreateErrorString(StatusCode, TmpStrBuf, ARRAY_SIZE(TmpStrBuf));
 1931              		.loc 1 813 0
 1932 0e6a 488D8DF0 		leaq	-1040(%rbp), %rcx
 1932      FBFFFF
 1933 0e71 8B85ECFB 		movl	-1044(%rbp), %eax
 1933      FFFF
 1934 0e77 BA000400 		movl	$1024, %edx
 1934      00
 1935 0e7c 4889CE   		movq	%rcx, %rsi
 1936 0e7f 89C7     		movl	%eax, %edi
 1937 0e81 E8000000 		call	EApiAHCreateErrorString
 1937      00
 814:/development/eAPI/eapidk-code/apps/EApiValidateAPI/linux/../EApiValidateAPI.c ****             EAPI_MSG_OUT(
 1938              		.loc 1 814 0
 1939 0e86 8B85E4FB 		movl	-1052(%rbp), %eax
 1939      FFFF
 1940 0e8c 48C1E004 		salq	$4, %rax
 1941 0e90 48050000 		addq	$EApiGpioDevices+8, %rax
 1941      0000
 1942 0e96 488B00   		movq	(%rax), %rax
 1943 0e99 488D95F0 		leaq	-1040(%rbp), %rdx
 1943      FBFFFF
 1944 0ea0 4889D1   		movq	%rdx, %rcx
 1945 0ea3 BA000000 		movl	$.LC61, %edx
 1945      00
 1946 0ea8 4889C6   		movq	%rax, %rsi
 1947 0eab BF000000 		movl	$.LC62, %edi
 1947      00
 1948 0eb0 B8000000 		movl	$0, %eax
 1948      00
 1949 0eb5 E8000000 		call	printf
 1949      00
 815:/development/eAPI/eapidk-code/apps/EApiValidateAPI/linux/../EApiValidateAPI.c ****                         TEXT("%-15s %-25s : %s\n"),
GAS LISTING /tmp/ccW7zoDa.s 			page 63


 816:/development/eAPI/eapidk-code/apps/EApiValidateAPI/linux/../EApiValidateAPI.c ****                         EApiGpioDevices[i].Desc,
 817:/development/eAPI/eapidk-code/apps/EApiValidateAPI/linux/../EApiValidateAPI.c ****                         TEXT("EApiGPIOGetDirectionCaps"),
 818:/development/eAPI/eapidk-code/apps/EApiValidateAPI/linux/../EApiValidateAPI.c ****                         TmpStrBuf
 819:/development/eAPI/eapidk-code/apps/EApiValidateAPI/linux/../EApiValidateAPI.c ****                         );
 820:/development/eAPI/eapidk-code/apps/EApiValidateAPI/linux/../EApiValidateAPI.c ****             continue;
 1950              		.loc 1 820 0
 1951 0eba E9790400 		jmp	.L78
 1951      00
 1952              	.L77:
 821:/development/eAPI/eapidk-code/apps/EApiValidateAPI/linux/../EApiValidateAPI.c ****         }
 822:/development/eAPI/eapidk-code/apps/EApiValidateAPI/linux/../EApiValidateAPI.c ****         EAPI_MSG_OUT(
 1953              		.loc 1 822 0
 1954 0ebf 8B8DE0FB 		movl	-1056(%rbp), %ecx
 1954      FFFF
 1955 0ec5 8B95DCFB 		movl	-1060(%rbp), %edx
 1955      FFFF
 1956 0ecb 8B85E4FB 		movl	-1052(%rbp), %eax
 1956      FFFF
 1957 0ed1 48C1E004 		salq	$4, %rax
 1958 0ed5 48050000 		addq	$EApiGpioDevices+8, %rax
 1958      0000
 1959 0edb 488B00   		movq	(%rax), %rax
 1960 0ede 4189C8   		movl	%ecx, %r8d
 1961 0ee1 89D1     		movl	%edx, %ecx
 1962 0ee3 BA000000 		movl	$.LC61, %edx
 1962      00
 1963 0ee8 4889C6   		movq	%rax, %rsi
 1964 0eeb BF000000 		movl	$.LC63, %edi
 1964      00
 1965 0ef0 B8000000 		movl	$0, %eax
 1965      00
 1966 0ef5 E8000000 		call	printf
 1966      00
 823:/development/eAPI/eapidk-code/apps/EApiValidateAPI/linux/../EApiValidateAPI.c ****                     TEXT("%-15s %-25s : Inputs   =%08")TEXT(PRIX32)TEXT(" Outputs=%08")TEXT(PRIX32)
 824:/development/eAPI/eapidk-code/apps/EApiValidateAPI/linux/../EApiValidateAPI.c ****                     EApiGpioDevices[i].Desc,
 825:/development/eAPI/eapidk-code/apps/EApiValidateAPI/linux/../EApiValidateAPI.c ****                     TEXT("EApiGPIOGetDirectionCaps"),
 826:/development/eAPI/eapidk-code/apps/EApiValidateAPI/linux/../EApiValidateAPI.c ****                     Inputs,
 827:/development/eAPI/eapidk-code/apps/EApiValidateAPI/linux/../EApiValidateAPI.c ****                     Outputs
 828:/development/eAPI/eapidk-code/apps/EApiValidateAPI/linux/../EApiValidateAPI.c ****                     );
 829:/development/eAPI/eapidk-code/apps/EApiValidateAPI/linux/../EApiValidateAPI.c ****         StatusCode=EApiGPIOGetDirection(EApiGpioDevices[i].Id, Inputs|Outputs, &Direction);
 1967              		.loc 1 829 0
 1968 0efa 8B95DCFB 		movl	-1060(%rbp), %edx
 1968      FFFF
 1969 0f00 8B85E0FB 		movl	-1056(%rbp), %eax
 1969      FFFF
 1970 0f06 89D1     		movl	%edx, %ecx
 1971 0f08 09C1     		orl	%eax, %ecx
 1972 0f0a 8B85E4FB 		movl	-1052(%rbp), %eax
 1972      FFFF
 1973 0f10 48C1E004 		salq	$4, %rax
 1974 0f14 48050000 		addq	$EApiGpioDevices, %rax
 1974      0000
 1975 0f1a 8B00     		movl	(%rax), %eax
 1976 0f1c 488D95D4 		leaq	-1068(%rbp), %rdx
 1976      FBFFFF
 1977 0f23 89CE     		movl	%ecx, %esi
 1978 0f25 89C7     		movl	%eax, %edi
GAS LISTING /tmp/ccW7zoDa.s 			page 64


 1979 0f27 E8000000 		call	EApiGPIOGetDirection
 1979      00
 1980 0f2c 8985ECFB 		movl	%eax, -1044(%rbp)
 1980      FFFF
 830:/development/eAPI/eapidk-code/apps/EApiValidateAPI/linux/../EApiValidateAPI.c ****         if(!EAPI_TEST_SUCCESS(StatusCode))
 1981              		.loc 1 830 0
 1982 0f32 83BDECFB 		cmpl	$0, -1044(%rbp)
 1982      FFFF00
 1983 0f39 7455     		je	.L79
 831:/development/eAPI/eapidk-code/apps/EApiValidateAPI/linux/../EApiValidateAPI.c ****         {
 832:/development/eAPI/eapidk-code/apps/EApiValidateAPI/linux/../EApiValidateAPI.c ****             EApiAHCreateErrorString(StatusCode, TmpStrBuf, ARRAY_SIZE(TmpStrBuf));
 1984              		.loc 1 832 0
 1985 0f3b 488D8DF0 		leaq	-1040(%rbp), %rcx
 1985      FBFFFF
 1986 0f42 8B85ECFB 		movl	-1044(%rbp), %eax
 1986      FFFF
 1987 0f48 BA000400 		movl	$1024, %edx
 1987      00
 1988 0f4d 4889CE   		movq	%rcx, %rsi
 1989 0f50 89C7     		movl	%eax, %edi
 1990 0f52 E8000000 		call	EApiAHCreateErrorString
 1990      00
 833:/development/eAPI/eapidk-code/apps/EApiValidateAPI/linux/../EApiValidateAPI.c ****             EAPI_MSG_OUT(
 1991              		.loc 1 833 0
 1992 0f57 8B85E4FB 		movl	-1052(%rbp), %eax
 1992      FFFF
 1993 0f5d 48C1E004 		salq	$4, %rax
 1994 0f61 48050000 		addq	$EApiGpioDevices+8, %rax
 1994      0000
 1995 0f67 488B00   		movq	(%rax), %rax
 1996 0f6a 488D95F0 		leaq	-1040(%rbp), %rdx
 1996      FBFFFF
 1997 0f71 4889D1   		movq	%rdx, %rcx
 1998 0f74 BA000000 		movl	$.LC64, %edx
 1998      00
 1999 0f79 4889C6   		movq	%rax, %rsi
 2000 0f7c BF000000 		movl	$.LC62, %edi
 2000      00
 2001 0f81 B8000000 		movl	$0, %eax
 2001      00
 2002 0f86 E8000000 		call	printf
 2002      00
 834:/development/eAPI/eapidk-code/apps/EApiValidateAPI/linux/../EApiValidateAPI.c ****                         TEXT("%-15s %-25s : %s\n"),
 835:/development/eAPI/eapidk-code/apps/EApiValidateAPI/linux/../EApiValidateAPI.c ****                         EApiGpioDevices[i].Desc,
 836:/development/eAPI/eapidk-code/apps/EApiValidateAPI/linux/../EApiValidateAPI.c ****                         TEXT("EApiGPIOGetDirection"),
 837:/development/eAPI/eapidk-code/apps/EApiValidateAPI/linux/../EApiValidateAPI.c ****                         TmpStrBuf
 838:/development/eAPI/eapidk-code/apps/EApiValidateAPI/linux/../EApiValidateAPI.c ****                         );
 839:/development/eAPI/eapidk-code/apps/EApiValidateAPI/linux/../EApiValidateAPI.c ****             continue;
 2003              		.loc 1 839 0
 2004 0f8b E9A80300 		jmp	.L78
 2004      00
 2005              	.L79:
 840:/development/eAPI/eapidk-code/apps/EApiValidateAPI/linux/../EApiValidateAPI.c ****         }
 841:/development/eAPI/eapidk-code/apps/EApiValidateAPI/linux/../EApiValidateAPI.c ****         EAPI_MSG_OUT(
 2006              		.loc 1 841 0
 2007 0f90 8B95D4FB 		movl	-1068(%rbp), %edx
 2007      FFFF
GAS LISTING /tmp/ccW7zoDa.s 			page 65


 2008 0f96 8B85E4FB 		movl	-1052(%rbp), %eax
 2008      FFFF
 2009 0f9c 48C1E004 		salq	$4, %rax
 2010 0fa0 48050000 		addq	$EApiGpioDevices+8, %rax
 2010      0000
 2011 0fa6 488B00   		movq	(%rax), %rax
 2012 0fa9 89D1     		movl	%edx, %ecx
 2013 0fab BA000000 		movl	$.LC64, %edx
 2013      00
 2014 0fb0 4889C6   		movq	%rax, %rsi
 2015 0fb3 BF000000 		movl	$.LC65, %edi
 2015      00
 2016 0fb8 B8000000 		movl	$0, %eax
 2016      00
 2017 0fbd E8000000 		call	printf
 2017      00
 842:/development/eAPI/eapidk-code/apps/EApiValidateAPI/linux/../EApiValidateAPI.c ****                     TEXT("%-15s %-25s : Direction=%08")TEXT(PRIX32)TEXT("\n"),
 843:/development/eAPI/eapidk-code/apps/EApiValidateAPI/linux/../EApiValidateAPI.c ****                     EApiGpioDevices[i].Desc,
 844:/development/eAPI/eapidk-code/apps/EApiValidateAPI/linux/../EApiValidateAPI.c ****                     TEXT("EApiGPIOGetDirection"),
 845:/development/eAPI/eapidk-code/apps/EApiValidateAPI/linux/../EApiValidateAPI.c ****                     Direction
 846:/development/eAPI/eapidk-code/apps/EApiValidateAPI/linux/../EApiValidateAPI.c ****                     );
 847:/development/eAPI/eapidk-code/apps/EApiValidateAPI/linux/../EApiValidateAPI.c ****         StatusCode=EApiGPIOGetLevel(EApiGpioDevices[i].Id, Inputs|Outputs, &Level);
 2018              		.loc 1 847 0
 2019 0fc2 8B95DCFB 		movl	-1060(%rbp), %edx
 2019      FFFF
 2020 0fc8 8B85E0FB 		movl	-1056(%rbp), %eax
 2020      FFFF
 2021 0fce 89D1     		movl	%edx, %ecx
 2022 0fd0 09C1     		orl	%eax, %ecx
 2023 0fd2 8B85E4FB 		movl	-1052(%rbp), %eax
 2023      FFFF
 2024 0fd8 48C1E004 		salq	$4, %rax
 2025 0fdc 48050000 		addq	$EApiGpioDevices, %rax
 2025      0000
 2026 0fe2 8B00     		movl	(%rax), %eax
 2027 0fe4 488D95D8 		leaq	-1064(%rbp), %rdx
 2027      FBFFFF
 2028 0feb 89CE     		movl	%ecx, %esi
 2029 0fed 89C7     		movl	%eax, %edi
 2030 0fef E8000000 		call	EApiGPIOGetLevel
 2030      00
 2031 0ff4 8985ECFB 		movl	%eax, -1044(%rbp)
 2031      FFFF
 848:/development/eAPI/eapidk-code/apps/EApiValidateAPI/linux/../EApiValidateAPI.c ****         if(!EAPI_TEST_SUCCESS(StatusCode))
 2032              		.loc 1 848 0
 2033 0ffa 83BDECFB 		cmpl	$0, -1044(%rbp)
 2033      FFFF00
 2034 1001 7455     		je	.L80
 849:/development/eAPI/eapidk-code/apps/EApiValidateAPI/linux/../EApiValidateAPI.c ****         {
 850:/development/eAPI/eapidk-code/apps/EApiValidateAPI/linux/../EApiValidateAPI.c ****             EApiAHCreateErrorString(StatusCode, TmpStrBuf, ARRAY_SIZE(TmpStrBuf));
 2035              		.loc 1 850 0
 2036 1003 488D8DF0 		leaq	-1040(%rbp), %rcx
 2036      FBFFFF
 2037 100a 8B85ECFB 		movl	-1044(%rbp), %eax
 2037      FFFF
 2038 1010 BA000400 		movl	$1024, %edx
 2038      00
GAS LISTING /tmp/ccW7zoDa.s 			page 66


 2039 1015 4889CE   		movq	%rcx, %rsi
 2040 1018 89C7     		movl	%eax, %edi
 2041 101a E8000000 		call	EApiAHCreateErrorString
 2041      00
 851:/development/eAPI/eapidk-code/apps/EApiValidateAPI/linux/../EApiValidateAPI.c ****             EAPI_MSG_OUT(
 2042              		.loc 1 851 0
 2043 101f 8B85E4FB 		movl	-1052(%rbp), %eax
 2043      FFFF
 2044 1025 48C1E004 		salq	$4, %rax
 2045 1029 48050000 		addq	$EApiGpioDevices+8, %rax
 2045      0000
 2046 102f 488B00   		movq	(%rax), %rax
 2047 1032 488D95F0 		leaq	-1040(%rbp), %rdx
 2047      FBFFFF
 2048 1039 4889D1   		movq	%rdx, %rcx
 2049 103c BA000000 		movl	$.LC66, %edx
 2049      00
 2050 1041 4889C6   		movq	%rax, %rsi
 2051 1044 BF000000 		movl	$.LC62, %edi
 2051      00
 2052 1049 B8000000 		movl	$0, %eax
 2052      00
 2053 104e E8000000 		call	printf
 2053      00
 852:/development/eAPI/eapidk-code/apps/EApiValidateAPI/linux/../EApiValidateAPI.c ****                         TEXT("%-15s %-25s : %s\n"),
 853:/development/eAPI/eapidk-code/apps/EApiValidateAPI/linux/../EApiValidateAPI.c ****                         EApiGpioDevices[i].Desc,
 854:/development/eAPI/eapidk-code/apps/EApiValidateAPI/linux/../EApiValidateAPI.c ****                         TEXT("EApiGPIOGetLevel"),
 855:/development/eAPI/eapidk-code/apps/EApiValidateAPI/linux/../EApiValidateAPI.c ****                         TmpStrBuf
 856:/development/eAPI/eapidk-code/apps/EApiValidateAPI/linux/../EApiValidateAPI.c ****                         );
 857:/development/eAPI/eapidk-code/apps/EApiValidateAPI/linux/../EApiValidateAPI.c ****             continue;
 2054              		.loc 1 857 0
 2055 1053 E9E00200 		jmp	.L78
 2055      00
 2056              	.L80:
 858:/development/eAPI/eapidk-code/apps/EApiValidateAPI/linux/../EApiValidateAPI.c ****         }
 859:/development/eAPI/eapidk-code/apps/EApiValidateAPI/linux/../EApiValidateAPI.c ****         EAPI_MSG_OUT(
 2057              		.loc 1 859 0
 2058 1058 8B95D8FB 		movl	-1064(%rbp), %edx
 2058      FFFF
 2059 105e 8B85E4FB 		movl	-1052(%rbp), %eax
 2059      FFFF
 2060 1064 48C1E004 		salq	$4, %rax
 2061 1068 48050000 		addq	$EApiGpioDevices+8, %rax
 2061      0000
 2062 106e 488B00   		movq	(%rax), %rax
 2063 1071 89D1     		movl	%edx, %ecx
 2064 1073 BA000000 		movl	$.LC66, %edx
 2064      00
 2065 1078 4889C6   		movq	%rax, %rsi
 2066 107b BF000000 		movl	$.LC67, %edi
 2066      00
 2067 1080 B8000000 		movl	$0, %eax
 2067      00
 2068 1085 E8000000 		call	printf
 2068      00
 860:/development/eAPI/eapidk-code/apps/EApiValidateAPI/linux/../EApiValidateAPI.c ****                     TEXT("%-15s %-25s : Level    =%08")TEXT(PRIX32)TEXT("\n"),
 861:/development/eAPI/eapidk-code/apps/EApiValidateAPI/linux/../EApiValidateAPI.c ****                     EApiGpioDevices[i].Desc,
GAS LISTING /tmp/ccW7zoDa.s 			page 67


 862:/development/eAPI/eapidk-code/apps/EApiValidateAPI/linux/../EApiValidateAPI.c ****                     TEXT("EApiGPIOGetLevel"),
 863:/development/eAPI/eapidk-code/apps/EApiValidateAPI/linux/../EApiValidateAPI.c ****                     Level
 864:/development/eAPI/eapidk-code/apps/EApiValidateAPI/linux/../EApiValidateAPI.c ****                     );
 865:/development/eAPI/eapidk-code/apps/EApiValidateAPI/linux/../EApiValidateAPI.c ****         StatusCode=EApiGPIOSetDirection(
 2069              		.loc 1 865 0
 2070 108a 8B85DCFB 		movl	-1060(%rbp), %eax
 2070      FFFF
 2071 1090 0FB7D0   		movzwl	%ax, %edx
 2072 1093 8B8DDCFB 		movl	-1060(%rbp), %ecx
 2072      FFFF
 2073 1099 8B85E0FB 		movl	-1056(%rbp), %eax
 2073      FFFF
 2074 109f 09C1     		orl	%eax, %ecx
 2075 10a1 8B85E4FB 		movl	-1052(%rbp), %eax
 2075      FFFF
 2076 10a7 48C1E004 		salq	$4, %rax
 2077 10ab 48050000 		addq	$EApiGpioDevices, %rax
 2077      0000
 2078 10b1 8B00     		movl	(%rax), %eax
 2079 10b3 89CE     		movl	%ecx, %esi
 2080 10b5 89C7     		movl	%eax, %edi
 2081 10b7 E8000000 		call	EApiGPIOSetDirection
 2081      00
 2082 10bc 8985ECFB 		movl	%eax, -1044(%rbp)
 2082      FFFF
 866:/development/eAPI/eapidk-code/apps/EApiValidateAPI/linux/../EApiValidateAPI.c ****                     EApiGpioDevices[i].Id,
 867:/development/eAPI/eapidk-code/apps/EApiValidateAPI/linux/../EApiValidateAPI.c ****                     Inputs|Outputs,
 868:/development/eAPI/eapidk-code/apps/EApiValidateAPI/linux/../EApiValidateAPI.c ****                     ((Inputs&0xFFFF))|((Outputs&0x0000))
 869:/development/eAPI/eapidk-code/apps/EApiValidateAPI/linux/../EApiValidateAPI.c ****                     );
 870:/development/eAPI/eapidk-code/apps/EApiValidateAPI/linux/../EApiValidateAPI.c ****         if(!EAPI_TEST_SUCCESS(StatusCode))
 2083              		.loc 1 870 0
 2084 10c2 83BDECFB 		cmpl	$0, -1044(%rbp)
 2084      FFFF00
 2085 10c9 7455     		je	.L81
 871:/development/eAPI/eapidk-code/apps/EApiValidateAPI/linux/../EApiValidateAPI.c ****         {
 872:/development/eAPI/eapidk-code/apps/EApiValidateAPI/linux/../EApiValidateAPI.c ****             EApiAHCreateErrorString(StatusCode, TmpStrBuf, ARRAY_SIZE(TmpStrBuf));
 2086              		.loc 1 872 0
 2087 10cb 488D8DF0 		leaq	-1040(%rbp), %rcx
 2087      FBFFFF
 2088 10d2 8B85ECFB 		movl	-1044(%rbp), %eax
 2088      FFFF
 2089 10d8 BA000400 		movl	$1024, %edx
 2089      00
 2090 10dd 4889CE   		movq	%rcx, %rsi
 2091 10e0 89C7     		movl	%eax, %edi
 2092 10e2 E8000000 		call	EApiAHCreateErrorString
 2092      00
 873:/development/eAPI/eapidk-code/apps/EApiValidateAPI/linux/../EApiValidateAPI.c ****             EAPI_MSG_OUT(
 2093              		.loc 1 873 0
 2094 10e7 8B85E4FB 		movl	-1052(%rbp), %eax
 2094      FFFF
 2095 10ed 48C1E004 		salq	$4, %rax
 2096 10f1 48050000 		addq	$EApiGpioDevices+8, %rax
 2096      0000
 2097 10f7 488B00   		movq	(%rax), %rax
 2098 10fa 488D95F0 		leaq	-1040(%rbp), %rdx
 2098      FBFFFF
GAS LISTING /tmp/ccW7zoDa.s 			page 68


 2099 1101 4889D1   		movq	%rdx, %rcx
 2100 1104 BA000000 		movl	$.LC68, %edx
 2100      00
 2101 1109 4889C6   		movq	%rax, %rsi
 2102 110c BF000000 		movl	$.LC62, %edi
 2102      00
 2103 1111 B8000000 		movl	$0, %eax
 2103      00
 2104 1116 E8000000 		call	printf
 2104      00
 874:/development/eAPI/eapidk-code/apps/EApiValidateAPI/linux/../EApiValidateAPI.c ****                         TEXT("%-15s %-25s : %s\n"),
 875:/development/eAPI/eapidk-code/apps/EApiValidateAPI/linux/../EApiValidateAPI.c ****                         EApiGpioDevices[i].Desc,
 876:/development/eAPI/eapidk-code/apps/EApiValidateAPI/linux/../EApiValidateAPI.c ****                         TEXT("EApiGPIOSetDirection"),
 877:/development/eAPI/eapidk-code/apps/EApiValidateAPI/linux/../EApiValidateAPI.c ****                         TmpStrBuf
 878:/development/eAPI/eapidk-code/apps/EApiValidateAPI/linux/../EApiValidateAPI.c ****                         );
 879:/development/eAPI/eapidk-code/apps/EApiValidateAPI/linux/../EApiValidateAPI.c ****             continue;
 2105              		.loc 1 879 0
 2106 111b E9180200 		jmp	.L78
 2106      00
 2107              	.L81:
 880:/development/eAPI/eapidk-code/apps/EApiValidateAPI/linux/../EApiValidateAPI.c ****         }
 881:/development/eAPI/eapidk-code/apps/EApiValidateAPI/linux/../EApiValidateAPI.c ****         StatusCode=EApiGPIOGetDirection(EApiGpioDevices[i].Id, Inputs|Outputs, &Direction);
 2108              		.loc 1 881 0
 2109 1120 8B95DCFB 		movl	-1060(%rbp), %edx
 2109      FFFF
 2110 1126 8B85E0FB 		movl	-1056(%rbp), %eax
 2110      FFFF
 2111 112c 89D1     		movl	%edx, %ecx
 2112 112e 09C1     		orl	%eax, %ecx
 2113 1130 8B85E4FB 		movl	-1052(%rbp), %eax
 2113      FFFF
 2114 1136 48C1E004 		salq	$4, %rax
 2115 113a 48050000 		addq	$EApiGpioDevices, %rax
 2115      0000
 2116 1140 8B00     		movl	(%rax), %eax
 2117 1142 488D95D4 		leaq	-1068(%rbp), %rdx
 2117      FBFFFF
 2118 1149 89CE     		movl	%ecx, %esi
 2119 114b 89C7     		movl	%eax, %edi
 2120 114d E8000000 		call	EApiGPIOGetDirection
 2120      00
 2121 1152 8985ECFB 		movl	%eax, -1044(%rbp)
 2121      FFFF
 882:/development/eAPI/eapidk-code/apps/EApiValidateAPI/linux/../EApiValidateAPI.c ****         if(!EAPI_TEST_SUCCESS(StatusCode))
 2122              		.loc 1 882 0
 2123 1158 83BDECFB 		cmpl	$0, -1044(%rbp)
 2123      FFFF00
 2124 115f 7455     		je	.L82
 883:/development/eAPI/eapidk-code/apps/EApiValidateAPI/linux/../EApiValidateAPI.c ****         {
 884:/development/eAPI/eapidk-code/apps/EApiValidateAPI/linux/../EApiValidateAPI.c ****             EApiAHCreateErrorString(StatusCode, TmpStrBuf, ARRAY_SIZE(TmpStrBuf));
 2125              		.loc 1 884 0
 2126 1161 488D8DF0 		leaq	-1040(%rbp), %rcx
 2126      FBFFFF
 2127 1168 8B85ECFB 		movl	-1044(%rbp), %eax
 2127      FFFF
 2128 116e BA000400 		movl	$1024, %edx
 2128      00
GAS LISTING /tmp/ccW7zoDa.s 			page 69


 2129 1173 4889CE   		movq	%rcx, %rsi
 2130 1176 89C7     		movl	%eax, %edi
 2131 1178 E8000000 		call	EApiAHCreateErrorString
 2131      00
 885:/development/eAPI/eapidk-code/apps/EApiValidateAPI/linux/../EApiValidateAPI.c ****             EAPI_MSG_OUT(
 2132              		.loc 1 885 0
 2133 117d 8B85E4FB 		movl	-1052(%rbp), %eax
 2133      FFFF
 2134 1183 48C1E004 		salq	$4, %rax
 2135 1187 48050000 		addq	$EApiGpioDevices+8, %rax
 2135      0000
 2136 118d 488B00   		movq	(%rax), %rax
 2137 1190 488D95F0 		leaq	-1040(%rbp), %rdx
 2137      FBFFFF
 2138 1197 4889D1   		movq	%rdx, %rcx
 2139 119a BA000000 		movl	$.LC64, %edx
 2139      00
 2140 119f 4889C6   		movq	%rax, %rsi
 2141 11a2 BF000000 		movl	$.LC62, %edi
 2141      00
 2142 11a7 B8000000 		movl	$0, %eax
 2142      00
 2143 11ac E8000000 		call	printf
 2143      00
 886:/development/eAPI/eapidk-code/apps/EApiValidateAPI/linux/../EApiValidateAPI.c ****                         TEXT("%-15s %-25s : %s\n"),
 887:/development/eAPI/eapidk-code/apps/EApiValidateAPI/linux/../EApiValidateAPI.c ****                         EApiGpioDevices[i].Desc,
 888:/development/eAPI/eapidk-code/apps/EApiValidateAPI/linux/../EApiValidateAPI.c ****                         TEXT("EApiGPIOGetDirection"),
 889:/development/eAPI/eapidk-code/apps/EApiValidateAPI/linux/../EApiValidateAPI.c ****                         TmpStrBuf
 890:/development/eAPI/eapidk-code/apps/EApiValidateAPI/linux/../EApiValidateAPI.c ****                         );
 891:/development/eAPI/eapidk-code/apps/EApiValidateAPI/linux/../EApiValidateAPI.c ****             continue;
 2144              		.loc 1 891 0
 2145 11b1 E9820100 		jmp	.L78
 2145      00
 2146              	.L82:
 892:/development/eAPI/eapidk-code/apps/EApiValidateAPI/linux/../EApiValidateAPI.c ****         }
 893:/development/eAPI/eapidk-code/apps/EApiValidateAPI/linux/../EApiValidateAPI.c ****         EAPI_MSG_OUT(
 2147              		.loc 1 893 0
 2148 11b6 8B95D4FB 		movl	-1068(%rbp), %edx
 2148      FFFF
 2149 11bc 8B85E4FB 		movl	-1052(%rbp), %eax
 2149      FFFF
 2150 11c2 48C1E004 		salq	$4, %rax
 2151 11c6 48050000 		addq	$EApiGpioDevices+8, %rax
 2151      0000
 2152 11cc 488B00   		movq	(%rax), %rax
 2153 11cf 89D1     		movl	%edx, %ecx
 2154 11d1 BA000000 		movl	$.LC64, %edx
 2154      00
 2155 11d6 4889C6   		movq	%rax, %rsi
 2156 11d9 BF000000 		movl	$.LC65, %edi
 2156      00
 2157 11de B8000000 		movl	$0, %eax
 2157      00
 2158 11e3 E8000000 		call	printf
 2158      00
 894:/development/eAPI/eapidk-code/apps/EApiValidateAPI/linux/../EApiValidateAPI.c ****                     TEXT("%-15s %-25s : Direction=%08")TEXT(PRIX32)TEXT("\n"),
 895:/development/eAPI/eapidk-code/apps/EApiValidateAPI/linux/../EApiValidateAPI.c ****                     EApiGpioDevices[i].Desc,
GAS LISTING /tmp/ccW7zoDa.s 			page 70


 896:/development/eAPI/eapidk-code/apps/EApiValidateAPI/linux/../EApiValidateAPI.c ****                     TEXT("EApiGPIOGetDirection"),
 897:/development/eAPI/eapidk-code/apps/EApiValidateAPI/linux/../EApiValidateAPI.c ****                     Direction
 898:/development/eAPI/eapidk-code/apps/EApiValidateAPI/linux/../EApiValidateAPI.c ****                     );
 899:/development/eAPI/eapidk-code/apps/EApiValidateAPI/linux/../EApiValidateAPI.c ****         StatusCode=EApiGPIOSetLevel(EApiGpioDevices[i].Id, Outputs, Outputs);
 2159              		.loc 1 899 0
 2160 11e8 8B95E0FB 		movl	-1056(%rbp), %edx
 2160      FFFF
 2161 11ee 8B8DE0FB 		movl	-1056(%rbp), %ecx
 2161      FFFF
 2162 11f4 8B85E4FB 		movl	-1052(%rbp), %eax
 2162      FFFF
 2163 11fa 48C1E004 		salq	$4, %rax
 2164 11fe 48050000 		addq	$EApiGpioDevices, %rax
 2164      0000
 2165 1204 8B00     		movl	(%rax), %eax
 2166 1206 89CE     		movl	%ecx, %esi
 2167 1208 89C7     		movl	%eax, %edi
 2168 120a E8000000 		call	EApiGPIOSetLevel
 2168      00
 2169 120f 8985ECFB 		movl	%eax, -1044(%rbp)
 2169      FFFF
 900:/development/eAPI/eapidk-code/apps/EApiValidateAPI/linux/../EApiValidateAPI.c ****         if(!EAPI_TEST_SUCCESS(StatusCode))
 2170              		.loc 1 900 0
 2171 1215 83BDECFB 		cmpl	$0, -1044(%rbp)
 2171      FFFF00
 2172 121c 7455     		je	.L83
 901:/development/eAPI/eapidk-code/apps/EApiValidateAPI/linux/../EApiValidateAPI.c ****         {
 902:/development/eAPI/eapidk-code/apps/EApiValidateAPI/linux/../EApiValidateAPI.c ****             EApiAHCreateErrorString(StatusCode, TmpStrBuf, ARRAY_SIZE(TmpStrBuf));
 2173              		.loc 1 902 0
 2174 121e 488D8DF0 		leaq	-1040(%rbp), %rcx
 2174      FBFFFF
 2175 1225 8B85ECFB 		movl	-1044(%rbp), %eax
 2175      FFFF
 2176 122b BA000400 		movl	$1024, %edx
 2176      00
 2177 1230 4889CE   		movq	%rcx, %rsi
 2178 1233 89C7     		movl	%eax, %edi
 2179 1235 E8000000 		call	EApiAHCreateErrorString
 2179      00
 903:/development/eAPI/eapidk-code/apps/EApiValidateAPI/linux/../EApiValidateAPI.c ****             EAPI_MSG_OUT(
 2180              		.loc 1 903 0
 2181 123a 8B85E4FB 		movl	-1052(%rbp), %eax
 2181      FFFF
 2182 1240 48C1E004 		salq	$4, %rax
 2183 1244 48050000 		addq	$EApiGpioDevices+8, %rax
 2183      0000
 2184 124a 488B00   		movq	(%rax), %rax
 2185 124d 488D95F0 		leaq	-1040(%rbp), %rdx
 2185      FBFFFF
 2186 1254 4889D1   		movq	%rdx, %rcx
 2187 1257 BA000000 		movl	$.LC69, %edx
 2187      00
 2188 125c 4889C6   		movq	%rax, %rsi
 2189 125f BF000000 		movl	$.LC62, %edi
 2189      00
 2190 1264 B8000000 		movl	$0, %eax
 2190      00
GAS LISTING /tmp/ccW7zoDa.s 			page 71


 2191 1269 E8000000 		call	printf
 2191      00
 904:/development/eAPI/eapidk-code/apps/EApiValidateAPI/linux/../EApiValidateAPI.c ****                         TEXT("%-15s %-25s : %s\n"),
 905:/development/eAPI/eapidk-code/apps/EApiValidateAPI/linux/../EApiValidateAPI.c ****                         EApiGpioDevices[i].Desc,
 906:/development/eAPI/eapidk-code/apps/EApiValidateAPI/linux/../EApiValidateAPI.c ****                         TEXT("EApiGPIOSetLevel"),
 907:/development/eAPI/eapidk-code/apps/EApiValidateAPI/linux/../EApiValidateAPI.c ****                         TmpStrBuf
 908:/development/eAPI/eapidk-code/apps/EApiValidateAPI/linux/../EApiValidateAPI.c ****                         );
 909:/development/eAPI/eapidk-code/apps/EApiValidateAPI/linux/../EApiValidateAPI.c ****             continue;
 2192              		.loc 1 909 0
 2193 126e E9C50000 		jmp	.L78
 2193      00
 2194              	.L83:
 910:/development/eAPI/eapidk-code/apps/EApiValidateAPI/linux/../EApiValidateAPI.c ****         }
 911:/development/eAPI/eapidk-code/apps/EApiValidateAPI/linux/../EApiValidateAPI.c ****         StatusCode=EApiGPIOGetLevel(EApiGpioDevices[i].Id, Inputs|Outputs, &Level);
 2195              		.loc 1 911 0
 2196 1273 8B95DCFB 		movl	-1060(%rbp), %edx
 2196      FFFF
 2197 1279 8B85E0FB 		movl	-1056(%rbp), %eax
 2197      FFFF
 2198 127f 89D1     		movl	%edx, %ecx
 2199 1281 09C1     		orl	%eax, %ecx
 2200 1283 8B85E4FB 		movl	-1052(%rbp), %eax
 2200      FFFF
 2201 1289 48C1E004 		salq	$4, %rax
 2202 128d 48050000 		addq	$EApiGpioDevices, %rax
 2202      0000
 2203 1293 8B00     		movl	(%rax), %eax
 2204 1295 488D95D8 		leaq	-1064(%rbp), %rdx
 2204      FBFFFF
 2205 129c 89CE     		movl	%ecx, %esi
 2206 129e 89C7     		movl	%eax, %edi
 2207 12a0 E8000000 		call	EApiGPIOGetLevel
 2207      00
 2208 12a5 8985ECFB 		movl	%eax, -1044(%rbp)
 2208      FFFF
 912:/development/eAPI/eapidk-code/apps/EApiValidateAPI/linux/../EApiValidateAPI.c ****         if(!EAPI_TEST_SUCCESS(StatusCode))
 2209              		.loc 1 912 0
 2210 12ab 83BDECFB 		cmpl	$0, -1044(%rbp)
 2210      FFFF00
 2211 12b2 7452     		je	.L84
 913:/development/eAPI/eapidk-code/apps/EApiValidateAPI/linux/../EApiValidateAPI.c ****         {
 914:/development/eAPI/eapidk-code/apps/EApiValidateAPI/linux/../EApiValidateAPI.c ****             EApiAHCreateErrorString(StatusCode, TmpStrBuf, ARRAY_SIZE(TmpStrBuf));
 2212              		.loc 1 914 0
 2213 12b4 488D8DF0 		leaq	-1040(%rbp), %rcx
 2213      FBFFFF
 2214 12bb 8B85ECFB 		movl	-1044(%rbp), %eax
 2214      FFFF
 2215 12c1 BA000400 		movl	$1024, %edx
 2215      00
 2216 12c6 4889CE   		movq	%rcx, %rsi
 2217 12c9 89C7     		movl	%eax, %edi
 2218 12cb E8000000 		call	EApiAHCreateErrorString
 2218      00
 915:/development/eAPI/eapidk-code/apps/EApiValidateAPI/linux/../EApiValidateAPI.c ****             EAPI_MSG_OUT(
 2219              		.loc 1 915 0
 2220 12d0 8B85E4FB 		movl	-1052(%rbp), %eax
 2220      FFFF
GAS LISTING /tmp/ccW7zoDa.s 			page 72


 2221 12d6 48C1E004 		salq	$4, %rax
 2222 12da 48050000 		addq	$EApiGpioDevices+8, %rax
 2222      0000
 2223 12e0 488B00   		movq	(%rax), %rax
 2224 12e3 488D95F0 		leaq	-1040(%rbp), %rdx
 2224      FBFFFF
 2225 12ea 4889D1   		movq	%rdx, %rcx
 2226 12ed BA000000 		movl	$.LC64, %edx
 2226      00
 2227 12f2 4889C6   		movq	%rax, %rsi
 2228 12f5 BF000000 		movl	$.LC62, %edi
 2228      00
 2229 12fa B8000000 		movl	$0, %eax
 2229      00
 2230 12ff E8000000 		call	printf
 2230      00
 916:/development/eAPI/eapidk-code/apps/EApiValidateAPI/linux/../EApiValidateAPI.c ****                         TEXT("%-15s %-25s : %s\n"),
 917:/development/eAPI/eapidk-code/apps/EApiValidateAPI/linux/../EApiValidateAPI.c ****                         EApiGpioDevices[i].Desc,
 918:/development/eAPI/eapidk-code/apps/EApiValidateAPI/linux/../EApiValidateAPI.c ****                         TEXT("EApiGPIOGetDirection"),
 919:/development/eAPI/eapidk-code/apps/EApiValidateAPI/linux/../EApiValidateAPI.c ****                         TmpStrBuf
 920:/development/eAPI/eapidk-code/apps/EApiValidateAPI/linux/../EApiValidateAPI.c ****                         );
 921:/development/eAPI/eapidk-code/apps/EApiValidateAPI/linux/../EApiValidateAPI.c ****             continue;
 2231              		.loc 1 921 0
 2232 1304 EB32     		jmp	.L78
 2233              	.L84:
 922:/development/eAPI/eapidk-code/apps/EApiValidateAPI/linux/../EApiValidateAPI.c ****         }
 923:/development/eAPI/eapidk-code/apps/EApiValidateAPI/linux/../EApiValidateAPI.c ****         EAPI_MSG_OUT(
 2234              		.loc 1 923 0
 2235 1306 8B95D8FB 		movl	-1064(%rbp), %edx
 2235      FFFF
 2236 130c 8B85E4FB 		movl	-1052(%rbp), %eax
 2236      FFFF
 2237 1312 48C1E004 		salq	$4, %rax
 2238 1316 48050000 		addq	$EApiGpioDevices+8, %rax
 2238      0000
 2239 131c 488B00   		movq	(%rax), %rax
 2240 131f 89D1     		movl	%edx, %ecx
 2241 1321 BA000000 		movl	$.LC69, %edx
 2241      00
 2242 1326 4889C6   		movq	%rax, %rsi
 2243 1329 BF000000 		movl	$.LC67, %edi
 2243      00
 2244 132e B8000000 		movl	$0, %eax
 2244      00
 2245 1333 E8000000 		call	printf
 2245      00
 2246              	.L78:
 808:/development/eAPI/eapidk-code/apps/EApiValidateAPI/linux/../EApiValidateAPI.c ****         /*       *((int*)NULL)=0; */
 2247              		.loc 1 808 0 discriminator 2
 2248 1338 8385E4FB 		addl	$1, -1052(%rbp)
 2248      FFFF01
 2249              	.L76:
 808:/development/eAPI/eapidk-code/apps/EApiValidateAPI/linux/../EApiValidateAPI.c ****         /*       *((int*)NULL)=0; */
 2250              		.loc 1 808 0 is_stmt 0 discriminator 1
 2251 133f 83BDE4FB 		cmpl	$11, -1052(%rbp)
 2251      FFFF0B
 2252 1346 0F86E5FA 		jbe	.L85
GAS LISTING /tmp/ccW7zoDa.s 			page 73


 2252      FFFF
 924:/development/eAPI/eapidk-code/apps/EApiValidateAPI/linux/../EApiValidateAPI.c ****                     TEXT("%-15s %-25s : Level    =%08")TEXT(PRIX32)TEXT("\n"),
 925:/development/eAPI/eapidk-code/apps/EApiValidateAPI/linux/../EApiValidateAPI.c ****                     EApiGpioDevices[i].Desc,
 926:/development/eAPI/eapidk-code/apps/EApiValidateAPI/linux/../EApiValidateAPI.c ****                     TEXT("EApiGPIOSetLevel"),
 927:/development/eAPI/eapidk-code/apps/EApiValidateAPI/linux/../EApiValidateAPI.c ****                     Level);
 928:/development/eAPI/eapidk-code/apps/EApiValidateAPI/linux/../EApiValidateAPI.c ****     }
 929:/development/eAPI/eapidk-code/apps/EApiValidateAPI/linux/../EApiValidateAPI.c ****     for(i=0;i<10;i++) /* Iterated throught Ids */
 2253              		.loc 1 929 0 is_stmt 1
 2254 134c C785E4FB 		movl	$0, -1052(%rbp)
 2254      FFFF0000 
 2254      0000
 2255 1356 E9140100 		jmp	.L86
 2255      00
 2256              	.L92:
 930:/development/eAPI/eapidk-code/apps/EApiValidateAPI/linux/../EApiValidateAPI.c ****     {
 931:/development/eAPI/eapidk-code/apps/EApiValidateAPI/linux/../EApiValidateAPI.c ****         for(i2=0;i2<ARRAY_SIZE(EApiGpioterfaceValidate);i2++) /* Iterated thought test cases */
 2257              		.loc 1 931 0
 2258 135b C785E8FB 		movl	$0, -1048(%rbp)
 2258      FFFF0000 
 2258      0000
 2259 1365 E9F10000 		jmp	.L87
 2259      00
 2260              	.L91:
 932:/development/eAPI/eapidk-code/apps/EApiValidateAPI/linux/../EApiValidateAPI.c ****         {
 933:/development/eAPI/eapidk-code/apps/EApiValidateAPI/linux/../EApiValidateAPI.c ****             StatusCode=EApiGPIOGetDirectionCaps(
 2261              		.loc 1 933 0
 2262 136a 8B85E8FB 		movl	-1048(%rbp), %eax
 2262      FFFF
 2263 1370 48C1E005 		salq	$5, %rax
 2264 1374 48050000 		addq	$EApiGpioterfaceValidate+8, %rax
 2264      0000
 2265 137a 488B10   		movq	(%rax), %rdx
 2266 137d 8B85E8FB 		movl	-1048(%rbp), %eax
 2266      FFFF
 2267 1383 48C1E005 		salq	$5, %rax
 2268 1387 48050000 		addq	$EApiGpioterfaceValidate, %rax
 2268      0000
 2269 138d 488B08   		movq	(%rax), %rcx
 2270 1390 8B85E4FB 		movl	-1052(%rbp), %eax
 2270      FFFF
 2271 1396 4889CE   		movq	%rcx, %rsi
 2272 1399 89C7     		movl	%eax, %edi
 2273 139b E8000000 		call	EApiGPIOGetDirectionCaps
 2273      00
 2274 13a0 8985ECFB 		movl	%eax, -1044(%rbp)
 2274      FFFF
 934:/development/eAPI/eapidk-code/apps/EApiValidateAPI/linux/../EApiValidateAPI.c ****                         i,
 935:/development/eAPI/eapidk-code/apps/EApiValidateAPI/linux/../EApiValidateAPI.c ****                         EApiGpioterfaceValidate[i2].pInputs,
 936:/development/eAPI/eapidk-code/apps/EApiValidateAPI/linux/../EApiValidateAPI.c ****                         EApiGpioterfaceValidate[i2].pOutputs
 937:/development/eAPI/eapidk-code/apps/EApiValidateAPI/linux/../EApiValidateAPI.c ****                         );
 938:/development/eAPI/eapidk-code/apps/EApiValidateAPI/linux/../EApiValidateAPI.c ****             EAPI_LOG_RETURN_VALUE(EApiGPIOGetDirectionCaps, EApiGpioterfaceValidate);
 2275              		.loc 1 938 0
 2276 13a6 8B85E8FB 		movl	-1048(%rbp), %eax
 2276      FFFF
 2277 13ac 48C1E005 		salq	$5, %rax
 2278 13b0 48050000 		addq	$EApiGpioterfaceValidate+16, %rax
 2278      0000
GAS LISTING /tmp/ccW7zoDa.s 			page 74


 2279 13b6 8B00     		movl	(%rax), %eax
 2280 13b8 3B85ECFB 		cmpl	-1044(%rbp), %eax
 2280      FFFF
 2281 13be 7434     		je	.L88
 2282              		.loc 1 938 0 is_stmt 0 discriminator 2
 2283 13c0 8B85E8FB 		movl	-1048(%rbp), %eax
 2283      FFFF
 2284 13c6 48C1E005 		salq	$5, %rax
 2285 13ca 48050000 		addq	$EApiGpioterfaceValidate+20, %rax
 2285      0000
 2286 13d0 8B00     		movl	(%rax), %eax
 2287 13d2 3B85ECFB 		cmpl	-1044(%rbp), %eax
 2287      FFFF
 2288 13d8 741A     		je	.L88
 2289              		.loc 1 938 0 discriminator 4
 2290 13da 8B85E8FB 		movl	-1048(%rbp), %eax
 2290      FFFF
 2291 13e0 48C1E005 		salq	$5, %rax
 2292 13e4 48050000 		addq	$EApiGpioterfaceValidate+24, %rax
 2292      0000
 2293 13ea 8B00     		movl	(%rax), %eax
 2294 13ec 3B85ECFB 		cmpl	-1044(%rbp), %eax
 2294      FFFF
 2295 13f2 7507     		jne	.L89
 2296              	.L88:
 2297              		.loc 1 938 0 discriminator 5
 2298 13f4 B8010000 		movl	$1, %eax
 2298      00
 2299 13f9 EB05     		jmp	.L90
 2300              	.L89:
 2301              		.loc 1 938 0 discriminator 6
 2302 13fb B8000000 		movl	$0, %eax
 2302      00
 2303              	.L90:
 2304              		.loc 1 938 0 discriminator 8
 2305 1400 4898     		cltq
 2306 1402 488B14C5 		movq	FailPass(,%rax,8), %rdx
 2306      00000000 
 2307 140a 488B0500 		movq	LogStream(%rip), %rax
 2307      000000
 2308 1411 8B8DECFB 		movl	-1044(%rbp), %ecx
 2308      FFFF
 2309 1417 52       		pushq	%rdx
 2310 1418 8B95E8FB 		movl	-1048(%rbp), %edx
 2310      FFFF
 2311 141e 52       		pushq	%rdx
 2312 141f 8B95E4FB 		movl	-1052(%rbp), %edx
 2312      FFFF
 2313 1425 52       		pushq	%rdx
 2314 1426 68000000 		pushq	$.LC47
 2314      00
 2315 142b 4189C9   		movl	%ecx, %r9d
 2316 142e 41B8AA03 		movl	$938, %r8d
 2316      0000
 2317 1434 B9000000 		movl	$.LC61, %ecx
 2317      00
 2318 1439 BA000000 		movl	$.LC46, %edx
GAS LISTING /tmp/ccW7zoDa.s 			page 75


 2318      00
 2319 143e BE4C0000 		movl	$76, %esi
 2319      00
 2320 1443 4889C7   		movq	%rax, %rdi
 2321 1446 B8000000 		movl	$0, %eax
 2321      00
 2322 144b E8000000 		call	siFFormattedMessage_SC
 2322      00
 2323 1450 4883C420 		addq	$32, %rsp
 931:/development/eAPI/eapidk-code/apps/EApiValidateAPI/linux/../EApiValidateAPI.c ****         {
 2324              		.loc 1 931 0 is_stmt 1 discriminator 8
 2325 1454 8385E8FB 		addl	$1, -1048(%rbp)
 2325      FFFF01
 2326              	.L87:
 931:/development/eAPI/eapidk-code/apps/EApiValidateAPI/linux/../EApiValidateAPI.c ****         {
 2327              		.loc 1 931 0 is_stmt 0 discriminator 2
 2328 145b 83BDE8FB 		cmpl	$3, -1048(%rbp)
 2328      FFFF03
 2329 1462 0F8602FF 		jbe	.L91
 2329      FFFF
 929:/development/eAPI/eapidk-code/apps/EApiValidateAPI/linux/../EApiValidateAPI.c ****     {
 2330              		.loc 1 929 0 is_stmt 1 discriminator 2
 2331 1468 8385E4FB 		addl	$1, -1052(%rbp)
 2331      FFFF01
 2332              	.L86:
 929:/development/eAPI/eapidk-code/apps/EApiValidateAPI/linux/../EApiValidateAPI.c ****     {
 2333              		.loc 1 929 0 is_stmt 0 discriminator 1
 2334 146f 83BDE4FB 		cmpl	$9, -1052(%rbp)
 2334      FFFF09
 2335 1476 0F86DFFE 		jbe	.L92
 2335      FFFF
 939:/development/eAPI/eapidk-code/apps/EApiValidateAPI/linux/../EApiValidateAPI.c ****         }
 940:/development/eAPI/eapidk-code/apps/EApiValidateAPI/linux/../EApiValidateAPI.c ****     }
 941:/development/eAPI/eapidk-code/apps/EApiValidateAPI/linux/../EApiValidateAPI.c ****     return ;
 2336              		.loc 1 941 0 is_stmt 1
 2337 147c 90       		nop
 942:/development/eAPI/eapidk-code/apps/EApiValidateAPI/linux/../EApiValidateAPI.c **** }
 2338              		.loc 1 942 0
 2339 147d 488B45F8 		movq	-8(%rbp), %rax
 2340 1481 64483304 		xorq	%fs:40, %rax
 2340      25280000 
 2340      00
 2341 148a 7405     		je	.L94
 2342 148c E8000000 		call	__stack_chk_fail
 2342      00
 2343              	.L94:
 2344 1491 C9       		leave
 2345              		.cfi_def_cfa 7, 8
 2346 1492 C3       		ret
 2347              		.cfi_endproc
 2348              	.LFE8:
 2350              		.globl	TestFunctions
 2351              		.section	.rodata
 2352              	.LC70:
 2353 0e63 56616C75 		.string	"Values Function"
 2353      65732046 
 2353      756E6374 
GAS LISTING /tmp/ccW7zoDa.s 			page 76


 2353      696F6E00 
 2354              	.LC71:
 2355 0e73 53747269 		.string	"Strings Function"
 2355      6E677320 
 2355      46756E63 
 2355      74696F6E 
 2355      00
 2356              	.LC72:
 2357 0e84 49324320 		.string	"I2C Function"
 2357      46756E63 
 2357      74696F6E 
 2357      00
 2358              	.LC73:
 2359 0e91 53746F72 		.string	"Storage Function"
 2359      61676520 
 2359      46756E63 
 2359      74696F6E 
 2359      00
 2360              	.LC74:
 2361 0ea2 4770696F 		.string	"Gpio Function"
 2361      2046756E 
 2361      6374696F 
 2361      6E00
 2362 0eb0 00000000 		.align 32
 2362      00000000 
 2362      00000000 
 2362      00000000 
 2365              	TestFunctions:
 2366 0ec0 00000000 		.quad	EApiValidateValuesApi
 2366      00000000 
 2367 0ec8 00000000 		.quad	.LC70
 2367      00000000 
 2368 0ed0 00000000 		.quad	EApiValidateStringApi
 2368      00000000 
 2369 0ed8 00000000 		.quad	.LC71
 2369      00000000 
 2370 0ee0 00000000 		.quad	EApiValidateI2CApi
 2370      00000000 
 2371 0ee8 00000000 		.quad	.LC72
 2371      00000000 
 2372 0ef0 00000000 		.quad	EApiValidateStorageApi
 2372      00000000 
 2373 0ef8 00000000 		.quad	.LC73
 2373      00000000 
 2374 0f00 00000000 		.quad	EApiValidateGPIOApi
 2374      00000000 
 2375 0f08 00000000 		.quad	.LC74
 2375      00000000 
 2376              	.LC75:
 2377 0f10 7700     		.string	"w"
 2378              	.LC76:
 2379 0f12 45417069 		.string	"EApiValidateAPI.log"
 2379      56616C69 
 2379      64617465 
 2379      4150492E 
 2379      6C6F6700 
 2380              	.LC77:
GAS LISTING /tmp/ccW7zoDa.s 			page 77


 2381 0f26 496400   		.string	"Id"
 2382              	.LC78:
 2383 0f29 53746174 		.string	"Status Code"
 2383      75732043 
 2383      6F646500 
 2384              	.LC79:
 2385 0f35 46756E63 		.string	"Function Name"
 2385      74696F6E 
 2385      204E616D 
 2385      6500
 2386 0f43 00000000 		.align 8
 2386      00
 2387              	.LC80:
 2388 0f48 4C253034 		.string	"L%04u %-30s | %-25s | %5s %5s    [%s]\n"
 2388      7520252D 
 2388      33307320 
 2388      7C20252D 
 2388      32357320 
 2389              	.LC81:
 2390 0f6f 53746174 		.string	"Status"
 2390      757300
 2391              	.LC82:
 2392 0f76 54657374 		.string	"Test#"
 2392      2300
 2393 0f7c 00000000 		.align 8
 2394              	.LC83:
 2395 0f80 45417069 		.string	"EApi(Embedded Application Interface)\nEApi Verification Tool                            V
 2395      28456D62 
 2395      65646465 
 2395      64204170 
 2395      706C6963 
 2396              		.text
 2397              		.globl	main
 2399              	main:
 2400              	.LFB9:
 943:/development/eAPI/eapidk-code/apps/EApiValidateAPI/linux/../EApiValidateAPI.c **** /*
 944:/development/eAPI/eapidk-code/apps/EApiValidateAPI/linux/../EApiValidateAPI.c ****  * Test Functions Table
 945:/development/eAPI/eapidk-code/apps/EApiValidateAPI/linux/../EApiValidateAPI.c ****  *
 946:/development/eAPI/eapidk-code/apps/EApiValidateAPI/linux/../EApiValidateAPI.c ****  */
 947:/development/eAPI/eapidk-code/apps/EApiValidateAPI/linux/../EApiValidateAPI.c **** typedef struct TestFunctionsTbl_s{
 948:/development/eAPI/eapidk-code/apps/EApiValidateAPI/linux/../EApiValidateAPI.c ****     EApiValidateTestFunction *TestHandler;
 949:/development/eAPI/eapidk-code/apps/EApiValidateAPI/linux/../EApiValidateAPI.c ****     const TCHAR *const TestDesc;
 950:/development/eAPI/eapidk-code/apps/EApiValidateAPI/linux/../EApiValidateAPI.c **** }TestFunctionsTbl_t;
 951:/development/eAPI/eapidk-code/apps/EApiValidateAPI/linux/../EApiValidateAPI.c **** const TestFunctionsTbl_t TestFunctions[]={
 952:/development/eAPI/eapidk-code/apps/EApiValidateAPI/linux/../EApiValidateAPI.c ****     {EApiValidateValuesApi  , TEXT("Values Function"     )},
 953:/development/eAPI/eapidk-code/apps/EApiValidateAPI/linux/../EApiValidateAPI.c ****     {EApiValidateStringApi  , TEXT("Strings Function"    )},
 954:/development/eAPI/eapidk-code/apps/EApiValidateAPI/linux/../EApiValidateAPI.c ****     {EApiValidateI2CApi     , TEXT("I2C Function"        )},
 955:/development/eAPI/eapidk-code/apps/EApiValidateAPI/linux/../EApiValidateAPI.c ****     {EApiValidateStorageApi , TEXT("Storage Function"    )},
 956:/development/eAPI/eapidk-code/apps/EApiValidateAPI/linux/../EApiValidateAPI.c ****     {EApiValidateGPIOApi    , TEXT("Gpio Function"       )},
 957:/development/eAPI/eapidk-code/apps/EApiValidateAPI/linux/../EApiValidateAPI.c **** };
 958:/development/eAPI/eapidk-code/apps/EApiValidateAPI/linux/../EApiValidateAPI.c **** /* void __cdecl main( __IN  char *const *const  argv, __IN const int argc) */
 959:/development/eAPI/eapidk-code/apps/EApiValidateAPI/linux/../EApiValidateAPI.c **** typedef enum ProgramStatusCodes_e{
 960:/development/eAPI/eapidk-code/apps/EApiValidateAPI/linux/../EApiValidateAPI.c ****     PRG_RETURN_OK             =0,
 961:/development/eAPI/eapidk-code/apps/EApiValidateAPI/linux/../EApiValidateAPI.c ****     PRG_RETURN_ERROR            ,
 962:/development/eAPI/eapidk-code/apps/EApiValidateAPI/linux/../EApiValidateAPI.c ****     PRG_RETURN_LIB_INIT_ERROR   ,
 963:/development/eAPI/eapidk-code/apps/EApiValidateAPI/linux/../EApiValidateAPI.c ****     PRG_RETURN_LIB_UNINIT_ERROR
 964:/development/eAPI/eapidk-code/apps/EApiValidateAPI/linux/../EApiValidateAPI.c **** }ProgramStatusCodes_t;
GAS LISTING /tmp/ccW7zoDa.s 			page 78


 965:/development/eAPI/eapidk-code/apps/EApiValidateAPI/linux/../EApiValidateAPI.c **** int
 966:/development/eAPI/eapidk-code/apps/EApiValidateAPI/linux/../EApiValidateAPI.c **** __cdecl
 967:/development/eAPI/eapidk-code/apps/EApiValidateAPI/linux/../EApiValidateAPI.c **** main(void)
 968:/development/eAPI/eapidk-code/apps/EApiValidateAPI/linux/../EApiValidateAPI.c **** {
 2401              		.loc 1 968 0
 2402              		.cfi_startproc
 2403 1493 55       		pushq	%rbp
 2404              		.cfi_def_cfa_offset 16
 2405              		.cfi_offset 6, -16
 2406 1494 4889E5   		movq	%rsp, %rbp
 2407              		.cfi_def_cfa_register 6
 969:/development/eAPI/eapidk-code/apps/EApiValidateAPI/linux/../EApiValidateAPI.c ****     //unsigned i;
 970:/development/eAPI/eapidk-code/apps/EApiValidateAPI/linux/../EApiValidateAPI.c ****     LogStream=EAPI_fopen(TEXT("EApiValidateAPI.log"), TEXT("w"));
 2408              		.loc 1 970 0
 2409 1497 BE000000 		movl	$.LC75, %esi
 2409      00
 2410 149c BF000000 		movl	$.LC76, %edi
 2410      00
 2411 14a1 E8000000 		call	fopen
 2411      00
 2412 14a6 48890500 		movq	%rax, LogStream(%rip)
 2412      000000
 971:/development/eAPI/eapidk-code/apps/EApiValidateAPI/linux/../EApiValidateAPI.c ****     if(LogStream==NULL)
 2413              		.loc 1 971 0
 2414 14ad 488B0500 		movq	LogStream(%rip), %rax
 2414      000000
 2415 14b4 4885C0   		testq	%rax, %rax
 2416 14b7 750E     		jne	.L96
 972:/development/eAPI/eapidk-code/apps/EApiValidateAPI/linux/../EApiValidateAPI.c ****         LogStream=stdout;
 2417              		.loc 1 972 0
 2418 14b9 488B0500 		movq	stdout(%rip), %rax
 2418      000000
 2419 14c0 48890500 		movq	%rax, LogStream(%rip)
 2419      000000
 2420              	.L96:
 973:/development/eAPI/eapidk-code/apps/EApiValidateAPI/linux/../EApiValidateAPI.c ****     if(!EAPI_TEST_SUCCESS(EApiLibInitialize()))
 2421              		.loc 1 973 0
 2422 14c7 E8000000 		call	EApiLibInitialize
 2422      00
 2423 14cc 85C0     		testl	%eax, %eax
 2424 14ce 740A     		je	.L97
 974:/development/eAPI/eapidk-code/apps/EApiValidateAPI/linux/../EApiValidateAPI.c ****     {
 975:/development/eAPI/eapidk-code/apps/EApiValidateAPI/linux/../EApiValidateAPI.c ****         exit(PRG_RETURN_LIB_INIT_ERROR);
 2425              		.loc 1 975 0
 2426 14d0 BF020000 		movl	$2, %edi
 2426      00
 2427 14d5 E8000000 		call	exit
 2427      00
 2428              	.L97:
 976:/development/eAPI/eapidk-code/apps/EApiValidateAPI/linux/../EApiValidateAPI.c ****     }
 977:/development/eAPI/eapidk-code/apps/EApiValidateAPI/linux/../EApiValidateAPI.c ****     EAPI_fprintf(
 2429              		.loc 1 977 0
 2430 14da 488B0500 		movq	LogStream(%rip), %rax
 2430      000000
 2431 14e1 68000000 		pushq	$.LC81
 2431      00
 2432 14e6 68000000 		pushq	$.LC82
GAS LISTING /tmp/ccW7zoDa.s 			page 79


 2432      00
 2433 14eb 41B90000 		movl	$.LC77, %r9d
 2433      0000
 2434 14f1 41B80000 		movl	$.LC78, %r8d
 2434      0000
 2435 14f7 B9000000 		movl	$.LC79, %ecx
 2435      00
 2436 14fc BAD40300 		movl	$980, %edx
 2436      00
 2437 1501 BE000000 		movl	$.LC80, %esi
 2437      00
 2438 1506 4889C7   		movq	%rax, %rdi
 2439 1509 B8000000 		movl	$0, %eax
 2439      00
 2440 150e E8000000 		call	fprintf
 2440      00
 2441 1513 4883C410 		addq	$16, %rsp
 978:/development/eAPI/eapidk-code/apps/EApiValidateAPI/linux/../EApiValidateAPI.c ****                 LogStream,
 979:/development/eAPI/eapidk-code/apps/EApiValidateAPI/linux/../EApiValidateAPI.c ****                 TEXT("L%04u %-30s | %-25s | %5s %5s    [%s]\n"),
 980:/development/eAPI/eapidk-code/apps/EApiValidateAPI/linux/../EApiValidateAPI.c ****                 __LINE__              ,
 981:/development/eAPI/eapidk-code/apps/EApiValidateAPI/linux/../EApiValidateAPI.c ****                 TEXT("Function Name") ,
 982:/development/eAPI/eapidk-code/apps/EApiValidateAPI/linux/../EApiValidateAPI.c ****                 TEXT("Status Code")   ,
 983:/development/eAPI/eapidk-code/apps/EApiValidateAPI/linux/../EApiValidateAPI.c ****                 TEXT("Id")            ,
 984:/development/eAPI/eapidk-code/apps/EApiValidateAPI/linux/../EApiValidateAPI.c ****                 TEXT("Test#")         ,
 985:/development/eAPI/eapidk-code/apps/EApiValidateAPI/linux/../EApiValidateAPI.c ****                 TEXT("Status")
 986:/development/eAPI/eapidk-code/apps/EApiValidateAPI/linux/../EApiValidateAPI.c ****                 );
 987:/development/eAPI/eapidk-code/apps/EApiValidateAPI/linux/../EApiValidateAPI.c **** 
 988:/development/eAPI/eapidk-code/apps/EApiValidateAPI/linux/../EApiValidateAPI.c ****     EAPI_fprintf(
 2442              		.loc 1 988 0
 2443 1517 488B0500 		movq	stderr(%rip), %rax
 2443      000000
 2444 151e 41B8FE02 		movl	$766, %r8d
 2444      0000
 2445 1524 B9050000 		movl	$5, %ecx
 2445      00
 2446 1529 BA000000 		movl	$0, %edx
 2446      00
 2447 152e BE000000 		movl	$.LC83, %esi
 2447      00
 2448 1533 4889C7   		movq	%rax, %rdi
 2449 1536 B8000000 		movl	$0, %eax
 2449      00
 2450 153b E8000000 		call	fprintf
 2450      00
 989:/development/eAPI/eapidk-code/apps/EApiValidateAPI/linux/../EApiValidateAPI.c ****                 stderr        ,
 990:/development/eAPI/eapidk-code/apps/EApiValidateAPI/linux/../EApiValidateAPI.c ****                 TEXT("EApi(Embedded Application Interface)\n")
 991:/development/eAPI/eapidk-code/apps/EApiValidateAPI/linux/../EApiValidateAPI.c ****                 TEXT("EApi Verification Tool                            Version %u.%u.%u\n"),
 992:/development/eAPI/eapidk-code/apps/EApiValidateAPI/linux/../EApiValidateAPI.c ****                 APP_VERSION   ,
 993:/development/eAPI/eapidk-code/apps/EApiValidateAPI/linux/../EApiValidateAPI.c ****                 APP_REVISION  ,
 994:/development/eAPI/eapidk-code/apps/EApiValidateAPI/linux/../EApiValidateAPI.c ****                 APP_BUILD
 995:/development/eAPI/eapidk-code/apps/EApiValidateAPI/linux/../EApiValidateAPI.c ****                 );
 996:/development/eAPI/eapidk-code/apps/EApiValidateAPI/linux/../EApiValidateAPI.c **** 
 997:/development/eAPI/eapidk-code/apps/EApiValidateAPI/linux/../EApiValidateAPI.c ****     /*for(i=0;i<ARRAY_SIZE(TestFunctions);i++){
 998:/development/eAPI/eapidk-code/apps/EApiValidateAPI/linux/../EApiValidateAPI.c ****     EAPI_MSG_OUT(
 999:/development/eAPI/eapidk-code/apps/EApiValidateAPI/linux/../EApiValidateAPI.c ****       TEXT("#\n")
1000:/development/eAPI/eapidk-code/apps/EApiValidateAPI/linux/../EApiValidateAPI.c ****       TEXT("# %s\n")
1001:/development/eAPI/eapidk-code/apps/EApiValidateAPI/linux/../EApiValidateAPI.c ****       TEXT("#\n"),  TestFunctions[i].TestDesc
GAS LISTING /tmp/ccW7zoDa.s 			page 80


1002:/development/eAPI/eapidk-code/apps/EApiValidateAPI/linux/../EApiValidateAPI.c ****       );
1003:/development/eAPI/eapidk-code/apps/EApiValidateAPI/linux/../EApiValidateAPI.c **** 
1004:/development/eAPI/eapidk-code/apps/EApiValidateAPI/linux/../EApiValidateAPI.c ****     TestFunctions[i].TestHandler();
1005:/development/eAPI/eapidk-code/apps/EApiValidateAPI/linux/../EApiValidateAPI.c ****   }*/
1006:/development/eAPI/eapidk-code/apps/EApiValidateAPI/linux/../EApiValidateAPI.c **** 
1007:/development/eAPI/eapidk-code/apps/EApiValidateAPI/linux/../EApiValidateAPI.c ****     //    for(i=0;i<2;i++){
1008:/development/eAPI/eapidk-code/apps/EApiValidateAPI/linux/../EApiValidateAPI.c ****     //      EAPI_MSG_OUT(
1009:/development/eAPI/eapidk-code/apps/EApiValidateAPI/linux/../EApiValidateAPI.c ****     //        TEXT("#\n")
1010:/development/eAPI/eapidk-code/apps/EApiValidateAPI/linux/../EApiValidateAPI.c ****     //        TEXT("# %s\n")
1011:/development/eAPI/eapidk-code/apps/EApiValidateAPI/linux/../EApiValidateAPI.c ****     //        TEXT("#\n"),  TestFunctions[i].TestDesc
1012:/development/eAPI/eapidk-code/apps/EApiValidateAPI/linux/../EApiValidateAPI.c ****     //        );
1013:/development/eAPI/eapidk-code/apps/EApiValidateAPI/linux/../EApiValidateAPI.c **** 
1014:/development/eAPI/eapidk-code/apps/EApiValidateAPI/linux/../EApiValidateAPI.c ****     //      TestFunctions[i].TestHandler();
1015:/development/eAPI/eapidk-code/apps/EApiValidateAPI/linux/../EApiValidateAPI.c ****     //    }
1016:/development/eAPI/eapidk-code/apps/EApiValidateAPI/linux/../EApiValidateAPI.c **** 
1017:/development/eAPI/eapidk-code/apps/EApiValidateAPI/linux/../EApiValidateAPI.c ****     TestFunctions[0].TestHandler();
 2451              		.loc 1 1017 0
 2452 1540 B8000000 		movl	$EApiValidateValuesApi, %eax
 2452      00
 2453 1545 FFD0     		call	*%rax
1018:/development/eAPI/eapidk-code/apps/EApiValidateAPI/linux/../EApiValidateAPI.c ****     TestFunctions[1].TestHandler();
 2454              		.loc 1 1018 0
 2455 1547 B8000000 		movl	$EApiValidateStringApi, %eax
 2455      00
 2456 154c FFD0     		call	*%rax
1019:/development/eAPI/eapidk-code/apps/EApiValidateAPI/linux/../EApiValidateAPI.c ****     TestFunctions[2].TestHandler();
 2457              		.loc 1 1019 0
 2458 154e B8000000 		movl	$EApiValidateI2CApi, %eax
 2458      00
 2459 1553 FFD0     		call	*%rax
1020:/development/eAPI/eapidk-code/apps/EApiValidateAPI/linux/../EApiValidateAPI.c **** 
1021:/development/eAPI/eapidk-code/apps/EApiValidateAPI/linux/../EApiValidateAPI.c ****     if(!EAPI_TEST_SUCCESS(EApiLibInitialize()))
 2460              		.loc 1 1021 0
 2461 1555 E8000000 		call	EApiLibInitialize
 2461      00
 2462 155a 85C0     		testl	%eax, %eax
 2463 155c 740A     		je	.L98
1022:/development/eAPI/eapidk-code/apps/EApiValidateAPI/linux/../EApiValidateAPI.c ****     {
1023:/development/eAPI/eapidk-code/apps/EApiValidateAPI/linux/../EApiValidateAPI.c ****         exit(PRG_RETURN_LIB_UNINIT_ERROR);
 2464              		.loc 1 1023 0
 2465 155e BF030000 		movl	$3, %edi
 2465      00
 2466 1563 E8000000 		call	exit
 2466      00
 2467              	.L98:
1024:/development/eAPI/eapidk-code/apps/EApiValidateAPI/linux/../EApiValidateAPI.c ****     }
1025:/development/eAPI/eapidk-code/apps/EApiValidateAPI/linux/../EApiValidateAPI.c ****     exit(PRG_RETURN_OK);
 2468              		.loc 1 1025 0
 2469 1568 BF000000 		movl	$0, %edi
 2469      00
 2470 156d E8000000 		call	exit
 2470      00
 2471              		.cfi_endproc
 2472              	.LFE9:
 2474              	.Letext0:
 2475              		.file 2 "/usr/lib/gcc/x86_64-linux-gnu/5/include/stddef.h"
 2476              		.file 3 "/usr/include/x86_64-linux-gnu/bits/types.h"
GAS LISTING /tmp/ccW7zoDa.s 			page 81


 2477              		.file 4 "/usr/include/stdio.h"
 2478              		.file 5 "/usr/include/libio.h"
 2479              		.file 6 "/usr/lib/gcc/x86_64-linux-gnu/5/include/stdarg.h"
 2480              		.file 7 "<built-in>"
 2481              		.file 8 "/usr/include/stdint.h"
 2482              		.file 9 "../../../include/EApi.h"
 2483              		.file 10 "../../include/EApiAHStr.h"
 2484              		.file 11 "../../include/EApiAHI2C.h"
GAS LISTING /tmp/ccW7zoDa.s 			page 82

